ARM GAS  /tmp//cc6kIlXX.s 			page 1


   1              		.cpu cortex-m3
   2              		.arch armv7-m
   3              		.fpu softvfp
   4              		.eabi_attribute 20, 1
   5              		.eabi_attribute 21, 1
   6              		.eabi_attribute 23, 3
   7              		.eabi_attribute 24, 1
   8              		.eabi_attribute 25, 1
   9              		.eabi_attribute 26, 1
  10              		.eabi_attribute 30, 6
  11              		.eabi_attribute 34, 1
  12              		.eabi_attribute 18, 4
  13              		.file	"stm32f1xx_hal_tim_ex.c"
  14              		.text
  15              	.Ltext0:
  16              		.cfi_sections	.debug_frame
  17              		.file 1 "Drivers/STM32F1xx_HAL_Driver/Src/stm32f1xx_hal_tim_ex.c"
  18              		.section	.text.HAL_TIMEx_HallSensor_Init,"ax",%progbits
  19              		.align	1
  20              		.global	HAL_TIMEx_HallSensor_Init
  21              		.syntax unified
  22              		.thumb
  23              		.thumb_func
  25              	HAL_TIMEx_HallSensor_Init:
  26              	.LFB65:
   1:Drivers/STM32F1xx_HAL_Driver/Src/stm32f1xx_hal_tim_ex.c **** /**
   2:Drivers/STM32F1xx_HAL_Driver/Src/stm32f1xx_hal_tim_ex.c ****   ******************************************************************************
   3:Drivers/STM32F1xx_HAL_Driver/Src/stm32f1xx_hal_tim_ex.c ****   * @file    stm32f1xx_hal_tim_ex.c
   4:Drivers/STM32F1xx_HAL_Driver/Src/stm32f1xx_hal_tim_ex.c ****   * @author  MCD Application Team
   5:Drivers/STM32F1xx_HAL_Driver/Src/stm32f1xx_hal_tim_ex.c ****   * @brief   TIM HAL module driver.
   6:Drivers/STM32F1xx_HAL_Driver/Src/stm32f1xx_hal_tim_ex.c ****   *          This file provides firmware functions to manage the following
   7:Drivers/STM32F1xx_HAL_Driver/Src/stm32f1xx_hal_tim_ex.c ****   *          functionalities of the Timer Extended peripheral:
   8:Drivers/STM32F1xx_HAL_Driver/Src/stm32f1xx_hal_tim_ex.c ****   *           + Time Hall Sensor Interface Initialization
   9:Drivers/STM32F1xx_HAL_Driver/Src/stm32f1xx_hal_tim_ex.c ****   *           + Time Hall Sensor Interface Start
  10:Drivers/STM32F1xx_HAL_Driver/Src/stm32f1xx_hal_tim_ex.c ****   *           + Time Complementary signal break and dead time configuration
  11:Drivers/STM32F1xx_HAL_Driver/Src/stm32f1xx_hal_tim_ex.c ****   *           + Time Master and Slave synchronization configuration
  12:Drivers/STM32F1xx_HAL_Driver/Src/stm32f1xx_hal_tim_ex.c ****   *           + Timer remapping capabilities configuration
  13:Drivers/STM32F1xx_HAL_Driver/Src/stm32f1xx_hal_tim_ex.c ****   ******************************************************************************
  14:Drivers/STM32F1xx_HAL_Driver/Src/stm32f1xx_hal_tim_ex.c ****   * @attention
  15:Drivers/STM32F1xx_HAL_Driver/Src/stm32f1xx_hal_tim_ex.c ****   *
  16:Drivers/STM32F1xx_HAL_Driver/Src/stm32f1xx_hal_tim_ex.c ****   * Copyright (c) 2016 STMicroelectronics.
  17:Drivers/STM32F1xx_HAL_Driver/Src/stm32f1xx_hal_tim_ex.c ****   * All rights reserved.
  18:Drivers/STM32F1xx_HAL_Driver/Src/stm32f1xx_hal_tim_ex.c ****   *
  19:Drivers/STM32F1xx_HAL_Driver/Src/stm32f1xx_hal_tim_ex.c ****   * This software is licensed under terms that can be found in the LICENSE file
  20:Drivers/STM32F1xx_HAL_Driver/Src/stm32f1xx_hal_tim_ex.c ****   * in the root directory of this software component.
  21:Drivers/STM32F1xx_HAL_Driver/Src/stm32f1xx_hal_tim_ex.c ****   * If no LICENSE file comes with this software, it is provided AS-IS.
  22:Drivers/STM32F1xx_HAL_Driver/Src/stm32f1xx_hal_tim_ex.c ****   *
  23:Drivers/STM32F1xx_HAL_Driver/Src/stm32f1xx_hal_tim_ex.c ****   ******************************************************************************
  24:Drivers/STM32F1xx_HAL_Driver/Src/stm32f1xx_hal_tim_ex.c ****   @verbatim
  25:Drivers/STM32F1xx_HAL_Driver/Src/stm32f1xx_hal_tim_ex.c ****   ==============================================================================
  26:Drivers/STM32F1xx_HAL_Driver/Src/stm32f1xx_hal_tim_ex.c ****                       ##### TIMER Extended features #####
  27:Drivers/STM32F1xx_HAL_Driver/Src/stm32f1xx_hal_tim_ex.c ****   ==============================================================================
  28:Drivers/STM32F1xx_HAL_Driver/Src/stm32f1xx_hal_tim_ex.c ****   [..]
  29:Drivers/STM32F1xx_HAL_Driver/Src/stm32f1xx_hal_tim_ex.c ****     The Timer Extended features include:
  30:Drivers/STM32F1xx_HAL_Driver/Src/stm32f1xx_hal_tim_ex.c ****     (#) Complementary outputs with programmable dead-time for :
  31:Drivers/STM32F1xx_HAL_Driver/Src/stm32f1xx_hal_tim_ex.c ****         (++) Output Compare
  32:Drivers/STM32F1xx_HAL_Driver/Src/stm32f1xx_hal_tim_ex.c ****         (++) PWM generation (Edge and Center-aligned Mode)
ARM GAS  /tmp//cc6kIlXX.s 			page 2


  33:Drivers/STM32F1xx_HAL_Driver/Src/stm32f1xx_hal_tim_ex.c ****         (++) One-pulse mode output
  34:Drivers/STM32F1xx_HAL_Driver/Src/stm32f1xx_hal_tim_ex.c ****     (#) Synchronization circuit to control the timer with external signals and to
  35:Drivers/STM32F1xx_HAL_Driver/Src/stm32f1xx_hal_tim_ex.c ****         interconnect several timers together.
  36:Drivers/STM32F1xx_HAL_Driver/Src/stm32f1xx_hal_tim_ex.c ****     (#) Break input to put the timer output signals in reset state or in a known state.
  37:Drivers/STM32F1xx_HAL_Driver/Src/stm32f1xx_hal_tim_ex.c ****     (#) Supports incremental (quadrature) encoder and hall-sensor circuitry for
  38:Drivers/STM32F1xx_HAL_Driver/Src/stm32f1xx_hal_tim_ex.c ****         positioning purposes
  39:Drivers/STM32F1xx_HAL_Driver/Src/stm32f1xx_hal_tim_ex.c **** 
  40:Drivers/STM32F1xx_HAL_Driver/Src/stm32f1xx_hal_tim_ex.c ****             ##### How to use this driver #####
  41:Drivers/STM32F1xx_HAL_Driver/Src/stm32f1xx_hal_tim_ex.c ****   ==============================================================================
  42:Drivers/STM32F1xx_HAL_Driver/Src/stm32f1xx_hal_tim_ex.c ****     [..]
  43:Drivers/STM32F1xx_HAL_Driver/Src/stm32f1xx_hal_tim_ex.c ****      (#) Initialize the TIM low level resources by implementing the following functions
  44:Drivers/STM32F1xx_HAL_Driver/Src/stm32f1xx_hal_tim_ex.c ****          depending on the selected feature:
  45:Drivers/STM32F1xx_HAL_Driver/Src/stm32f1xx_hal_tim_ex.c ****            (++) Hall Sensor output : HAL_TIMEx_HallSensor_MspInit()
  46:Drivers/STM32F1xx_HAL_Driver/Src/stm32f1xx_hal_tim_ex.c **** 
  47:Drivers/STM32F1xx_HAL_Driver/Src/stm32f1xx_hal_tim_ex.c ****      (#) Initialize the TIM low level resources :
  48:Drivers/STM32F1xx_HAL_Driver/Src/stm32f1xx_hal_tim_ex.c ****         (##) Enable the TIM interface clock using __HAL_RCC_TIMx_CLK_ENABLE();
  49:Drivers/STM32F1xx_HAL_Driver/Src/stm32f1xx_hal_tim_ex.c ****         (##) TIM pins configuration
  50:Drivers/STM32F1xx_HAL_Driver/Src/stm32f1xx_hal_tim_ex.c ****             (+++) Enable the clock for the TIM GPIOs using the following function:
  51:Drivers/STM32F1xx_HAL_Driver/Src/stm32f1xx_hal_tim_ex.c ****               __HAL_RCC_GPIOx_CLK_ENABLE();
  52:Drivers/STM32F1xx_HAL_Driver/Src/stm32f1xx_hal_tim_ex.c ****             (+++) Configure these TIM pins in Alternate function mode using HAL_GPIO_Init();
  53:Drivers/STM32F1xx_HAL_Driver/Src/stm32f1xx_hal_tim_ex.c **** 
  54:Drivers/STM32F1xx_HAL_Driver/Src/stm32f1xx_hal_tim_ex.c ****      (#) The external Clock can be configured, if needed (the default clock is the
  55:Drivers/STM32F1xx_HAL_Driver/Src/stm32f1xx_hal_tim_ex.c ****          internal clock from the APBx), using the following function:
  56:Drivers/STM32F1xx_HAL_Driver/Src/stm32f1xx_hal_tim_ex.c ****          HAL_TIM_ConfigClockSource, the clock configuration should be done before
  57:Drivers/STM32F1xx_HAL_Driver/Src/stm32f1xx_hal_tim_ex.c ****          any start function.
  58:Drivers/STM32F1xx_HAL_Driver/Src/stm32f1xx_hal_tim_ex.c **** 
  59:Drivers/STM32F1xx_HAL_Driver/Src/stm32f1xx_hal_tim_ex.c ****      (#) Configure the TIM in the desired functioning mode using one of the
  60:Drivers/STM32F1xx_HAL_Driver/Src/stm32f1xx_hal_tim_ex.c ****          initialization function of this driver:
  61:Drivers/STM32F1xx_HAL_Driver/Src/stm32f1xx_hal_tim_ex.c ****           (++) HAL_TIMEx_HallSensor_Init() and HAL_TIMEx_ConfigCommutEvent(): to use the
  62:Drivers/STM32F1xx_HAL_Driver/Src/stm32f1xx_hal_tim_ex.c ****                Timer Hall Sensor Interface and the commutation event with the corresponding
  63:Drivers/STM32F1xx_HAL_Driver/Src/stm32f1xx_hal_tim_ex.c ****                Interrupt and DMA request if needed (Note that One Timer is used to interface
  64:Drivers/STM32F1xx_HAL_Driver/Src/stm32f1xx_hal_tim_ex.c ****                with the Hall sensor Interface and another Timer should be used to use
  65:Drivers/STM32F1xx_HAL_Driver/Src/stm32f1xx_hal_tim_ex.c ****                the commutation event).
  66:Drivers/STM32F1xx_HAL_Driver/Src/stm32f1xx_hal_tim_ex.c **** 
  67:Drivers/STM32F1xx_HAL_Driver/Src/stm32f1xx_hal_tim_ex.c ****      (#) Activate the TIM peripheral using one of the start functions:
  68:Drivers/STM32F1xx_HAL_Driver/Src/stm32f1xx_hal_tim_ex.c ****            (++) Complementary Output Compare : HAL_TIMEx_OCN_Start(), HAL_TIMEx_OCN_Start_DMA(),
  69:Drivers/STM32F1xx_HAL_Driver/Src/stm32f1xx_hal_tim_ex.c ****                 HAL_TIMEx_OCN_Start_IT()
  70:Drivers/STM32F1xx_HAL_Driver/Src/stm32f1xx_hal_tim_ex.c ****            (++) Complementary PWM generation : HAL_TIMEx_PWMN_Start(), HAL_TIMEx_PWMN_Start_DMA(),
  71:Drivers/STM32F1xx_HAL_Driver/Src/stm32f1xx_hal_tim_ex.c ****                 HAL_TIMEx_PWMN_Start_IT()
  72:Drivers/STM32F1xx_HAL_Driver/Src/stm32f1xx_hal_tim_ex.c ****            (++) Complementary One-pulse mode output : HAL_TIMEx_OnePulseN_Start(), HAL_TIMEx_OnePul
  73:Drivers/STM32F1xx_HAL_Driver/Src/stm32f1xx_hal_tim_ex.c ****            (++) Hall Sensor output : HAL_TIMEx_HallSensor_Start(), HAL_TIMEx_HallSensor_Start_DMA()
  74:Drivers/STM32F1xx_HAL_Driver/Src/stm32f1xx_hal_tim_ex.c ****                 HAL_TIMEx_HallSensor_Start_IT().
  75:Drivers/STM32F1xx_HAL_Driver/Src/stm32f1xx_hal_tim_ex.c **** 
  76:Drivers/STM32F1xx_HAL_Driver/Src/stm32f1xx_hal_tim_ex.c ****   @endverbatim
  77:Drivers/STM32F1xx_HAL_Driver/Src/stm32f1xx_hal_tim_ex.c ****   ******************************************************************************
  78:Drivers/STM32F1xx_HAL_Driver/Src/stm32f1xx_hal_tim_ex.c ****   */
  79:Drivers/STM32F1xx_HAL_Driver/Src/stm32f1xx_hal_tim_ex.c **** 
  80:Drivers/STM32F1xx_HAL_Driver/Src/stm32f1xx_hal_tim_ex.c **** /* Includes ------------------------------------------------------------------*/
  81:Drivers/STM32F1xx_HAL_Driver/Src/stm32f1xx_hal_tim_ex.c **** #include "stm32f1xx_hal.h"
  82:Drivers/STM32F1xx_HAL_Driver/Src/stm32f1xx_hal_tim_ex.c **** 
  83:Drivers/STM32F1xx_HAL_Driver/Src/stm32f1xx_hal_tim_ex.c **** /** @addtogroup STM32F1xx_HAL_Driver
  84:Drivers/STM32F1xx_HAL_Driver/Src/stm32f1xx_hal_tim_ex.c ****   * @{
  85:Drivers/STM32F1xx_HAL_Driver/Src/stm32f1xx_hal_tim_ex.c ****   */
  86:Drivers/STM32F1xx_HAL_Driver/Src/stm32f1xx_hal_tim_ex.c **** 
  87:Drivers/STM32F1xx_HAL_Driver/Src/stm32f1xx_hal_tim_ex.c **** /** @defgroup TIMEx TIMEx
  88:Drivers/STM32F1xx_HAL_Driver/Src/stm32f1xx_hal_tim_ex.c ****   * @brief TIM Extended HAL module driver
  89:Drivers/STM32F1xx_HAL_Driver/Src/stm32f1xx_hal_tim_ex.c ****   * @{
ARM GAS  /tmp//cc6kIlXX.s 			page 3


  90:Drivers/STM32F1xx_HAL_Driver/Src/stm32f1xx_hal_tim_ex.c ****   */
  91:Drivers/STM32F1xx_HAL_Driver/Src/stm32f1xx_hal_tim_ex.c **** 
  92:Drivers/STM32F1xx_HAL_Driver/Src/stm32f1xx_hal_tim_ex.c **** #ifdef HAL_TIM_MODULE_ENABLED
  93:Drivers/STM32F1xx_HAL_Driver/Src/stm32f1xx_hal_tim_ex.c **** 
  94:Drivers/STM32F1xx_HAL_Driver/Src/stm32f1xx_hal_tim_ex.c **** /* Private typedef -----------------------------------------------------------*/
  95:Drivers/STM32F1xx_HAL_Driver/Src/stm32f1xx_hal_tim_ex.c **** /* Private define ------------------------------------------------------------*/
  96:Drivers/STM32F1xx_HAL_Driver/Src/stm32f1xx_hal_tim_ex.c **** /* Private macros ------------------------------------------------------------*/
  97:Drivers/STM32F1xx_HAL_Driver/Src/stm32f1xx_hal_tim_ex.c **** /* Private variables ---------------------------------------------------------*/
  98:Drivers/STM32F1xx_HAL_Driver/Src/stm32f1xx_hal_tim_ex.c **** /* Private function prototypes -----------------------------------------------*/
  99:Drivers/STM32F1xx_HAL_Driver/Src/stm32f1xx_hal_tim_ex.c **** static void TIM_DMADelayPulseNCplt(DMA_HandleTypeDef *hdma);
 100:Drivers/STM32F1xx_HAL_Driver/Src/stm32f1xx_hal_tim_ex.c **** static void TIM_DMAErrorCCxN(DMA_HandleTypeDef *hdma);
 101:Drivers/STM32F1xx_HAL_Driver/Src/stm32f1xx_hal_tim_ex.c **** static void TIM_CCxNChannelCmd(TIM_TypeDef *TIMx, uint32_t Channel, uint32_t ChannelNState);
 102:Drivers/STM32F1xx_HAL_Driver/Src/stm32f1xx_hal_tim_ex.c **** 
 103:Drivers/STM32F1xx_HAL_Driver/Src/stm32f1xx_hal_tim_ex.c **** /* Exported functions --------------------------------------------------------*/
 104:Drivers/STM32F1xx_HAL_Driver/Src/stm32f1xx_hal_tim_ex.c **** /** @defgroup TIMEx_Exported_Functions TIM Extended Exported Functions
 105:Drivers/STM32F1xx_HAL_Driver/Src/stm32f1xx_hal_tim_ex.c ****   * @{
 106:Drivers/STM32F1xx_HAL_Driver/Src/stm32f1xx_hal_tim_ex.c ****   */
 107:Drivers/STM32F1xx_HAL_Driver/Src/stm32f1xx_hal_tim_ex.c **** 
 108:Drivers/STM32F1xx_HAL_Driver/Src/stm32f1xx_hal_tim_ex.c **** /** @defgroup TIMEx_Exported_Functions_Group1 Extended Timer Hall Sensor functions
 109:Drivers/STM32F1xx_HAL_Driver/Src/stm32f1xx_hal_tim_ex.c ****   * @brief    Timer Hall Sensor functions
 110:Drivers/STM32F1xx_HAL_Driver/Src/stm32f1xx_hal_tim_ex.c ****   *
 111:Drivers/STM32F1xx_HAL_Driver/Src/stm32f1xx_hal_tim_ex.c **** @verbatim
 112:Drivers/STM32F1xx_HAL_Driver/Src/stm32f1xx_hal_tim_ex.c ****   ==============================================================================
 113:Drivers/STM32F1xx_HAL_Driver/Src/stm32f1xx_hal_tim_ex.c ****                       ##### Timer Hall Sensor functions #####
 114:Drivers/STM32F1xx_HAL_Driver/Src/stm32f1xx_hal_tim_ex.c ****   ==============================================================================
 115:Drivers/STM32F1xx_HAL_Driver/Src/stm32f1xx_hal_tim_ex.c ****   [..]
 116:Drivers/STM32F1xx_HAL_Driver/Src/stm32f1xx_hal_tim_ex.c ****     This section provides functions allowing to:
 117:Drivers/STM32F1xx_HAL_Driver/Src/stm32f1xx_hal_tim_ex.c ****     (+) Initialize and configure TIM HAL Sensor.
 118:Drivers/STM32F1xx_HAL_Driver/Src/stm32f1xx_hal_tim_ex.c ****     (+) De-initialize TIM HAL Sensor.
 119:Drivers/STM32F1xx_HAL_Driver/Src/stm32f1xx_hal_tim_ex.c ****     (+) Start the Hall Sensor Interface.
 120:Drivers/STM32F1xx_HAL_Driver/Src/stm32f1xx_hal_tim_ex.c ****     (+) Stop the Hall Sensor Interface.
 121:Drivers/STM32F1xx_HAL_Driver/Src/stm32f1xx_hal_tim_ex.c ****     (+) Start the Hall Sensor Interface and enable interrupts.
 122:Drivers/STM32F1xx_HAL_Driver/Src/stm32f1xx_hal_tim_ex.c ****     (+) Stop the Hall Sensor Interface and disable interrupts.
 123:Drivers/STM32F1xx_HAL_Driver/Src/stm32f1xx_hal_tim_ex.c ****     (+) Start the Hall Sensor Interface and enable DMA transfers.
 124:Drivers/STM32F1xx_HAL_Driver/Src/stm32f1xx_hal_tim_ex.c ****     (+) Stop the Hall Sensor Interface and disable DMA transfers.
 125:Drivers/STM32F1xx_HAL_Driver/Src/stm32f1xx_hal_tim_ex.c **** 
 126:Drivers/STM32F1xx_HAL_Driver/Src/stm32f1xx_hal_tim_ex.c **** @endverbatim
 127:Drivers/STM32F1xx_HAL_Driver/Src/stm32f1xx_hal_tim_ex.c ****   * @{
 128:Drivers/STM32F1xx_HAL_Driver/Src/stm32f1xx_hal_tim_ex.c ****   */
 129:Drivers/STM32F1xx_HAL_Driver/Src/stm32f1xx_hal_tim_ex.c **** /**
 130:Drivers/STM32F1xx_HAL_Driver/Src/stm32f1xx_hal_tim_ex.c ****   * @brief  Initializes the TIM Hall Sensor Interface and initialize the associated handle.
 131:Drivers/STM32F1xx_HAL_Driver/Src/stm32f1xx_hal_tim_ex.c ****   * @note   When the timer instance is initialized in Hall Sensor Interface mode,
 132:Drivers/STM32F1xx_HAL_Driver/Src/stm32f1xx_hal_tim_ex.c ****   *         timer channels 1 and channel 2 are reserved and cannot be used for
 133:Drivers/STM32F1xx_HAL_Driver/Src/stm32f1xx_hal_tim_ex.c ****   *         other purpose.
 134:Drivers/STM32F1xx_HAL_Driver/Src/stm32f1xx_hal_tim_ex.c ****   * @param  htim TIM Hall Sensor Interface handle
 135:Drivers/STM32F1xx_HAL_Driver/Src/stm32f1xx_hal_tim_ex.c ****   * @param  sConfig TIM Hall Sensor configuration structure
 136:Drivers/STM32F1xx_HAL_Driver/Src/stm32f1xx_hal_tim_ex.c ****   * @retval HAL status
 137:Drivers/STM32F1xx_HAL_Driver/Src/stm32f1xx_hal_tim_ex.c ****   */
 138:Drivers/STM32F1xx_HAL_Driver/Src/stm32f1xx_hal_tim_ex.c **** HAL_StatusTypeDef HAL_TIMEx_HallSensor_Init(TIM_HandleTypeDef *htim, const TIM_HallSensor_InitTypeD
 139:Drivers/STM32F1xx_HAL_Driver/Src/stm32f1xx_hal_tim_ex.c **** {
  27              		.loc 1 139 1
  28              		.cfi_startproc
  29              		@ args = 0, pretend = 0, frame = 40
  30              		@ frame_needed = 1, uses_anonymous_args = 0
  31 0000 80B5     		push	{r7, lr}
  32              	.LCFI0:
  33              		.cfi_def_cfa_offset 8
ARM GAS  /tmp//cc6kIlXX.s 			page 4


  34              		.cfi_offset 7, -8
  35              		.cfi_offset 14, -4
  36 0002 8AB0     		sub	sp, sp, #40
  37              	.LCFI1:
  38              		.cfi_def_cfa_offset 48
  39 0004 00AF     		add	r7, sp, #0
  40              	.LCFI2:
  41              		.cfi_def_cfa_register 7
  42 0006 7860     		str	r0, [r7, #4]
  43 0008 3960     		str	r1, [r7]
 140:Drivers/STM32F1xx_HAL_Driver/Src/stm32f1xx_hal_tim_ex.c ****   TIM_OC_InitTypeDef OC_Config;
 141:Drivers/STM32F1xx_HAL_Driver/Src/stm32f1xx_hal_tim_ex.c **** 
 142:Drivers/STM32F1xx_HAL_Driver/Src/stm32f1xx_hal_tim_ex.c ****   /* Check the TIM handle allocation */
 143:Drivers/STM32F1xx_HAL_Driver/Src/stm32f1xx_hal_tim_ex.c ****   if (htim == NULL)
  44              		.loc 1 143 6
  45 000a 7B68     		ldr	r3, [r7, #4]
  46 000c 002B     		cmp	r3, #0
  47 000e 01D1     		bne	.L2
 144:Drivers/STM32F1xx_HAL_Driver/Src/stm32f1xx_hal_tim_ex.c ****   {
 145:Drivers/STM32F1xx_HAL_Driver/Src/stm32f1xx_hal_tim_ex.c ****     return HAL_ERROR;
  48              		.loc 1 145 12
  49 0010 0123     		movs	r3, #1
  50 0012 9AE0     		b	.L5
  51              	.L2:
 146:Drivers/STM32F1xx_HAL_Driver/Src/stm32f1xx_hal_tim_ex.c ****   }
 147:Drivers/STM32F1xx_HAL_Driver/Src/stm32f1xx_hal_tim_ex.c **** 
 148:Drivers/STM32F1xx_HAL_Driver/Src/stm32f1xx_hal_tim_ex.c ****   /* Check the parameters */
 149:Drivers/STM32F1xx_HAL_Driver/Src/stm32f1xx_hal_tim_ex.c ****   assert_param(IS_TIM_HALL_SENSOR_INTERFACE_INSTANCE(htim->Instance));
 150:Drivers/STM32F1xx_HAL_Driver/Src/stm32f1xx_hal_tim_ex.c ****   assert_param(IS_TIM_COUNTER_MODE(htim->Init.CounterMode));
 151:Drivers/STM32F1xx_HAL_Driver/Src/stm32f1xx_hal_tim_ex.c ****   assert_param(IS_TIM_CLOCKDIVISION_DIV(htim->Init.ClockDivision));
 152:Drivers/STM32F1xx_HAL_Driver/Src/stm32f1xx_hal_tim_ex.c ****   assert_param(IS_TIM_AUTORELOAD_PRELOAD(htim->Init.AutoReloadPreload));
 153:Drivers/STM32F1xx_HAL_Driver/Src/stm32f1xx_hal_tim_ex.c ****   assert_param(IS_TIM_IC_POLARITY(sConfig->IC1Polarity));
 154:Drivers/STM32F1xx_HAL_Driver/Src/stm32f1xx_hal_tim_ex.c ****   assert_param(IS_TIM_PERIOD(htim->Init.Period));
 155:Drivers/STM32F1xx_HAL_Driver/Src/stm32f1xx_hal_tim_ex.c ****   assert_param(IS_TIM_IC_PRESCALER(sConfig->IC1Prescaler));
 156:Drivers/STM32F1xx_HAL_Driver/Src/stm32f1xx_hal_tim_ex.c ****   assert_param(IS_TIM_IC_FILTER(sConfig->IC1Filter));
 157:Drivers/STM32F1xx_HAL_Driver/Src/stm32f1xx_hal_tim_ex.c **** 
 158:Drivers/STM32F1xx_HAL_Driver/Src/stm32f1xx_hal_tim_ex.c ****   if (htim->State == HAL_TIM_STATE_RESET)
  52              		.loc 1 158 11
  53 0014 7B68     		ldr	r3, [r7, #4]
  54 0016 93F83D30 		ldrb	r3, [r3, #61]
  55 001a DBB2     		uxtb	r3, r3
  56              		.loc 1 158 6
  57 001c 002B     		cmp	r3, #0
  58 001e 06D1     		bne	.L4
 159:Drivers/STM32F1xx_HAL_Driver/Src/stm32f1xx_hal_tim_ex.c ****   {
 160:Drivers/STM32F1xx_HAL_Driver/Src/stm32f1xx_hal_tim_ex.c ****     /* Allocate lock resource and initialize it */
 161:Drivers/STM32F1xx_HAL_Driver/Src/stm32f1xx_hal_tim_ex.c ****     htim->Lock = HAL_UNLOCKED;
  59              		.loc 1 161 16
  60 0020 7B68     		ldr	r3, [r7, #4]
  61 0022 0022     		movs	r2, #0
  62 0024 83F83C20 		strb	r2, [r3, #60]
 162:Drivers/STM32F1xx_HAL_Driver/Src/stm32f1xx_hal_tim_ex.c **** 
 163:Drivers/STM32F1xx_HAL_Driver/Src/stm32f1xx_hal_tim_ex.c **** #if (USE_HAL_TIM_REGISTER_CALLBACKS == 1)
 164:Drivers/STM32F1xx_HAL_Driver/Src/stm32f1xx_hal_tim_ex.c ****     /* Reset interrupt callbacks to legacy week callbacks */
 165:Drivers/STM32F1xx_HAL_Driver/Src/stm32f1xx_hal_tim_ex.c ****     TIM_ResetCallback(htim);
 166:Drivers/STM32F1xx_HAL_Driver/Src/stm32f1xx_hal_tim_ex.c **** 
 167:Drivers/STM32F1xx_HAL_Driver/Src/stm32f1xx_hal_tim_ex.c ****     if (htim->HallSensor_MspInitCallback == NULL)
ARM GAS  /tmp//cc6kIlXX.s 			page 5


 168:Drivers/STM32F1xx_HAL_Driver/Src/stm32f1xx_hal_tim_ex.c ****     {
 169:Drivers/STM32F1xx_HAL_Driver/Src/stm32f1xx_hal_tim_ex.c ****       htim->HallSensor_MspInitCallback = HAL_TIMEx_HallSensor_MspInit;
 170:Drivers/STM32F1xx_HAL_Driver/Src/stm32f1xx_hal_tim_ex.c ****     }
 171:Drivers/STM32F1xx_HAL_Driver/Src/stm32f1xx_hal_tim_ex.c ****     /* Init the low level hardware : GPIO, CLOCK, NVIC */
 172:Drivers/STM32F1xx_HAL_Driver/Src/stm32f1xx_hal_tim_ex.c ****     htim->HallSensor_MspInitCallback(htim);
 173:Drivers/STM32F1xx_HAL_Driver/Src/stm32f1xx_hal_tim_ex.c **** #else
 174:Drivers/STM32F1xx_HAL_Driver/Src/stm32f1xx_hal_tim_ex.c ****     /* Init the low level hardware : GPIO, CLOCK, NVIC and DMA */
 175:Drivers/STM32F1xx_HAL_Driver/Src/stm32f1xx_hal_tim_ex.c ****     HAL_TIMEx_HallSensor_MspInit(htim);
  63              		.loc 1 175 5
  64 0028 7868     		ldr	r0, [r7, #4]
  65 002a FFF7FEFF 		bl	HAL_TIMEx_HallSensor_MspInit
  66              	.L4:
 176:Drivers/STM32F1xx_HAL_Driver/Src/stm32f1xx_hal_tim_ex.c **** #endif /* USE_HAL_TIM_REGISTER_CALLBACKS */
 177:Drivers/STM32F1xx_HAL_Driver/Src/stm32f1xx_hal_tim_ex.c ****   }
 178:Drivers/STM32F1xx_HAL_Driver/Src/stm32f1xx_hal_tim_ex.c **** 
 179:Drivers/STM32F1xx_HAL_Driver/Src/stm32f1xx_hal_tim_ex.c ****   /* Set the TIM state */
 180:Drivers/STM32F1xx_HAL_Driver/Src/stm32f1xx_hal_tim_ex.c ****   htim->State = HAL_TIM_STATE_BUSY;
  67              		.loc 1 180 15
  68 002e 7B68     		ldr	r3, [r7, #4]
  69 0030 0222     		movs	r2, #2
  70 0032 83F83D20 		strb	r2, [r3, #61]
 181:Drivers/STM32F1xx_HAL_Driver/Src/stm32f1xx_hal_tim_ex.c **** 
 182:Drivers/STM32F1xx_HAL_Driver/Src/stm32f1xx_hal_tim_ex.c ****   /* Configure the Time base in the Encoder Mode */
 183:Drivers/STM32F1xx_HAL_Driver/Src/stm32f1xx_hal_tim_ex.c ****   TIM_Base_SetConfig(htim->Instance, &htim->Init);
  71              		.loc 1 183 3
  72 0036 7B68     		ldr	r3, [r7, #4]
  73 0038 1A68     		ldr	r2, [r3]
  74              		.loc 1 183 38
  75 003a 7B68     		ldr	r3, [r7, #4]
  76 003c 0433     		adds	r3, r3, #4
  77              		.loc 1 183 3
  78 003e 1946     		mov	r1, r3
  79 0040 1046     		mov	r0, r2
  80 0042 FFF7FEFF 		bl	TIM_Base_SetConfig
 184:Drivers/STM32F1xx_HAL_Driver/Src/stm32f1xx_hal_tim_ex.c **** 
 185:Drivers/STM32F1xx_HAL_Driver/Src/stm32f1xx_hal_tim_ex.c ****   /* Configure the Channel 1 as Input Channel to interface with the three Outputs of the  Hall sens
 186:Drivers/STM32F1xx_HAL_Driver/Src/stm32f1xx_hal_tim_ex.c ****   TIM_TI1_SetConfig(htim->Instance, sConfig->IC1Polarity, TIM_ICSELECTION_TRC, sConfig->IC1Filter);
  81              		.loc 1 186 3
  82 0046 7B68     		ldr	r3, [r7, #4]
  83 0048 1868     		ldr	r0, [r3]
  84              		.loc 1 186 44
  85 004a 3B68     		ldr	r3, [r7]
  86 004c 1968     		ldr	r1, [r3]
  87              		.loc 1 186 87
  88 004e 3B68     		ldr	r3, [r7]
  89 0050 9B68     		ldr	r3, [r3, #8]
  90              		.loc 1 186 3
  91 0052 0322     		movs	r2, #3
  92 0054 FFF7FEFF 		bl	TIM_TI1_SetConfig
 187:Drivers/STM32F1xx_HAL_Driver/Src/stm32f1xx_hal_tim_ex.c **** 
 188:Drivers/STM32F1xx_HAL_Driver/Src/stm32f1xx_hal_tim_ex.c ****   /* Reset the IC1PSC Bits */
 189:Drivers/STM32F1xx_HAL_Driver/Src/stm32f1xx_hal_tim_ex.c ****   htim->Instance->CCMR1 &= ~TIM_CCMR1_IC1PSC;
  93              		.loc 1 189 7
  94 0058 7B68     		ldr	r3, [r7, #4]
  95 005a 1B68     		ldr	r3, [r3]
  96              		.loc 1 189 17
  97 005c 9A69     		ldr	r2, [r3, #24]
ARM GAS  /tmp//cc6kIlXX.s 			page 6


  98              		.loc 1 189 7
  99 005e 7B68     		ldr	r3, [r7, #4]
 100 0060 1B68     		ldr	r3, [r3]
 101              		.loc 1 189 25
 102 0062 22F00C02 		bic	r2, r2, #12
 103 0066 9A61     		str	r2, [r3, #24]
 190:Drivers/STM32F1xx_HAL_Driver/Src/stm32f1xx_hal_tim_ex.c ****   /* Set the IC1PSC value */
 191:Drivers/STM32F1xx_HAL_Driver/Src/stm32f1xx_hal_tim_ex.c ****   htim->Instance->CCMR1 |= sConfig->IC1Prescaler;
 104              		.loc 1 191 7
 105 0068 7B68     		ldr	r3, [r7, #4]
 106 006a 1B68     		ldr	r3, [r3]
 107              		.loc 1 191 17
 108 006c 9969     		ldr	r1, [r3, #24]
 109              		.loc 1 191 35
 110 006e 3B68     		ldr	r3, [r7]
 111 0070 5A68     		ldr	r2, [r3, #4]
 112              		.loc 1 191 7
 113 0072 7B68     		ldr	r3, [r7, #4]
 114 0074 1B68     		ldr	r3, [r3]
 115              		.loc 1 191 25
 116 0076 0A43     		orrs	r2, r2, r1
 117 0078 9A61     		str	r2, [r3, #24]
 192:Drivers/STM32F1xx_HAL_Driver/Src/stm32f1xx_hal_tim_ex.c **** 
 193:Drivers/STM32F1xx_HAL_Driver/Src/stm32f1xx_hal_tim_ex.c ****   /* Enable the Hall sensor interface (XOR function of the three inputs) */
 194:Drivers/STM32F1xx_HAL_Driver/Src/stm32f1xx_hal_tim_ex.c ****   htim->Instance->CR2 |= TIM_CR2_TI1S;
 118              		.loc 1 194 7
 119 007a 7B68     		ldr	r3, [r7, #4]
 120 007c 1B68     		ldr	r3, [r3]
 121              		.loc 1 194 17
 122 007e 5A68     		ldr	r2, [r3, #4]
 123              		.loc 1 194 7
 124 0080 7B68     		ldr	r3, [r7, #4]
 125 0082 1B68     		ldr	r3, [r3]
 126              		.loc 1 194 23
 127 0084 42F08002 		orr	r2, r2, #128
 128 0088 5A60     		str	r2, [r3, #4]
 195:Drivers/STM32F1xx_HAL_Driver/Src/stm32f1xx_hal_tim_ex.c **** 
 196:Drivers/STM32F1xx_HAL_Driver/Src/stm32f1xx_hal_tim_ex.c ****   /* Select the TIM_TS_TI1F_ED signal as Input trigger for the TIM */
 197:Drivers/STM32F1xx_HAL_Driver/Src/stm32f1xx_hal_tim_ex.c ****   htim->Instance->SMCR &= ~TIM_SMCR_TS;
 129              		.loc 1 197 7
 130 008a 7B68     		ldr	r3, [r7, #4]
 131 008c 1B68     		ldr	r3, [r3]
 132              		.loc 1 197 17
 133 008e 9A68     		ldr	r2, [r3, #8]
 134              		.loc 1 197 7
 135 0090 7B68     		ldr	r3, [r7, #4]
 136 0092 1B68     		ldr	r3, [r3]
 137              		.loc 1 197 24
 138 0094 22F07002 		bic	r2, r2, #112
 139 0098 9A60     		str	r2, [r3, #8]
 198:Drivers/STM32F1xx_HAL_Driver/Src/stm32f1xx_hal_tim_ex.c ****   htim->Instance->SMCR |= TIM_TS_TI1F_ED;
 140              		.loc 1 198 7
 141 009a 7B68     		ldr	r3, [r7, #4]
 142 009c 1B68     		ldr	r3, [r3]
 143              		.loc 1 198 17
 144 009e 9A68     		ldr	r2, [r3, #8]
 145              		.loc 1 198 7
ARM GAS  /tmp//cc6kIlXX.s 			page 7


 146 00a0 7B68     		ldr	r3, [r7, #4]
 147 00a2 1B68     		ldr	r3, [r3]
 148              		.loc 1 198 24
 149 00a4 42F04002 		orr	r2, r2, #64
 150 00a8 9A60     		str	r2, [r3, #8]
 199:Drivers/STM32F1xx_HAL_Driver/Src/stm32f1xx_hal_tim_ex.c **** 
 200:Drivers/STM32F1xx_HAL_Driver/Src/stm32f1xx_hal_tim_ex.c ****   /* Use the TIM_TS_TI1F_ED signal to reset the TIM counter each edge detection */
 201:Drivers/STM32F1xx_HAL_Driver/Src/stm32f1xx_hal_tim_ex.c ****   htim->Instance->SMCR &= ~TIM_SMCR_SMS;
 151              		.loc 1 201 7
 152 00aa 7B68     		ldr	r3, [r7, #4]
 153 00ac 1B68     		ldr	r3, [r3]
 154              		.loc 1 201 17
 155 00ae 9A68     		ldr	r2, [r3, #8]
 156              		.loc 1 201 7
 157 00b0 7B68     		ldr	r3, [r7, #4]
 158 00b2 1B68     		ldr	r3, [r3]
 159              		.loc 1 201 24
 160 00b4 22F00702 		bic	r2, r2, #7
 161 00b8 9A60     		str	r2, [r3, #8]
 202:Drivers/STM32F1xx_HAL_Driver/Src/stm32f1xx_hal_tim_ex.c ****   htim->Instance->SMCR |= TIM_SLAVEMODE_RESET;
 162              		.loc 1 202 7
 163 00ba 7B68     		ldr	r3, [r7, #4]
 164 00bc 1B68     		ldr	r3, [r3]
 165              		.loc 1 202 17
 166 00be 9A68     		ldr	r2, [r3, #8]
 167              		.loc 1 202 7
 168 00c0 7B68     		ldr	r3, [r7, #4]
 169 00c2 1B68     		ldr	r3, [r3]
 170              		.loc 1 202 24
 171 00c4 42F00402 		orr	r2, r2, #4
 172 00c8 9A60     		str	r2, [r3, #8]
 203:Drivers/STM32F1xx_HAL_Driver/Src/stm32f1xx_hal_tim_ex.c **** 
 204:Drivers/STM32F1xx_HAL_Driver/Src/stm32f1xx_hal_tim_ex.c ****   /* Program channel 2 in PWM 2 mode with the desired Commutation_Delay*/
 205:Drivers/STM32F1xx_HAL_Driver/Src/stm32f1xx_hal_tim_ex.c ****   OC_Config.OCFastMode = TIM_OCFAST_DISABLE;
 173              		.loc 1 205 24
 174 00ca 0023     		movs	r3, #0
 175 00cc FB61     		str	r3, [r7, #28]
 206:Drivers/STM32F1xx_HAL_Driver/Src/stm32f1xx_hal_tim_ex.c ****   OC_Config.OCIdleState = TIM_OCIDLESTATE_RESET;
 176              		.loc 1 206 25
 177 00ce 0023     		movs	r3, #0
 178 00d0 3B62     		str	r3, [r7, #32]
 207:Drivers/STM32F1xx_HAL_Driver/Src/stm32f1xx_hal_tim_ex.c ****   OC_Config.OCMode = TIM_OCMODE_PWM2;
 179              		.loc 1 207 20
 180 00d2 7023     		movs	r3, #112
 181 00d4 FB60     		str	r3, [r7, #12]
 208:Drivers/STM32F1xx_HAL_Driver/Src/stm32f1xx_hal_tim_ex.c ****   OC_Config.OCNIdleState = TIM_OCNIDLESTATE_RESET;
 182              		.loc 1 208 26
 183 00d6 0023     		movs	r3, #0
 184 00d8 7B62     		str	r3, [r7, #36]
 209:Drivers/STM32F1xx_HAL_Driver/Src/stm32f1xx_hal_tim_ex.c ****   OC_Config.OCNPolarity = TIM_OCNPOLARITY_HIGH;
 185              		.loc 1 209 25
 186 00da 0023     		movs	r3, #0
 187 00dc BB61     		str	r3, [r7, #24]
 210:Drivers/STM32F1xx_HAL_Driver/Src/stm32f1xx_hal_tim_ex.c ****   OC_Config.OCPolarity = TIM_OCPOLARITY_HIGH;
 188              		.loc 1 210 24
 189 00de 0023     		movs	r3, #0
 190 00e0 7B61     		str	r3, [r7, #20]
ARM GAS  /tmp//cc6kIlXX.s 			page 8


 211:Drivers/STM32F1xx_HAL_Driver/Src/stm32f1xx_hal_tim_ex.c ****   OC_Config.Pulse = sConfig->Commutation_Delay;
 191              		.loc 1 211 28
 192 00e2 3B68     		ldr	r3, [r7]
 193 00e4 DB68     		ldr	r3, [r3, #12]
 194              		.loc 1 211 19
 195 00e6 3B61     		str	r3, [r7, #16]
 212:Drivers/STM32F1xx_HAL_Driver/Src/stm32f1xx_hal_tim_ex.c **** 
 213:Drivers/STM32F1xx_HAL_Driver/Src/stm32f1xx_hal_tim_ex.c ****   TIM_OC2_SetConfig(htim->Instance, &OC_Config);
 196              		.loc 1 213 3
 197 00e8 7B68     		ldr	r3, [r7, #4]
 198 00ea 1B68     		ldr	r3, [r3]
 199 00ec 07F10C02 		add	r2, r7, #12
 200 00f0 1146     		mov	r1, r2
 201 00f2 1846     		mov	r0, r3
 202 00f4 FFF7FEFF 		bl	TIM_OC2_SetConfig
 214:Drivers/STM32F1xx_HAL_Driver/Src/stm32f1xx_hal_tim_ex.c **** 
 215:Drivers/STM32F1xx_HAL_Driver/Src/stm32f1xx_hal_tim_ex.c ****   /* Select OC2REF as trigger output on TRGO: write the MMS bits in the TIMx_CR2
 216:Drivers/STM32F1xx_HAL_Driver/Src/stm32f1xx_hal_tim_ex.c ****     register to 101 */
 217:Drivers/STM32F1xx_HAL_Driver/Src/stm32f1xx_hal_tim_ex.c ****   htim->Instance->CR2 &= ~TIM_CR2_MMS;
 203              		.loc 1 217 7
 204 00f8 7B68     		ldr	r3, [r7, #4]
 205 00fa 1B68     		ldr	r3, [r3]
 206              		.loc 1 217 17
 207 00fc 5A68     		ldr	r2, [r3, #4]
 208              		.loc 1 217 7
 209 00fe 7B68     		ldr	r3, [r7, #4]
 210 0100 1B68     		ldr	r3, [r3]
 211              		.loc 1 217 23
 212 0102 22F07002 		bic	r2, r2, #112
 213 0106 5A60     		str	r2, [r3, #4]
 218:Drivers/STM32F1xx_HAL_Driver/Src/stm32f1xx_hal_tim_ex.c ****   htim->Instance->CR2 |= TIM_TRGO_OC2REF;
 214              		.loc 1 218 7
 215 0108 7B68     		ldr	r3, [r7, #4]
 216 010a 1B68     		ldr	r3, [r3]
 217              		.loc 1 218 17
 218 010c 5A68     		ldr	r2, [r3, #4]
 219              		.loc 1 218 7
 220 010e 7B68     		ldr	r3, [r7, #4]
 221 0110 1B68     		ldr	r3, [r3]
 222              		.loc 1 218 23
 223 0112 42F05002 		orr	r2, r2, #80
 224 0116 5A60     		str	r2, [r3, #4]
 219:Drivers/STM32F1xx_HAL_Driver/Src/stm32f1xx_hal_tim_ex.c **** 
 220:Drivers/STM32F1xx_HAL_Driver/Src/stm32f1xx_hal_tim_ex.c ****   /* Initialize the DMA burst operation state */
 221:Drivers/STM32F1xx_HAL_Driver/Src/stm32f1xx_hal_tim_ex.c ****   htim->DMABurstState = HAL_DMA_BURST_STATE_READY;
 225              		.loc 1 221 23
 226 0118 7B68     		ldr	r3, [r7, #4]
 227 011a 0122     		movs	r2, #1
 228 011c 83F84620 		strb	r2, [r3, #70]
 222:Drivers/STM32F1xx_HAL_Driver/Src/stm32f1xx_hal_tim_ex.c **** 
 223:Drivers/STM32F1xx_HAL_Driver/Src/stm32f1xx_hal_tim_ex.c ****   /* Initialize the TIM channels state */
 224:Drivers/STM32F1xx_HAL_Driver/Src/stm32f1xx_hal_tim_ex.c ****   TIM_CHANNEL_STATE_SET(htim, TIM_CHANNEL_1, HAL_TIM_CHANNEL_STATE_READY);
 229              		.loc 1 224 3
 230 0120 7B68     		ldr	r3, [r7, #4]
 231 0122 0122     		movs	r2, #1
 232 0124 83F83E20 		strb	r2, [r3, #62]
 225:Drivers/STM32F1xx_HAL_Driver/Src/stm32f1xx_hal_tim_ex.c ****   TIM_CHANNEL_STATE_SET(htim, TIM_CHANNEL_2, HAL_TIM_CHANNEL_STATE_READY);
ARM GAS  /tmp//cc6kIlXX.s 			page 9


 233              		.loc 1 225 3
 234 0128 7B68     		ldr	r3, [r7, #4]
 235 012a 0122     		movs	r2, #1
 236 012c 83F83F20 		strb	r2, [r3, #63]
 226:Drivers/STM32F1xx_HAL_Driver/Src/stm32f1xx_hal_tim_ex.c ****   TIM_CHANNEL_N_STATE_SET(htim, TIM_CHANNEL_1, HAL_TIM_CHANNEL_STATE_READY);
 237              		.loc 1 226 3
 238 0130 7B68     		ldr	r3, [r7, #4]
 239 0132 0122     		movs	r2, #1
 240 0134 83F84220 		strb	r2, [r3, #66]
 227:Drivers/STM32F1xx_HAL_Driver/Src/stm32f1xx_hal_tim_ex.c ****   TIM_CHANNEL_N_STATE_SET(htim, TIM_CHANNEL_2, HAL_TIM_CHANNEL_STATE_READY);
 241              		.loc 1 227 3
 242 0138 7B68     		ldr	r3, [r7, #4]
 243 013a 0122     		movs	r2, #1
 244 013c 83F84320 		strb	r2, [r3, #67]
 228:Drivers/STM32F1xx_HAL_Driver/Src/stm32f1xx_hal_tim_ex.c **** 
 229:Drivers/STM32F1xx_HAL_Driver/Src/stm32f1xx_hal_tim_ex.c ****   /* Initialize the TIM state*/
 230:Drivers/STM32F1xx_HAL_Driver/Src/stm32f1xx_hal_tim_ex.c ****   htim->State = HAL_TIM_STATE_READY;
 245              		.loc 1 230 15
 246 0140 7B68     		ldr	r3, [r7, #4]
 247 0142 0122     		movs	r2, #1
 248 0144 83F83D20 		strb	r2, [r3, #61]
 231:Drivers/STM32F1xx_HAL_Driver/Src/stm32f1xx_hal_tim_ex.c **** 
 232:Drivers/STM32F1xx_HAL_Driver/Src/stm32f1xx_hal_tim_ex.c ****   return HAL_OK;
 249              		.loc 1 232 10
 250 0148 0023     		movs	r3, #0
 251              	.L5:
 233:Drivers/STM32F1xx_HAL_Driver/Src/stm32f1xx_hal_tim_ex.c **** }
 252              		.loc 1 233 1
 253 014a 1846     		mov	r0, r3
 254 014c 2837     		adds	r7, r7, #40
 255              	.LCFI3:
 256              		.cfi_def_cfa_offset 8
 257 014e BD46     		mov	sp, r7
 258              	.LCFI4:
 259              		.cfi_def_cfa_register 13
 260              		@ sp needed
 261 0150 80BD     		pop	{r7, pc}
 262              		.cfi_endproc
 263              	.LFE65:
 265              		.section	.text.HAL_TIMEx_HallSensor_DeInit,"ax",%progbits
 266              		.align	1
 267              		.global	HAL_TIMEx_HallSensor_DeInit
 268              		.syntax unified
 269              		.thumb
 270              		.thumb_func
 272              	HAL_TIMEx_HallSensor_DeInit:
 273              	.LFB66:
 234:Drivers/STM32F1xx_HAL_Driver/Src/stm32f1xx_hal_tim_ex.c **** 
 235:Drivers/STM32F1xx_HAL_Driver/Src/stm32f1xx_hal_tim_ex.c **** /**
 236:Drivers/STM32F1xx_HAL_Driver/Src/stm32f1xx_hal_tim_ex.c ****   * @brief  DeInitializes the TIM Hall Sensor interface
 237:Drivers/STM32F1xx_HAL_Driver/Src/stm32f1xx_hal_tim_ex.c ****   * @param  htim TIM Hall Sensor Interface handle
 238:Drivers/STM32F1xx_HAL_Driver/Src/stm32f1xx_hal_tim_ex.c ****   * @retval HAL status
 239:Drivers/STM32F1xx_HAL_Driver/Src/stm32f1xx_hal_tim_ex.c ****   */
 240:Drivers/STM32F1xx_HAL_Driver/Src/stm32f1xx_hal_tim_ex.c **** HAL_StatusTypeDef HAL_TIMEx_HallSensor_DeInit(TIM_HandleTypeDef *htim)
 241:Drivers/STM32F1xx_HAL_Driver/Src/stm32f1xx_hal_tim_ex.c **** {
 274              		.loc 1 241 1
 275              		.cfi_startproc
ARM GAS  /tmp//cc6kIlXX.s 			page 10


 276              		@ args = 0, pretend = 0, frame = 8
 277              		@ frame_needed = 1, uses_anonymous_args = 0
 278 0000 80B5     		push	{r7, lr}
 279              	.LCFI5:
 280              		.cfi_def_cfa_offset 8
 281              		.cfi_offset 7, -8
 282              		.cfi_offset 14, -4
 283 0002 82B0     		sub	sp, sp, #8
 284              	.LCFI6:
 285              		.cfi_def_cfa_offset 16
 286 0004 00AF     		add	r7, sp, #0
 287              	.LCFI7:
 288              		.cfi_def_cfa_register 7
 289 0006 7860     		str	r0, [r7, #4]
 242:Drivers/STM32F1xx_HAL_Driver/Src/stm32f1xx_hal_tim_ex.c ****   /* Check the parameters */
 243:Drivers/STM32F1xx_HAL_Driver/Src/stm32f1xx_hal_tim_ex.c ****   assert_param(IS_TIM_INSTANCE(htim->Instance));
 244:Drivers/STM32F1xx_HAL_Driver/Src/stm32f1xx_hal_tim_ex.c **** 
 245:Drivers/STM32F1xx_HAL_Driver/Src/stm32f1xx_hal_tim_ex.c ****   htim->State = HAL_TIM_STATE_BUSY;
 290              		.loc 1 245 15
 291 0008 7B68     		ldr	r3, [r7, #4]
 292 000a 0222     		movs	r2, #2
 293 000c 83F83D20 		strb	r2, [r3, #61]
 246:Drivers/STM32F1xx_HAL_Driver/Src/stm32f1xx_hal_tim_ex.c **** 
 247:Drivers/STM32F1xx_HAL_Driver/Src/stm32f1xx_hal_tim_ex.c ****   /* Disable the TIM Peripheral Clock */
 248:Drivers/STM32F1xx_HAL_Driver/Src/stm32f1xx_hal_tim_ex.c ****   __HAL_TIM_DISABLE(htim);
 294              		.loc 1 248 3
 295 0010 7B68     		ldr	r3, [r7, #4]
 296 0012 1B68     		ldr	r3, [r3]
 297 0014 1A6A     		ldr	r2, [r3, #32]
 298 0016 41F21113 		movw	r3, #4369
 299 001a 1340     		ands	r3, r3, r2
 300 001c 002B     		cmp	r3, #0
 301 001e 0FD1     		bne	.L7
 302              		.loc 1 248 3 is_stmt 0 discriminator 1
 303 0020 7B68     		ldr	r3, [r7, #4]
 304 0022 1B68     		ldr	r3, [r3]
 305 0024 1A6A     		ldr	r2, [r3, #32]
 306 0026 40F24443 		movw	r3, #1092
 307 002a 1340     		ands	r3, r3, r2
 308 002c 002B     		cmp	r3, #0
 309 002e 07D1     		bne	.L7
 310              		.loc 1 248 3 discriminator 2
 311 0030 7B68     		ldr	r3, [r7, #4]
 312 0032 1B68     		ldr	r3, [r3]
 313 0034 1A68     		ldr	r2, [r3]
 314 0036 7B68     		ldr	r3, [r7, #4]
 315 0038 1B68     		ldr	r3, [r3]
 316 003a 22F00102 		bic	r2, r2, #1
 317 003e 1A60     		str	r2, [r3]
 318              	.L7:
 249:Drivers/STM32F1xx_HAL_Driver/Src/stm32f1xx_hal_tim_ex.c **** 
 250:Drivers/STM32F1xx_HAL_Driver/Src/stm32f1xx_hal_tim_ex.c **** #if (USE_HAL_TIM_REGISTER_CALLBACKS == 1)
 251:Drivers/STM32F1xx_HAL_Driver/Src/stm32f1xx_hal_tim_ex.c ****   if (htim->HallSensor_MspDeInitCallback == NULL)
 252:Drivers/STM32F1xx_HAL_Driver/Src/stm32f1xx_hal_tim_ex.c ****   {
 253:Drivers/STM32F1xx_HAL_Driver/Src/stm32f1xx_hal_tim_ex.c ****     htim->HallSensor_MspDeInitCallback = HAL_TIMEx_HallSensor_MspDeInit;
 254:Drivers/STM32F1xx_HAL_Driver/Src/stm32f1xx_hal_tim_ex.c ****   }
 255:Drivers/STM32F1xx_HAL_Driver/Src/stm32f1xx_hal_tim_ex.c ****   /* DeInit the low level hardware */
ARM GAS  /tmp//cc6kIlXX.s 			page 11


 256:Drivers/STM32F1xx_HAL_Driver/Src/stm32f1xx_hal_tim_ex.c ****   htim->HallSensor_MspDeInitCallback(htim);
 257:Drivers/STM32F1xx_HAL_Driver/Src/stm32f1xx_hal_tim_ex.c **** #else
 258:Drivers/STM32F1xx_HAL_Driver/Src/stm32f1xx_hal_tim_ex.c ****   /* DeInit the low level hardware: GPIO, CLOCK, NVIC */
 259:Drivers/STM32F1xx_HAL_Driver/Src/stm32f1xx_hal_tim_ex.c ****   HAL_TIMEx_HallSensor_MspDeInit(htim);
 319              		.loc 1 259 3 is_stmt 1
 320 0040 7868     		ldr	r0, [r7, #4]
 321 0042 FFF7FEFF 		bl	HAL_TIMEx_HallSensor_MspDeInit
 260:Drivers/STM32F1xx_HAL_Driver/Src/stm32f1xx_hal_tim_ex.c **** #endif /* USE_HAL_TIM_REGISTER_CALLBACKS */
 261:Drivers/STM32F1xx_HAL_Driver/Src/stm32f1xx_hal_tim_ex.c **** 
 262:Drivers/STM32F1xx_HAL_Driver/Src/stm32f1xx_hal_tim_ex.c ****   /* Change the DMA burst operation state */
 263:Drivers/STM32F1xx_HAL_Driver/Src/stm32f1xx_hal_tim_ex.c ****   htim->DMABurstState = HAL_DMA_BURST_STATE_RESET;
 322              		.loc 1 263 23
 323 0046 7B68     		ldr	r3, [r7, #4]
 324 0048 0022     		movs	r2, #0
 325 004a 83F84620 		strb	r2, [r3, #70]
 264:Drivers/STM32F1xx_HAL_Driver/Src/stm32f1xx_hal_tim_ex.c **** 
 265:Drivers/STM32F1xx_HAL_Driver/Src/stm32f1xx_hal_tim_ex.c ****   /* Change the TIM channels state */
 266:Drivers/STM32F1xx_HAL_Driver/Src/stm32f1xx_hal_tim_ex.c ****   TIM_CHANNEL_STATE_SET(htim, TIM_CHANNEL_1, HAL_TIM_CHANNEL_STATE_RESET);
 326              		.loc 1 266 3
 327 004e 7B68     		ldr	r3, [r7, #4]
 328 0050 0022     		movs	r2, #0
 329 0052 83F83E20 		strb	r2, [r3, #62]
 267:Drivers/STM32F1xx_HAL_Driver/Src/stm32f1xx_hal_tim_ex.c ****   TIM_CHANNEL_STATE_SET(htim, TIM_CHANNEL_2, HAL_TIM_CHANNEL_STATE_RESET);
 330              		.loc 1 267 3
 331 0056 7B68     		ldr	r3, [r7, #4]
 332 0058 0022     		movs	r2, #0
 333 005a 83F83F20 		strb	r2, [r3, #63]
 268:Drivers/STM32F1xx_HAL_Driver/Src/stm32f1xx_hal_tim_ex.c ****   TIM_CHANNEL_N_STATE_SET(htim, TIM_CHANNEL_1, HAL_TIM_CHANNEL_STATE_RESET);
 334              		.loc 1 268 3
 335 005e 7B68     		ldr	r3, [r7, #4]
 336 0060 0022     		movs	r2, #0
 337 0062 83F84220 		strb	r2, [r3, #66]
 269:Drivers/STM32F1xx_HAL_Driver/Src/stm32f1xx_hal_tim_ex.c ****   TIM_CHANNEL_N_STATE_SET(htim, TIM_CHANNEL_2, HAL_TIM_CHANNEL_STATE_RESET);
 338              		.loc 1 269 3
 339 0066 7B68     		ldr	r3, [r7, #4]
 340 0068 0022     		movs	r2, #0
 341 006a 83F84320 		strb	r2, [r3, #67]
 270:Drivers/STM32F1xx_HAL_Driver/Src/stm32f1xx_hal_tim_ex.c **** 
 271:Drivers/STM32F1xx_HAL_Driver/Src/stm32f1xx_hal_tim_ex.c ****   /* Change TIM state */
 272:Drivers/STM32F1xx_HAL_Driver/Src/stm32f1xx_hal_tim_ex.c ****   htim->State = HAL_TIM_STATE_RESET;
 342              		.loc 1 272 15
 343 006e 7B68     		ldr	r3, [r7, #4]
 344 0070 0022     		movs	r2, #0
 345 0072 83F83D20 		strb	r2, [r3, #61]
 273:Drivers/STM32F1xx_HAL_Driver/Src/stm32f1xx_hal_tim_ex.c **** 
 274:Drivers/STM32F1xx_HAL_Driver/Src/stm32f1xx_hal_tim_ex.c ****   /* Release Lock */
 275:Drivers/STM32F1xx_HAL_Driver/Src/stm32f1xx_hal_tim_ex.c ****   __HAL_UNLOCK(htim);
 346              		.loc 1 275 3
 347 0076 7B68     		ldr	r3, [r7, #4]
 348 0078 0022     		movs	r2, #0
 349 007a 83F83C20 		strb	r2, [r3, #60]
 276:Drivers/STM32F1xx_HAL_Driver/Src/stm32f1xx_hal_tim_ex.c **** 
 277:Drivers/STM32F1xx_HAL_Driver/Src/stm32f1xx_hal_tim_ex.c ****   return HAL_OK;
 350              		.loc 1 277 10
 351 007e 0023     		movs	r3, #0
 278:Drivers/STM32F1xx_HAL_Driver/Src/stm32f1xx_hal_tim_ex.c **** }
 352              		.loc 1 278 1
ARM GAS  /tmp//cc6kIlXX.s 			page 12


 353 0080 1846     		mov	r0, r3
 354 0082 0837     		adds	r7, r7, #8
 355              	.LCFI8:
 356              		.cfi_def_cfa_offset 8
 357 0084 BD46     		mov	sp, r7
 358              	.LCFI9:
 359              		.cfi_def_cfa_register 13
 360              		@ sp needed
 361 0086 80BD     		pop	{r7, pc}
 362              		.cfi_endproc
 363              	.LFE66:
 365              		.section	.text.HAL_TIMEx_HallSensor_MspInit,"ax",%progbits
 366              		.align	1
 367              		.weak	HAL_TIMEx_HallSensor_MspInit
 368              		.syntax unified
 369              		.thumb
 370              		.thumb_func
 372              	HAL_TIMEx_HallSensor_MspInit:
 373              	.LFB67:
 279:Drivers/STM32F1xx_HAL_Driver/Src/stm32f1xx_hal_tim_ex.c **** 
 280:Drivers/STM32F1xx_HAL_Driver/Src/stm32f1xx_hal_tim_ex.c **** /**
 281:Drivers/STM32F1xx_HAL_Driver/Src/stm32f1xx_hal_tim_ex.c ****   * @brief  Initializes the TIM Hall Sensor MSP.
 282:Drivers/STM32F1xx_HAL_Driver/Src/stm32f1xx_hal_tim_ex.c ****   * @param  htim TIM Hall Sensor Interface handle
 283:Drivers/STM32F1xx_HAL_Driver/Src/stm32f1xx_hal_tim_ex.c ****   * @retval None
 284:Drivers/STM32F1xx_HAL_Driver/Src/stm32f1xx_hal_tim_ex.c ****   */
 285:Drivers/STM32F1xx_HAL_Driver/Src/stm32f1xx_hal_tim_ex.c **** __weak void HAL_TIMEx_HallSensor_MspInit(TIM_HandleTypeDef *htim)
 286:Drivers/STM32F1xx_HAL_Driver/Src/stm32f1xx_hal_tim_ex.c **** {
 374              		.loc 1 286 1
 375              		.cfi_startproc
 376              		@ args = 0, pretend = 0, frame = 8
 377              		@ frame_needed = 1, uses_anonymous_args = 0
 378              		@ link register save eliminated.
 379 0000 80B4     		push	{r7}
 380              	.LCFI10:
 381              		.cfi_def_cfa_offset 4
 382              		.cfi_offset 7, -4
 383 0002 83B0     		sub	sp, sp, #12
 384              	.LCFI11:
 385              		.cfi_def_cfa_offset 16
 386 0004 00AF     		add	r7, sp, #0
 387              	.LCFI12:
 388              		.cfi_def_cfa_register 7
 389 0006 7860     		str	r0, [r7, #4]
 287:Drivers/STM32F1xx_HAL_Driver/Src/stm32f1xx_hal_tim_ex.c ****   /* Prevent unused argument(s) compilation warning */
 288:Drivers/STM32F1xx_HAL_Driver/Src/stm32f1xx_hal_tim_ex.c ****   UNUSED(htim);
 289:Drivers/STM32F1xx_HAL_Driver/Src/stm32f1xx_hal_tim_ex.c **** 
 290:Drivers/STM32F1xx_HAL_Driver/Src/stm32f1xx_hal_tim_ex.c ****   /* NOTE : This function should not be modified, when the callback is needed,
 291:Drivers/STM32F1xx_HAL_Driver/Src/stm32f1xx_hal_tim_ex.c ****             the HAL_TIMEx_HallSensor_MspInit could be implemented in the user file
 292:Drivers/STM32F1xx_HAL_Driver/Src/stm32f1xx_hal_tim_ex.c ****    */
 293:Drivers/STM32F1xx_HAL_Driver/Src/stm32f1xx_hal_tim_ex.c **** }
 390              		.loc 1 293 1
 391 0008 00BF     		nop
 392 000a 0C37     		adds	r7, r7, #12
 393              	.LCFI13:
 394              		.cfi_def_cfa_offset 4
 395 000c BD46     		mov	sp, r7
 396              	.LCFI14:
ARM GAS  /tmp//cc6kIlXX.s 			page 13


 397              		.cfi_def_cfa_register 13
 398              		@ sp needed
 399 000e 80BC     		pop	{r7}
 400              	.LCFI15:
 401              		.cfi_restore 7
 402              		.cfi_def_cfa_offset 0
 403 0010 7047     		bx	lr
 404              		.cfi_endproc
 405              	.LFE67:
 407              		.section	.text.HAL_TIMEx_HallSensor_MspDeInit,"ax",%progbits
 408              		.align	1
 409              		.weak	HAL_TIMEx_HallSensor_MspDeInit
 410              		.syntax unified
 411              		.thumb
 412              		.thumb_func
 414              	HAL_TIMEx_HallSensor_MspDeInit:
 415              	.LFB68:
 294:Drivers/STM32F1xx_HAL_Driver/Src/stm32f1xx_hal_tim_ex.c **** 
 295:Drivers/STM32F1xx_HAL_Driver/Src/stm32f1xx_hal_tim_ex.c **** /**
 296:Drivers/STM32F1xx_HAL_Driver/Src/stm32f1xx_hal_tim_ex.c ****   * @brief  DeInitializes TIM Hall Sensor MSP.
 297:Drivers/STM32F1xx_HAL_Driver/Src/stm32f1xx_hal_tim_ex.c ****   * @param  htim TIM Hall Sensor Interface handle
 298:Drivers/STM32F1xx_HAL_Driver/Src/stm32f1xx_hal_tim_ex.c ****   * @retval None
 299:Drivers/STM32F1xx_HAL_Driver/Src/stm32f1xx_hal_tim_ex.c ****   */
 300:Drivers/STM32F1xx_HAL_Driver/Src/stm32f1xx_hal_tim_ex.c **** __weak void HAL_TIMEx_HallSensor_MspDeInit(TIM_HandleTypeDef *htim)
 301:Drivers/STM32F1xx_HAL_Driver/Src/stm32f1xx_hal_tim_ex.c **** {
 416              		.loc 1 301 1
 417              		.cfi_startproc
 418              		@ args = 0, pretend = 0, frame = 8
 419              		@ frame_needed = 1, uses_anonymous_args = 0
 420              		@ link register save eliminated.
 421 0000 80B4     		push	{r7}
 422              	.LCFI16:
 423              		.cfi_def_cfa_offset 4
 424              		.cfi_offset 7, -4
 425 0002 83B0     		sub	sp, sp, #12
 426              	.LCFI17:
 427              		.cfi_def_cfa_offset 16
 428 0004 00AF     		add	r7, sp, #0
 429              	.LCFI18:
 430              		.cfi_def_cfa_register 7
 431 0006 7860     		str	r0, [r7, #4]
 302:Drivers/STM32F1xx_HAL_Driver/Src/stm32f1xx_hal_tim_ex.c ****   /* Prevent unused argument(s) compilation warning */
 303:Drivers/STM32F1xx_HAL_Driver/Src/stm32f1xx_hal_tim_ex.c ****   UNUSED(htim);
 304:Drivers/STM32F1xx_HAL_Driver/Src/stm32f1xx_hal_tim_ex.c **** 
 305:Drivers/STM32F1xx_HAL_Driver/Src/stm32f1xx_hal_tim_ex.c ****   /* NOTE : This function should not be modified, when the callback is needed,
 306:Drivers/STM32F1xx_HAL_Driver/Src/stm32f1xx_hal_tim_ex.c ****             the HAL_TIMEx_HallSensor_MspDeInit could be implemented in the user file
 307:Drivers/STM32F1xx_HAL_Driver/Src/stm32f1xx_hal_tim_ex.c ****    */
 308:Drivers/STM32F1xx_HAL_Driver/Src/stm32f1xx_hal_tim_ex.c **** }
 432              		.loc 1 308 1
 433 0008 00BF     		nop
 434 000a 0C37     		adds	r7, r7, #12
 435              	.LCFI19:
 436              		.cfi_def_cfa_offset 4
 437 000c BD46     		mov	sp, r7
 438              	.LCFI20:
 439              		.cfi_def_cfa_register 13
 440              		@ sp needed
ARM GAS  /tmp//cc6kIlXX.s 			page 14


 441 000e 80BC     		pop	{r7}
 442              	.LCFI21:
 443              		.cfi_restore 7
 444              		.cfi_def_cfa_offset 0
 445 0010 7047     		bx	lr
 446              		.cfi_endproc
 447              	.LFE68:
 449              		.section	.text.HAL_TIMEx_HallSensor_Start,"ax",%progbits
 450              		.align	1
 451              		.global	HAL_TIMEx_HallSensor_Start
 452              		.syntax unified
 453              		.thumb
 454              		.thumb_func
 456              	HAL_TIMEx_HallSensor_Start:
 457              	.LFB69:
 309:Drivers/STM32F1xx_HAL_Driver/Src/stm32f1xx_hal_tim_ex.c **** 
 310:Drivers/STM32F1xx_HAL_Driver/Src/stm32f1xx_hal_tim_ex.c **** /**
 311:Drivers/STM32F1xx_HAL_Driver/Src/stm32f1xx_hal_tim_ex.c ****   * @brief  Starts the TIM Hall Sensor Interface.
 312:Drivers/STM32F1xx_HAL_Driver/Src/stm32f1xx_hal_tim_ex.c ****   * @param  htim TIM Hall Sensor Interface handle
 313:Drivers/STM32F1xx_HAL_Driver/Src/stm32f1xx_hal_tim_ex.c ****   * @retval HAL status
 314:Drivers/STM32F1xx_HAL_Driver/Src/stm32f1xx_hal_tim_ex.c ****   */
 315:Drivers/STM32F1xx_HAL_Driver/Src/stm32f1xx_hal_tim_ex.c **** HAL_StatusTypeDef HAL_TIMEx_HallSensor_Start(TIM_HandleTypeDef *htim)
 316:Drivers/STM32F1xx_HAL_Driver/Src/stm32f1xx_hal_tim_ex.c **** {
 458              		.loc 1 316 1
 459              		.cfi_startproc
 460              		@ args = 0, pretend = 0, frame = 16
 461              		@ frame_needed = 1, uses_anonymous_args = 0
 462 0000 80B5     		push	{r7, lr}
 463              	.LCFI22:
 464              		.cfi_def_cfa_offset 8
 465              		.cfi_offset 7, -8
 466              		.cfi_offset 14, -4
 467 0002 84B0     		sub	sp, sp, #16
 468              	.LCFI23:
 469              		.cfi_def_cfa_offset 24
 470 0004 00AF     		add	r7, sp, #0
 471              	.LCFI24:
 472              		.cfi_def_cfa_register 7
 473 0006 7860     		str	r0, [r7, #4]
 317:Drivers/STM32F1xx_HAL_Driver/Src/stm32f1xx_hal_tim_ex.c ****   uint32_t tmpsmcr;
 318:Drivers/STM32F1xx_HAL_Driver/Src/stm32f1xx_hal_tim_ex.c ****   HAL_TIM_ChannelStateTypeDef channel_1_state = TIM_CHANNEL_STATE_GET(htim, TIM_CHANNEL_1);
 474              		.loc 1 318 31
 475 0008 7B68     		ldr	r3, [r7, #4]
 476 000a 93F83E30 		ldrb	r3, [r3, #62]
 477 000e FB73     		strb	r3, [r7, #15]
 319:Drivers/STM32F1xx_HAL_Driver/Src/stm32f1xx_hal_tim_ex.c ****   HAL_TIM_ChannelStateTypeDef channel_2_state = TIM_CHANNEL_STATE_GET(htim, TIM_CHANNEL_2);
 478              		.loc 1 319 31
 479 0010 7B68     		ldr	r3, [r7, #4]
 480 0012 93F83F30 		ldrb	r3, [r3, #63]
 481 0016 BB73     		strb	r3, [r7, #14]
 320:Drivers/STM32F1xx_HAL_Driver/Src/stm32f1xx_hal_tim_ex.c ****   HAL_TIM_ChannelStateTypeDef complementary_channel_1_state = TIM_CHANNEL_N_STATE_GET(htim, TIM_CHA
 482              		.loc 1 320 31
 483 0018 7B68     		ldr	r3, [r7, #4]
 484 001a 93F84230 		ldrb	r3, [r3, #66]
 485 001e 7B73     		strb	r3, [r7, #13]
 321:Drivers/STM32F1xx_HAL_Driver/Src/stm32f1xx_hal_tim_ex.c ****   HAL_TIM_ChannelStateTypeDef complementary_channel_2_state = TIM_CHANNEL_N_STATE_GET(htim, TIM_CHA
 486              		.loc 1 321 31
ARM GAS  /tmp//cc6kIlXX.s 			page 15


 487 0020 7B68     		ldr	r3, [r7, #4]
 488 0022 93F84330 		ldrb	r3, [r3, #67]
 489 0026 3B73     		strb	r3, [r7, #12]
 322:Drivers/STM32F1xx_HAL_Driver/Src/stm32f1xx_hal_tim_ex.c **** 
 323:Drivers/STM32F1xx_HAL_Driver/Src/stm32f1xx_hal_tim_ex.c ****   /* Check the parameters */
 324:Drivers/STM32F1xx_HAL_Driver/Src/stm32f1xx_hal_tim_ex.c ****   assert_param(IS_TIM_HALL_SENSOR_INTERFACE_INSTANCE(htim->Instance));
 325:Drivers/STM32F1xx_HAL_Driver/Src/stm32f1xx_hal_tim_ex.c **** 
 326:Drivers/STM32F1xx_HAL_Driver/Src/stm32f1xx_hal_tim_ex.c ****   /* Check the TIM channels state */
 327:Drivers/STM32F1xx_HAL_Driver/Src/stm32f1xx_hal_tim_ex.c ****   if ((channel_1_state != HAL_TIM_CHANNEL_STATE_READY)
 490              		.loc 1 327 6
 491 0028 FB7B     		ldrb	r3, [r7, #15]	@ zero_extendqisi2
 492 002a 012B     		cmp	r3, #1
 493 002c 08D1     		bne	.L12
 328:Drivers/STM32F1xx_HAL_Driver/Src/stm32f1xx_hal_tim_ex.c ****       || (channel_2_state != HAL_TIM_CHANNEL_STATE_READY)
 494              		.loc 1 328 7
 495 002e BB7B     		ldrb	r3, [r7, #14]	@ zero_extendqisi2
 496 0030 012B     		cmp	r3, #1
 497 0032 05D1     		bne	.L12
 329:Drivers/STM32F1xx_HAL_Driver/Src/stm32f1xx_hal_tim_ex.c ****       || (complementary_channel_1_state != HAL_TIM_CHANNEL_STATE_READY)
 498              		.loc 1 329 7
 499 0034 7B7B     		ldrb	r3, [r7, #13]	@ zero_extendqisi2
 500 0036 012B     		cmp	r3, #1
 501 0038 02D1     		bne	.L12
 330:Drivers/STM32F1xx_HAL_Driver/Src/stm32f1xx_hal_tim_ex.c ****       || (complementary_channel_2_state != HAL_TIM_CHANNEL_STATE_READY))
 502              		.loc 1 330 7
 503 003a 3B7B     		ldrb	r3, [r7, #12]	@ zero_extendqisi2
 504 003c 012B     		cmp	r3, #1
 505 003e 01D0     		beq	.L13
 506              	.L12:
 331:Drivers/STM32F1xx_HAL_Driver/Src/stm32f1xx_hal_tim_ex.c ****   {
 332:Drivers/STM32F1xx_HAL_Driver/Src/stm32f1xx_hal_tim_ex.c ****     return HAL_ERROR;
 507              		.loc 1 332 12
 508 0040 0123     		movs	r3, #1
 509 0042 4FE0     		b	.L14
 510              	.L13:
 333:Drivers/STM32F1xx_HAL_Driver/Src/stm32f1xx_hal_tim_ex.c ****   }
 334:Drivers/STM32F1xx_HAL_Driver/Src/stm32f1xx_hal_tim_ex.c **** 
 335:Drivers/STM32F1xx_HAL_Driver/Src/stm32f1xx_hal_tim_ex.c ****   /* Set the TIM channels state */
 336:Drivers/STM32F1xx_HAL_Driver/Src/stm32f1xx_hal_tim_ex.c ****   TIM_CHANNEL_STATE_SET(htim, TIM_CHANNEL_1, HAL_TIM_CHANNEL_STATE_BUSY);
 511              		.loc 1 336 3
 512 0044 7B68     		ldr	r3, [r7, #4]
 513 0046 0222     		movs	r2, #2
 514 0048 83F83E20 		strb	r2, [r3, #62]
 337:Drivers/STM32F1xx_HAL_Driver/Src/stm32f1xx_hal_tim_ex.c ****   TIM_CHANNEL_STATE_SET(htim, TIM_CHANNEL_2, HAL_TIM_CHANNEL_STATE_BUSY);
 515              		.loc 1 337 3
 516 004c 7B68     		ldr	r3, [r7, #4]
 517 004e 0222     		movs	r2, #2
 518 0050 83F83F20 		strb	r2, [r3, #63]
 338:Drivers/STM32F1xx_HAL_Driver/Src/stm32f1xx_hal_tim_ex.c ****   TIM_CHANNEL_N_STATE_SET(htim, TIM_CHANNEL_1, HAL_TIM_CHANNEL_STATE_BUSY);
 519              		.loc 1 338 3
 520 0054 7B68     		ldr	r3, [r7, #4]
 521 0056 0222     		movs	r2, #2
 522 0058 83F84220 		strb	r2, [r3, #66]
 339:Drivers/STM32F1xx_HAL_Driver/Src/stm32f1xx_hal_tim_ex.c ****   TIM_CHANNEL_N_STATE_SET(htim, TIM_CHANNEL_2, HAL_TIM_CHANNEL_STATE_BUSY);
 523              		.loc 1 339 3
 524 005c 7B68     		ldr	r3, [r7, #4]
 525 005e 0222     		movs	r2, #2
ARM GAS  /tmp//cc6kIlXX.s 			page 16


 526 0060 83F84320 		strb	r2, [r3, #67]
 340:Drivers/STM32F1xx_HAL_Driver/Src/stm32f1xx_hal_tim_ex.c **** 
 341:Drivers/STM32F1xx_HAL_Driver/Src/stm32f1xx_hal_tim_ex.c ****   /* Enable the Input Capture channel 1
 342:Drivers/STM32F1xx_HAL_Driver/Src/stm32f1xx_hal_tim_ex.c ****   (in the Hall Sensor Interface the three possible channels that can be used are TIM_CHANNEL_1,
 343:Drivers/STM32F1xx_HAL_Driver/Src/stm32f1xx_hal_tim_ex.c ****   TIM_CHANNEL_2 and TIM_CHANNEL_3) */
 344:Drivers/STM32F1xx_HAL_Driver/Src/stm32f1xx_hal_tim_ex.c ****   TIM_CCxChannelCmd(htim->Instance, TIM_CHANNEL_1, TIM_CCx_ENABLE);
 527              		.loc 1 344 3
 528 0064 7B68     		ldr	r3, [r7, #4]
 529 0066 1B68     		ldr	r3, [r3]
 530 0068 0122     		movs	r2, #1
 531 006a 0021     		movs	r1, #0
 532 006c 1846     		mov	r0, r3
 533 006e FFF7FEFF 		bl	TIM_CCxChannelCmd
 345:Drivers/STM32F1xx_HAL_Driver/Src/stm32f1xx_hal_tim_ex.c **** 
 346:Drivers/STM32F1xx_HAL_Driver/Src/stm32f1xx_hal_tim_ex.c ****   /* Enable the Peripheral, except in trigger mode where enable is automatically done with trigger 
 347:Drivers/STM32F1xx_HAL_Driver/Src/stm32f1xx_hal_tim_ex.c ****   if (IS_TIM_SLAVE_INSTANCE(htim->Instance))
 534              		.loc 1 347 7
 535 0072 7B68     		ldr	r3, [r7, #4]
 536 0074 1B68     		ldr	r3, [r3]
 537              		.loc 1 347 6
 538 0076 1D4A     		ldr	r2, .L19
 539 0078 9342     		cmp	r3, r2
 540 007a 18D0     		beq	.L15
 541              		.loc 1 347 7 discriminator 1
 542 007c 7B68     		ldr	r3, [r7, #4]
 543 007e 1B68     		ldr	r3, [r3]
 544 0080 1B4A     		ldr	r2, .L19+4
 545 0082 9342     		cmp	r3, r2
 546 0084 13D0     		beq	.L15
 547              		.loc 1 347 7 is_stmt 0 discriminator 2
 548 0086 7B68     		ldr	r3, [r7, #4]
 549 0088 1B68     		ldr	r3, [r3]
 550 008a B3F1804F 		cmp	r3, #1073741824
 551 008e 0ED0     		beq	.L15
 552              		.loc 1 347 7 discriminator 3
 553 0090 7B68     		ldr	r3, [r7, #4]
 554 0092 1B68     		ldr	r3, [r3]
 555 0094 174A     		ldr	r2, .L19+8
 556 0096 9342     		cmp	r3, r2
 557 0098 09D0     		beq	.L15
 558              		.loc 1 347 7 discriminator 4
 559 009a 7B68     		ldr	r3, [r7, #4]
 560 009c 1B68     		ldr	r3, [r3]
 561 009e 164A     		ldr	r2, .L19+12
 562 00a0 9342     		cmp	r3, r2
 563 00a2 04D0     		beq	.L15
 564              		.loc 1 347 7 discriminator 5
 565 00a4 7B68     		ldr	r3, [r7, #4]
 566 00a6 1B68     		ldr	r3, [r3]
 567 00a8 144A     		ldr	r2, .L19+16
 568 00aa 9342     		cmp	r3, r2
 569 00ac 11D1     		bne	.L16
 570              	.L15:
 348:Drivers/STM32F1xx_HAL_Driver/Src/stm32f1xx_hal_tim_ex.c ****   {
 349:Drivers/STM32F1xx_HAL_Driver/Src/stm32f1xx_hal_tim_ex.c ****     tmpsmcr = htim->Instance->SMCR & TIM_SMCR_SMS;
 571              		.loc 1 349 19 is_stmt 1
 572 00ae 7B68     		ldr	r3, [r7, #4]
ARM GAS  /tmp//cc6kIlXX.s 			page 17


 573 00b0 1B68     		ldr	r3, [r3]
 574              		.loc 1 349 29
 575 00b2 9B68     		ldr	r3, [r3, #8]
 576              		.loc 1 349 13
 577 00b4 03F00703 		and	r3, r3, #7
 578 00b8 BB60     		str	r3, [r7, #8]
 350:Drivers/STM32F1xx_HAL_Driver/Src/stm32f1xx_hal_tim_ex.c ****     if (!IS_TIM_SLAVEMODE_TRIGGER_ENABLED(tmpsmcr))
 579              		.loc 1 350 8
 580 00ba BB68     		ldr	r3, [r7, #8]
 581 00bc 062B     		cmp	r3, #6
 582 00be 10D0     		beq	.L18
 351:Drivers/STM32F1xx_HAL_Driver/Src/stm32f1xx_hal_tim_ex.c ****     {
 352:Drivers/STM32F1xx_HAL_Driver/Src/stm32f1xx_hal_tim_ex.c ****       __HAL_TIM_ENABLE(htim);
 583              		.loc 1 352 7
 584 00c0 7B68     		ldr	r3, [r7, #4]
 585 00c2 1B68     		ldr	r3, [r3]
 586 00c4 1A68     		ldr	r2, [r3]
 587 00c6 7B68     		ldr	r3, [r7, #4]
 588 00c8 1B68     		ldr	r3, [r3]
 589 00ca 42F00102 		orr	r2, r2, #1
 590 00ce 1A60     		str	r2, [r3]
 350:Drivers/STM32F1xx_HAL_Driver/Src/stm32f1xx_hal_tim_ex.c ****     if (!IS_TIM_SLAVEMODE_TRIGGER_ENABLED(tmpsmcr))
 591              		.loc 1 350 8
 592 00d0 07E0     		b	.L18
 593              	.L16:
 353:Drivers/STM32F1xx_HAL_Driver/Src/stm32f1xx_hal_tim_ex.c ****     }
 354:Drivers/STM32F1xx_HAL_Driver/Src/stm32f1xx_hal_tim_ex.c ****   }
 355:Drivers/STM32F1xx_HAL_Driver/Src/stm32f1xx_hal_tim_ex.c ****   else
 356:Drivers/STM32F1xx_HAL_Driver/Src/stm32f1xx_hal_tim_ex.c ****   {
 357:Drivers/STM32F1xx_HAL_Driver/Src/stm32f1xx_hal_tim_ex.c ****     __HAL_TIM_ENABLE(htim);
 594              		.loc 1 357 5
 595 00d2 7B68     		ldr	r3, [r7, #4]
 596 00d4 1B68     		ldr	r3, [r3]
 597 00d6 1A68     		ldr	r2, [r3]
 598 00d8 7B68     		ldr	r3, [r7, #4]
 599 00da 1B68     		ldr	r3, [r3]
 600 00dc 42F00102 		orr	r2, r2, #1
 601 00e0 1A60     		str	r2, [r3]
 602              	.L18:
 358:Drivers/STM32F1xx_HAL_Driver/Src/stm32f1xx_hal_tim_ex.c ****   }
 359:Drivers/STM32F1xx_HAL_Driver/Src/stm32f1xx_hal_tim_ex.c **** 
 360:Drivers/STM32F1xx_HAL_Driver/Src/stm32f1xx_hal_tim_ex.c ****   /* Return function status */
 361:Drivers/STM32F1xx_HAL_Driver/Src/stm32f1xx_hal_tim_ex.c ****   return HAL_OK;
 603              		.loc 1 361 10
 604 00e2 0023     		movs	r3, #0
 605              	.L14:
 362:Drivers/STM32F1xx_HAL_Driver/Src/stm32f1xx_hal_tim_ex.c **** }
 606              		.loc 1 362 1
 607 00e4 1846     		mov	r0, r3
 608 00e6 1037     		adds	r7, r7, #16
 609              	.LCFI25:
 610              		.cfi_def_cfa_offset 8
 611 00e8 BD46     		mov	sp, r7
 612              	.LCFI26:
 613              		.cfi_def_cfa_register 13
 614              		@ sp needed
 615 00ea 80BD     		pop	{r7, pc}
ARM GAS  /tmp//cc6kIlXX.s 			page 18


 616              	.L20:
 617              		.align	2
 618              	.L19:
 619 00ec 002C0140 		.word	1073818624
 620 00f0 00340140 		.word	1073820672
 621 00f4 00040040 		.word	1073742848
 622 00f8 00080040 		.word	1073743872
 623 00fc 000C0040 		.word	1073744896
 624              		.cfi_endproc
 625              	.LFE69:
 627              		.section	.text.HAL_TIMEx_HallSensor_Stop,"ax",%progbits
 628              		.align	1
 629              		.global	HAL_TIMEx_HallSensor_Stop
 630              		.syntax unified
 631              		.thumb
 632              		.thumb_func
 634              	HAL_TIMEx_HallSensor_Stop:
 635              	.LFB70:
 363:Drivers/STM32F1xx_HAL_Driver/Src/stm32f1xx_hal_tim_ex.c **** 
 364:Drivers/STM32F1xx_HAL_Driver/Src/stm32f1xx_hal_tim_ex.c **** /**
 365:Drivers/STM32F1xx_HAL_Driver/Src/stm32f1xx_hal_tim_ex.c ****   * @brief  Stops the TIM Hall sensor Interface.
 366:Drivers/STM32F1xx_HAL_Driver/Src/stm32f1xx_hal_tim_ex.c ****   * @param  htim TIM Hall Sensor Interface handle
 367:Drivers/STM32F1xx_HAL_Driver/Src/stm32f1xx_hal_tim_ex.c ****   * @retval HAL status
 368:Drivers/STM32F1xx_HAL_Driver/Src/stm32f1xx_hal_tim_ex.c ****   */
 369:Drivers/STM32F1xx_HAL_Driver/Src/stm32f1xx_hal_tim_ex.c **** HAL_StatusTypeDef HAL_TIMEx_HallSensor_Stop(TIM_HandleTypeDef *htim)
 370:Drivers/STM32F1xx_HAL_Driver/Src/stm32f1xx_hal_tim_ex.c **** {
 636              		.loc 1 370 1
 637              		.cfi_startproc
 638              		@ args = 0, pretend = 0, frame = 8
 639              		@ frame_needed = 1, uses_anonymous_args = 0
 640 0000 80B5     		push	{r7, lr}
 641              	.LCFI27:
 642              		.cfi_def_cfa_offset 8
 643              		.cfi_offset 7, -8
 644              		.cfi_offset 14, -4
 645 0002 82B0     		sub	sp, sp, #8
 646              	.LCFI28:
 647              		.cfi_def_cfa_offset 16
 648 0004 00AF     		add	r7, sp, #0
 649              	.LCFI29:
 650              		.cfi_def_cfa_register 7
 651 0006 7860     		str	r0, [r7, #4]
 371:Drivers/STM32F1xx_HAL_Driver/Src/stm32f1xx_hal_tim_ex.c ****   /* Check the parameters */
 372:Drivers/STM32F1xx_HAL_Driver/Src/stm32f1xx_hal_tim_ex.c ****   assert_param(IS_TIM_HALL_SENSOR_INTERFACE_INSTANCE(htim->Instance));
 373:Drivers/STM32F1xx_HAL_Driver/Src/stm32f1xx_hal_tim_ex.c **** 
 374:Drivers/STM32F1xx_HAL_Driver/Src/stm32f1xx_hal_tim_ex.c ****   /* Disable the Input Capture channels 1, 2 and 3
 375:Drivers/STM32F1xx_HAL_Driver/Src/stm32f1xx_hal_tim_ex.c ****   (in the Hall Sensor Interface the three possible channels that can be used are TIM_CHANNEL_1,
 376:Drivers/STM32F1xx_HAL_Driver/Src/stm32f1xx_hal_tim_ex.c ****   TIM_CHANNEL_2 and TIM_CHANNEL_3) */
 377:Drivers/STM32F1xx_HAL_Driver/Src/stm32f1xx_hal_tim_ex.c ****   TIM_CCxChannelCmd(htim->Instance, TIM_CHANNEL_1, TIM_CCx_DISABLE);
 652              		.loc 1 377 3
 653 0008 7B68     		ldr	r3, [r7, #4]
 654 000a 1B68     		ldr	r3, [r3]
 655 000c 0022     		movs	r2, #0
 656 000e 0021     		movs	r1, #0
 657 0010 1846     		mov	r0, r3
 658 0012 FFF7FEFF 		bl	TIM_CCxChannelCmd
 378:Drivers/STM32F1xx_HAL_Driver/Src/stm32f1xx_hal_tim_ex.c **** 
ARM GAS  /tmp//cc6kIlXX.s 			page 19


 379:Drivers/STM32F1xx_HAL_Driver/Src/stm32f1xx_hal_tim_ex.c ****   /* Disable the Peripheral */
 380:Drivers/STM32F1xx_HAL_Driver/Src/stm32f1xx_hal_tim_ex.c ****   __HAL_TIM_DISABLE(htim);
 659              		.loc 1 380 3
 660 0016 7B68     		ldr	r3, [r7, #4]
 661 0018 1B68     		ldr	r3, [r3]
 662 001a 1A6A     		ldr	r2, [r3, #32]
 663 001c 41F21113 		movw	r3, #4369
 664 0020 1340     		ands	r3, r3, r2
 665 0022 002B     		cmp	r3, #0
 666 0024 0FD1     		bne	.L22
 667              		.loc 1 380 3 is_stmt 0 discriminator 1
 668 0026 7B68     		ldr	r3, [r7, #4]
 669 0028 1B68     		ldr	r3, [r3]
 670 002a 1A6A     		ldr	r2, [r3, #32]
 671 002c 40F24443 		movw	r3, #1092
 672 0030 1340     		ands	r3, r3, r2
 673 0032 002B     		cmp	r3, #0
 674 0034 07D1     		bne	.L22
 675              		.loc 1 380 3 discriminator 2
 676 0036 7B68     		ldr	r3, [r7, #4]
 677 0038 1B68     		ldr	r3, [r3]
 678 003a 1A68     		ldr	r2, [r3]
 679 003c 7B68     		ldr	r3, [r7, #4]
 680 003e 1B68     		ldr	r3, [r3]
 681 0040 22F00102 		bic	r2, r2, #1
 682 0044 1A60     		str	r2, [r3]
 683              	.L22:
 381:Drivers/STM32F1xx_HAL_Driver/Src/stm32f1xx_hal_tim_ex.c **** 
 382:Drivers/STM32F1xx_HAL_Driver/Src/stm32f1xx_hal_tim_ex.c ****   /* Set the TIM channels state */
 383:Drivers/STM32F1xx_HAL_Driver/Src/stm32f1xx_hal_tim_ex.c ****   TIM_CHANNEL_STATE_SET(htim, TIM_CHANNEL_1, HAL_TIM_CHANNEL_STATE_READY);
 684              		.loc 1 383 3 is_stmt 1
 685 0046 7B68     		ldr	r3, [r7, #4]
 686 0048 0122     		movs	r2, #1
 687 004a 83F83E20 		strb	r2, [r3, #62]
 384:Drivers/STM32F1xx_HAL_Driver/Src/stm32f1xx_hal_tim_ex.c ****   TIM_CHANNEL_STATE_SET(htim, TIM_CHANNEL_2, HAL_TIM_CHANNEL_STATE_READY);
 688              		.loc 1 384 3
 689 004e 7B68     		ldr	r3, [r7, #4]
 690 0050 0122     		movs	r2, #1
 691 0052 83F83F20 		strb	r2, [r3, #63]
 385:Drivers/STM32F1xx_HAL_Driver/Src/stm32f1xx_hal_tim_ex.c ****   TIM_CHANNEL_N_STATE_SET(htim, TIM_CHANNEL_1, HAL_TIM_CHANNEL_STATE_READY);
 692              		.loc 1 385 3
 693 0056 7B68     		ldr	r3, [r7, #4]
 694 0058 0122     		movs	r2, #1
 695 005a 83F84220 		strb	r2, [r3, #66]
 386:Drivers/STM32F1xx_HAL_Driver/Src/stm32f1xx_hal_tim_ex.c ****   TIM_CHANNEL_N_STATE_SET(htim, TIM_CHANNEL_2, HAL_TIM_CHANNEL_STATE_READY);
 696              		.loc 1 386 3
 697 005e 7B68     		ldr	r3, [r7, #4]
 698 0060 0122     		movs	r2, #1
 699 0062 83F84320 		strb	r2, [r3, #67]
 387:Drivers/STM32F1xx_HAL_Driver/Src/stm32f1xx_hal_tim_ex.c **** 
 388:Drivers/STM32F1xx_HAL_Driver/Src/stm32f1xx_hal_tim_ex.c ****   /* Return function status */
 389:Drivers/STM32F1xx_HAL_Driver/Src/stm32f1xx_hal_tim_ex.c ****   return HAL_OK;
 700              		.loc 1 389 10
 701 0066 0023     		movs	r3, #0
 390:Drivers/STM32F1xx_HAL_Driver/Src/stm32f1xx_hal_tim_ex.c **** }
 702              		.loc 1 390 1
 703 0068 1846     		mov	r0, r3
ARM GAS  /tmp//cc6kIlXX.s 			page 20


 704 006a 0837     		adds	r7, r7, #8
 705              	.LCFI30:
 706              		.cfi_def_cfa_offset 8
 707 006c BD46     		mov	sp, r7
 708              	.LCFI31:
 709              		.cfi_def_cfa_register 13
 710              		@ sp needed
 711 006e 80BD     		pop	{r7, pc}
 712              		.cfi_endproc
 713              	.LFE70:
 715              		.section	.text.HAL_TIMEx_HallSensor_Start_IT,"ax",%progbits
 716              		.align	1
 717              		.global	HAL_TIMEx_HallSensor_Start_IT
 718              		.syntax unified
 719              		.thumb
 720              		.thumb_func
 722              	HAL_TIMEx_HallSensor_Start_IT:
 723              	.LFB71:
 391:Drivers/STM32F1xx_HAL_Driver/Src/stm32f1xx_hal_tim_ex.c **** 
 392:Drivers/STM32F1xx_HAL_Driver/Src/stm32f1xx_hal_tim_ex.c **** /**
 393:Drivers/STM32F1xx_HAL_Driver/Src/stm32f1xx_hal_tim_ex.c ****   * @brief  Starts the TIM Hall Sensor Interface in interrupt mode.
 394:Drivers/STM32F1xx_HAL_Driver/Src/stm32f1xx_hal_tim_ex.c ****   * @param  htim TIM Hall Sensor Interface handle
 395:Drivers/STM32F1xx_HAL_Driver/Src/stm32f1xx_hal_tim_ex.c ****   * @retval HAL status
 396:Drivers/STM32F1xx_HAL_Driver/Src/stm32f1xx_hal_tim_ex.c ****   */
 397:Drivers/STM32F1xx_HAL_Driver/Src/stm32f1xx_hal_tim_ex.c **** HAL_StatusTypeDef HAL_TIMEx_HallSensor_Start_IT(TIM_HandleTypeDef *htim)
 398:Drivers/STM32F1xx_HAL_Driver/Src/stm32f1xx_hal_tim_ex.c **** {
 724              		.loc 1 398 1
 725              		.cfi_startproc
 726              		@ args = 0, pretend = 0, frame = 16
 727              		@ frame_needed = 1, uses_anonymous_args = 0
 728 0000 80B5     		push	{r7, lr}
 729              	.LCFI32:
 730              		.cfi_def_cfa_offset 8
 731              		.cfi_offset 7, -8
 732              		.cfi_offset 14, -4
 733 0002 84B0     		sub	sp, sp, #16
 734              	.LCFI33:
 735              		.cfi_def_cfa_offset 24
 736 0004 00AF     		add	r7, sp, #0
 737              	.LCFI34:
 738              		.cfi_def_cfa_register 7
 739 0006 7860     		str	r0, [r7, #4]
 399:Drivers/STM32F1xx_HAL_Driver/Src/stm32f1xx_hal_tim_ex.c ****   uint32_t tmpsmcr;
 400:Drivers/STM32F1xx_HAL_Driver/Src/stm32f1xx_hal_tim_ex.c ****   HAL_TIM_ChannelStateTypeDef channel_1_state = TIM_CHANNEL_STATE_GET(htim, TIM_CHANNEL_1);
 740              		.loc 1 400 31
 741 0008 7B68     		ldr	r3, [r7, #4]
 742 000a 93F83E30 		ldrb	r3, [r3, #62]
 743 000e FB73     		strb	r3, [r7, #15]
 401:Drivers/STM32F1xx_HAL_Driver/Src/stm32f1xx_hal_tim_ex.c ****   HAL_TIM_ChannelStateTypeDef channel_2_state = TIM_CHANNEL_STATE_GET(htim, TIM_CHANNEL_2);
 744              		.loc 1 401 31
 745 0010 7B68     		ldr	r3, [r7, #4]
 746 0012 93F83F30 		ldrb	r3, [r3, #63]
 747 0016 BB73     		strb	r3, [r7, #14]
 402:Drivers/STM32F1xx_HAL_Driver/Src/stm32f1xx_hal_tim_ex.c ****   HAL_TIM_ChannelStateTypeDef complementary_channel_1_state = TIM_CHANNEL_N_STATE_GET(htim, TIM_CHA
 748              		.loc 1 402 31
 749 0018 7B68     		ldr	r3, [r7, #4]
 750 001a 93F84230 		ldrb	r3, [r3, #66]
ARM GAS  /tmp//cc6kIlXX.s 			page 21


 751 001e 7B73     		strb	r3, [r7, #13]
 403:Drivers/STM32F1xx_HAL_Driver/Src/stm32f1xx_hal_tim_ex.c ****   HAL_TIM_ChannelStateTypeDef complementary_channel_2_state = TIM_CHANNEL_N_STATE_GET(htim, TIM_CHA
 752              		.loc 1 403 31
 753 0020 7B68     		ldr	r3, [r7, #4]
 754 0022 93F84330 		ldrb	r3, [r3, #67]
 755 0026 3B73     		strb	r3, [r7, #12]
 404:Drivers/STM32F1xx_HAL_Driver/Src/stm32f1xx_hal_tim_ex.c **** 
 405:Drivers/STM32F1xx_HAL_Driver/Src/stm32f1xx_hal_tim_ex.c ****   /* Check the parameters */
 406:Drivers/STM32F1xx_HAL_Driver/Src/stm32f1xx_hal_tim_ex.c ****   assert_param(IS_TIM_HALL_SENSOR_INTERFACE_INSTANCE(htim->Instance));
 407:Drivers/STM32F1xx_HAL_Driver/Src/stm32f1xx_hal_tim_ex.c **** 
 408:Drivers/STM32F1xx_HAL_Driver/Src/stm32f1xx_hal_tim_ex.c ****   /* Check the TIM channels state */
 409:Drivers/STM32F1xx_HAL_Driver/Src/stm32f1xx_hal_tim_ex.c ****   if ((channel_1_state != HAL_TIM_CHANNEL_STATE_READY)
 756              		.loc 1 409 6
 757 0028 FB7B     		ldrb	r3, [r7, #15]	@ zero_extendqisi2
 758 002a 012B     		cmp	r3, #1
 759 002c 08D1     		bne	.L25
 410:Drivers/STM32F1xx_HAL_Driver/Src/stm32f1xx_hal_tim_ex.c ****       || (channel_2_state != HAL_TIM_CHANNEL_STATE_READY)
 760              		.loc 1 410 7
 761 002e BB7B     		ldrb	r3, [r7, #14]	@ zero_extendqisi2
 762 0030 012B     		cmp	r3, #1
 763 0032 05D1     		bne	.L25
 411:Drivers/STM32F1xx_HAL_Driver/Src/stm32f1xx_hal_tim_ex.c ****       || (complementary_channel_1_state != HAL_TIM_CHANNEL_STATE_READY)
 764              		.loc 1 411 7
 765 0034 7B7B     		ldrb	r3, [r7, #13]	@ zero_extendqisi2
 766 0036 012B     		cmp	r3, #1
 767 0038 02D1     		bne	.L25
 412:Drivers/STM32F1xx_HAL_Driver/Src/stm32f1xx_hal_tim_ex.c ****       || (complementary_channel_2_state != HAL_TIM_CHANNEL_STATE_READY))
 768              		.loc 1 412 7
 769 003a 3B7B     		ldrb	r3, [r7, #12]	@ zero_extendqisi2
 770 003c 012B     		cmp	r3, #1
 771 003e 01D0     		beq	.L26
 772              	.L25:
 413:Drivers/STM32F1xx_HAL_Driver/Src/stm32f1xx_hal_tim_ex.c ****   {
 414:Drivers/STM32F1xx_HAL_Driver/Src/stm32f1xx_hal_tim_ex.c ****     return HAL_ERROR;
 773              		.loc 1 414 12
 774 0040 0123     		movs	r3, #1
 775 0042 57E0     		b	.L27
 776              	.L26:
 415:Drivers/STM32F1xx_HAL_Driver/Src/stm32f1xx_hal_tim_ex.c ****   }
 416:Drivers/STM32F1xx_HAL_Driver/Src/stm32f1xx_hal_tim_ex.c **** 
 417:Drivers/STM32F1xx_HAL_Driver/Src/stm32f1xx_hal_tim_ex.c ****   /* Set the TIM channels state */
 418:Drivers/STM32F1xx_HAL_Driver/Src/stm32f1xx_hal_tim_ex.c ****   TIM_CHANNEL_STATE_SET(htim, TIM_CHANNEL_1, HAL_TIM_CHANNEL_STATE_BUSY);
 777              		.loc 1 418 3
 778 0044 7B68     		ldr	r3, [r7, #4]
 779 0046 0222     		movs	r2, #2
 780 0048 83F83E20 		strb	r2, [r3, #62]
 419:Drivers/STM32F1xx_HAL_Driver/Src/stm32f1xx_hal_tim_ex.c ****   TIM_CHANNEL_STATE_SET(htim, TIM_CHANNEL_2, HAL_TIM_CHANNEL_STATE_BUSY);
 781              		.loc 1 419 3
 782 004c 7B68     		ldr	r3, [r7, #4]
 783 004e 0222     		movs	r2, #2
 784 0050 83F83F20 		strb	r2, [r3, #63]
 420:Drivers/STM32F1xx_HAL_Driver/Src/stm32f1xx_hal_tim_ex.c ****   TIM_CHANNEL_N_STATE_SET(htim, TIM_CHANNEL_1, HAL_TIM_CHANNEL_STATE_BUSY);
 785              		.loc 1 420 3
 786 0054 7B68     		ldr	r3, [r7, #4]
 787 0056 0222     		movs	r2, #2
 788 0058 83F84220 		strb	r2, [r3, #66]
 421:Drivers/STM32F1xx_HAL_Driver/Src/stm32f1xx_hal_tim_ex.c ****   TIM_CHANNEL_N_STATE_SET(htim, TIM_CHANNEL_2, HAL_TIM_CHANNEL_STATE_BUSY);
ARM GAS  /tmp//cc6kIlXX.s 			page 22


 789              		.loc 1 421 3
 790 005c 7B68     		ldr	r3, [r7, #4]
 791 005e 0222     		movs	r2, #2
 792 0060 83F84320 		strb	r2, [r3, #67]
 422:Drivers/STM32F1xx_HAL_Driver/Src/stm32f1xx_hal_tim_ex.c **** 
 423:Drivers/STM32F1xx_HAL_Driver/Src/stm32f1xx_hal_tim_ex.c ****   /* Enable the capture compare Interrupts 1 event */
 424:Drivers/STM32F1xx_HAL_Driver/Src/stm32f1xx_hal_tim_ex.c ****   __HAL_TIM_ENABLE_IT(htim, TIM_IT_CC1);
 793              		.loc 1 424 3
 794 0064 7B68     		ldr	r3, [r7, #4]
 795 0066 1B68     		ldr	r3, [r3]
 796 0068 DA68     		ldr	r2, [r3, #12]
 797 006a 7B68     		ldr	r3, [r7, #4]
 798 006c 1B68     		ldr	r3, [r3]
 799 006e 42F00202 		orr	r2, r2, #2
 800 0072 DA60     		str	r2, [r3, #12]
 425:Drivers/STM32F1xx_HAL_Driver/Src/stm32f1xx_hal_tim_ex.c **** 
 426:Drivers/STM32F1xx_HAL_Driver/Src/stm32f1xx_hal_tim_ex.c ****   /* Enable the Input Capture channel 1
 427:Drivers/STM32F1xx_HAL_Driver/Src/stm32f1xx_hal_tim_ex.c ****   (in the Hall Sensor Interface the three possible channels that can be used are TIM_CHANNEL_1,
 428:Drivers/STM32F1xx_HAL_Driver/Src/stm32f1xx_hal_tim_ex.c ****   TIM_CHANNEL_2 and TIM_CHANNEL_3) */
 429:Drivers/STM32F1xx_HAL_Driver/Src/stm32f1xx_hal_tim_ex.c ****   TIM_CCxChannelCmd(htim->Instance, TIM_CHANNEL_1, TIM_CCx_ENABLE);
 801              		.loc 1 429 3
 802 0074 7B68     		ldr	r3, [r7, #4]
 803 0076 1B68     		ldr	r3, [r3]
 804 0078 0122     		movs	r2, #1
 805 007a 0021     		movs	r1, #0
 806 007c 1846     		mov	r0, r3
 807 007e FFF7FEFF 		bl	TIM_CCxChannelCmd
 430:Drivers/STM32F1xx_HAL_Driver/Src/stm32f1xx_hal_tim_ex.c **** 
 431:Drivers/STM32F1xx_HAL_Driver/Src/stm32f1xx_hal_tim_ex.c ****   /* Enable the Peripheral, except in trigger mode where enable is automatically done with trigger 
 432:Drivers/STM32F1xx_HAL_Driver/Src/stm32f1xx_hal_tim_ex.c ****   if (IS_TIM_SLAVE_INSTANCE(htim->Instance))
 808              		.loc 1 432 7
 809 0082 7B68     		ldr	r3, [r7, #4]
 810 0084 1B68     		ldr	r3, [r3]
 811              		.loc 1 432 6
 812 0086 1D4A     		ldr	r2, .L32
 813 0088 9342     		cmp	r3, r2
 814 008a 18D0     		beq	.L28
 815              		.loc 1 432 7 discriminator 1
 816 008c 7B68     		ldr	r3, [r7, #4]
 817 008e 1B68     		ldr	r3, [r3]
 818 0090 1B4A     		ldr	r2, .L32+4
 819 0092 9342     		cmp	r3, r2
 820 0094 13D0     		beq	.L28
 821              		.loc 1 432 7 is_stmt 0 discriminator 2
 822 0096 7B68     		ldr	r3, [r7, #4]
 823 0098 1B68     		ldr	r3, [r3]
 824 009a B3F1804F 		cmp	r3, #1073741824
 825 009e 0ED0     		beq	.L28
 826              		.loc 1 432 7 discriminator 3
 827 00a0 7B68     		ldr	r3, [r7, #4]
 828 00a2 1B68     		ldr	r3, [r3]
 829 00a4 174A     		ldr	r2, .L32+8
 830 00a6 9342     		cmp	r3, r2
 831 00a8 09D0     		beq	.L28
 832              		.loc 1 432 7 discriminator 4
 833 00aa 7B68     		ldr	r3, [r7, #4]
 834 00ac 1B68     		ldr	r3, [r3]
ARM GAS  /tmp//cc6kIlXX.s 			page 23


 835 00ae 164A     		ldr	r2, .L32+12
 836 00b0 9342     		cmp	r3, r2
 837 00b2 04D0     		beq	.L28
 838              		.loc 1 432 7 discriminator 5
 839 00b4 7B68     		ldr	r3, [r7, #4]
 840 00b6 1B68     		ldr	r3, [r3]
 841 00b8 144A     		ldr	r2, .L32+16
 842 00ba 9342     		cmp	r3, r2
 843 00bc 11D1     		bne	.L29
 844              	.L28:
 433:Drivers/STM32F1xx_HAL_Driver/Src/stm32f1xx_hal_tim_ex.c ****   {
 434:Drivers/STM32F1xx_HAL_Driver/Src/stm32f1xx_hal_tim_ex.c ****     tmpsmcr = htim->Instance->SMCR & TIM_SMCR_SMS;
 845              		.loc 1 434 19 is_stmt 1
 846 00be 7B68     		ldr	r3, [r7, #4]
 847 00c0 1B68     		ldr	r3, [r3]
 848              		.loc 1 434 29
 849 00c2 9B68     		ldr	r3, [r3, #8]
 850              		.loc 1 434 13
 851 00c4 03F00703 		and	r3, r3, #7
 852 00c8 BB60     		str	r3, [r7, #8]
 435:Drivers/STM32F1xx_HAL_Driver/Src/stm32f1xx_hal_tim_ex.c ****     if (!IS_TIM_SLAVEMODE_TRIGGER_ENABLED(tmpsmcr))
 853              		.loc 1 435 8
 854 00ca BB68     		ldr	r3, [r7, #8]
 855 00cc 062B     		cmp	r3, #6
 856 00ce 10D0     		beq	.L31
 436:Drivers/STM32F1xx_HAL_Driver/Src/stm32f1xx_hal_tim_ex.c ****     {
 437:Drivers/STM32F1xx_HAL_Driver/Src/stm32f1xx_hal_tim_ex.c ****       __HAL_TIM_ENABLE(htim);
 857              		.loc 1 437 7
 858 00d0 7B68     		ldr	r3, [r7, #4]
 859 00d2 1B68     		ldr	r3, [r3]
 860 00d4 1A68     		ldr	r2, [r3]
 861 00d6 7B68     		ldr	r3, [r7, #4]
 862 00d8 1B68     		ldr	r3, [r3]
 863 00da 42F00102 		orr	r2, r2, #1
 864 00de 1A60     		str	r2, [r3]
 435:Drivers/STM32F1xx_HAL_Driver/Src/stm32f1xx_hal_tim_ex.c ****     if (!IS_TIM_SLAVEMODE_TRIGGER_ENABLED(tmpsmcr))
 865              		.loc 1 435 8
 866 00e0 07E0     		b	.L31
 867              	.L29:
 438:Drivers/STM32F1xx_HAL_Driver/Src/stm32f1xx_hal_tim_ex.c ****     }
 439:Drivers/STM32F1xx_HAL_Driver/Src/stm32f1xx_hal_tim_ex.c ****   }
 440:Drivers/STM32F1xx_HAL_Driver/Src/stm32f1xx_hal_tim_ex.c ****   else
 441:Drivers/STM32F1xx_HAL_Driver/Src/stm32f1xx_hal_tim_ex.c ****   {
 442:Drivers/STM32F1xx_HAL_Driver/Src/stm32f1xx_hal_tim_ex.c ****     __HAL_TIM_ENABLE(htim);
 868              		.loc 1 442 5
 869 00e2 7B68     		ldr	r3, [r7, #4]
 870 00e4 1B68     		ldr	r3, [r3]
 871 00e6 1A68     		ldr	r2, [r3]
 872 00e8 7B68     		ldr	r3, [r7, #4]
 873 00ea 1B68     		ldr	r3, [r3]
 874 00ec 42F00102 		orr	r2, r2, #1
 875 00f0 1A60     		str	r2, [r3]
 876              	.L31:
 443:Drivers/STM32F1xx_HAL_Driver/Src/stm32f1xx_hal_tim_ex.c ****   }
 444:Drivers/STM32F1xx_HAL_Driver/Src/stm32f1xx_hal_tim_ex.c **** 
 445:Drivers/STM32F1xx_HAL_Driver/Src/stm32f1xx_hal_tim_ex.c ****   /* Return function status */
 446:Drivers/STM32F1xx_HAL_Driver/Src/stm32f1xx_hal_tim_ex.c ****   return HAL_OK;
ARM GAS  /tmp//cc6kIlXX.s 			page 24


 877              		.loc 1 446 10
 878 00f2 0023     		movs	r3, #0
 879              	.L27:
 447:Drivers/STM32F1xx_HAL_Driver/Src/stm32f1xx_hal_tim_ex.c **** }
 880              		.loc 1 447 1
 881 00f4 1846     		mov	r0, r3
 882 00f6 1037     		adds	r7, r7, #16
 883              	.LCFI35:
 884              		.cfi_def_cfa_offset 8
 885 00f8 BD46     		mov	sp, r7
 886              	.LCFI36:
 887              		.cfi_def_cfa_register 13
 888              		@ sp needed
 889 00fa 80BD     		pop	{r7, pc}
 890              	.L33:
 891              		.align	2
 892              	.L32:
 893 00fc 002C0140 		.word	1073818624
 894 0100 00340140 		.word	1073820672
 895 0104 00040040 		.word	1073742848
 896 0108 00080040 		.word	1073743872
 897 010c 000C0040 		.word	1073744896
 898              		.cfi_endproc
 899              	.LFE71:
 901              		.section	.text.HAL_TIMEx_HallSensor_Stop_IT,"ax",%progbits
 902              		.align	1
 903              		.global	HAL_TIMEx_HallSensor_Stop_IT
 904              		.syntax unified
 905              		.thumb
 906              		.thumb_func
 908              	HAL_TIMEx_HallSensor_Stop_IT:
 909              	.LFB72:
 448:Drivers/STM32F1xx_HAL_Driver/Src/stm32f1xx_hal_tim_ex.c **** 
 449:Drivers/STM32F1xx_HAL_Driver/Src/stm32f1xx_hal_tim_ex.c **** /**
 450:Drivers/STM32F1xx_HAL_Driver/Src/stm32f1xx_hal_tim_ex.c ****   * @brief  Stops the TIM Hall Sensor Interface in interrupt mode.
 451:Drivers/STM32F1xx_HAL_Driver/Src/stm32f1xx_hal_tim_ex.c ****   * @param  htim TIM Hall Sensor Interface handle
 452:Drivers/STM32F1xx_HAL_Driver/Src/stm32f1xx_hal_tim_ex.c ****   * @retval HAL status
 453:Drivers/STM32F1xx_HAL_Driver/Src/stm32f1xx_hal_tim_ex.c ****   */
 454:Drivers/STM32F1xx_HAL_Driver/Src/stm32f1xx_hal_tim_ex.c **** HAL_StatusTypeDef HAL_TIMEx_HallSensor_Stop_IT(TIM_HandleTypeDef *htim)
 455:Drivers/STM32F1xx_HAL_Driver/Src/stm32f1xx_hal_tim_ex.c **** {
 910              		.loc 1 455 1
 911              		.cfi_startproc
 912              		@ args = 0, pretend = 0, frame = 8
 913              		@ frame_needed = 1, uses_anonymous_args = 0
 914 0000 80B5     		push	{r7, lr}
 915              	.LCFI37:
 916              		.cfi_def_cfa_offset 8
 917              		.cfi_offset 7, -8
 918              		.cfi_offset 14, -4
 919 0002 82B0     		sub	sp, sp, #8
 920              	.LCFI38:
 921              		.cfi_def_cfa_offset 16
 922 0004 00AF     		add	r7, sp, #0
 923              	.LCFI39:
 924              		.cfi_def_cfa_register 7
 925 0006 7860     		str	r0, [r7, #4]
 456:Drivers/STM32F1xx_HAL_Driver/Src/stm32f1xx_hal_tim_ex.c ****   /* Check the parameters */
ARM GAS  /tmp//cc6kIlXX.s 			page 25


 457:Drivers/STM32F1xx_HAL_Driver/Src/stm32f1xx_hal_tim_ex.c ****   assert_param(IS_TIM_HALL_SENSOR_INTERFACE_INSTANCE(htim->Instance));
 458:Drivers/STM32F1xx_HAL_Driver/Src/stm32f1xx_hal_tim_ex.c **** 
 459:Drivers/STM32F1xx_HAL_Driver/Src/stm32f1xx_hal_tim_ex.c ****   /* Disable the Input Capture channel 1
 460:Drivers/STM32F1xx_HAL_Driver/Src/stm32f1xx_hal_tim_ex.c ****   (in the Hall Sensor Interface the three possible channels that can be used are TIM_CHANNEL_1,
 461:Drivers/STM32F1xx_HAL_Driver/Src/stm32f1xx_hal_tim_ex.c ****   TIM_CHANNEL_2 and TIM_CHANNEL_3) */
 462:Drivers/STM32F1xx_HAL_Driver/Src/stm32f1xx_hal_tim_ex.c ****   TIM_CCxChannelCmd(htim->Instance, TIM_CHANNEL_1, TIM_CCx_DISABLE);
 926              		.loc 1 462 3
 927 0008 7B68     		ldr	r3, [r7, #4]
 928 000a 1B68     		ldr	r3, [r3]
 929 000c 0022     		movs	r2, #0
 930 000e 0021     		movs	r1, #0
 931 0010 1846     		mov	r0, r3
 932 0012 FFF7FEFF 		bl	TIM_CCxChannelCmd
 463:Drivers/STM32F1xx_HAL_Driver/Src/stm32f1xx_hal_tim_ex.c **** 
 464:Drivers/STM32F1xx_HAL_Driver/Src/stm32f1xx_hal_tim_ex.c ****   /* Disable the capture compare Interrupts event */
 465:Drivers/STM32F1xx_HAL_Driver/Src/stm32f1xx_hal_tim_ex.c ****   __HAL_TIM_DISABLE_IT(htim, TIM_IT_CC1);
 933              		.loc 1 465 3
 934 0016 7B68     		ldr	r3, [r7, #4]
 935 0018 1B68     		ldr	r3, [r3]
 936 001a DA68     		ldr	r2, [r3, #12]
 937 001c 7B68     		ldr	r3, [r7, #4]
 938 001e 1B68     		ldr	r3, [r3]
 939 0020 22F00202 		bic	r2, r2, #2
 940 0024 DA60     		str	r2, [r3, #12]
 466:Drivers/STM32F1xx_HAL_Driver/Src/stm32f1xx_hal_tim_ex.c **** 
 467:Drivers/STM32F1xx_HAL_Driver/Src/stm32f1xx_hal_tim_ex.c ****   /* Disable the Peripheral */
 468:Drivers/STM32F1xx_HAL_Driver/Src/stm32f1xx_hal_tim_ex.c ****   __HAL_TIM_DISABLE(htim);
 941              		.loc 1 468 3
 942 0026 7B68     		ldr	r3, [r7, #4]
 943 0028 1B68     		ldr	r3, [r3]
 944 002a 1A6A     		ldr	r2, [r3, #32]
 945 002c 41F21113 		movw	r3, #4369
 946 0030 1340     		ands	r3, r3, r2
 947 0032 002B     		cmp	r3, #0
 948 0034 0FD1     		bne	.L35
 949              		.loc 1 468 3 is_stmt 0 discriminator 1
 950 0036 7B68     		ldr	r3, [r7, #4]
 951 0038 1B68     		ldr	r3, [r3]
 952 003a 1A6A     		ldr	r2, [r3, #32]
 953 003c 40F24443 		movw	r3, #1092
 954 0040 1340     		ands	r3, r3, r2
 955 0042 002B     		cmp	r3, #0
 956 0044 07D1     		bne	.L35
 957              		.loc 1 468 3 discriminator 2
 958 0046 7B68     		ldr	r3, [r7, #4]
 959 0048 1B68     		ldr	r3, [r3]
 960 004a 1A68     		ldr	r2, [r3]
 961 004c 7B68     		ldr	r3, [r7, #4]
 962 004e 1B68     		ldr	r3, [r3]
 963 0050 22F00102 		bic	r2, r2, #1
 964 0054 1A60     		str	r2, [r3]
 965              	.L35:
 469:Drivers/STM32F1xx_HAL_Driver/Src/stm32f1xx_hal_tim_ex.c **** 
 470:Drivers/STM32F1xx_HAL_Driver/Src/stm32f1xx_hal_tim_ex.c ****   /* Set the TIM channels state */
 471:Drivers/STM32F1xx_HAL_Driver/Src/stm32f1xx_hal_tim_ex.c ****   TIM_CHANNEL_STATE_SET(htim, TIM_CHANNEL_1, HAL_TIM_CHANNEL_STATE_READY);
 966              		.loc 1 471 3 is_stmt 1
 967 0056 7B68     		ldr	r3, [r7, #4]
ARM GAS  /tmp//cc6kIlXX.s 			page 26


 968 0058 0122     		movs	r2, #1
 969 005a 83F83E20 		strb	r2, [r3, #62]
 472:Drivers/STM32F1xx_HAL_Driver/Src/stm32f1xx_hal_tim_ex.c ****   TIM_CHANNEL_STATE_SET(htim, TIM_CHANNEL_2, HAL_TIM_CHANNEL_STATE_READY);
 970              		.loc 1 472 3
 971 005e 7B68     		ldr	r3, [r7, #4]
 972 0060 0122     		movs	r2, #1
 973 0062 83F83F20 		strb	r2, [r3, #63]
 473:Drivers/STM32F1xx_HAL_Driver/Src/stm32f1xx_hal_tim_ex.c ****   TIM_CHANNEL_N_STATE_SET(htim, TIM_CHANNEL_1, HAL_TIM_CHANNEL_STATE_READY);
 974              		.loc 1 473 3
 975 0066 7B68     		ldr	r3, [r7, #4]
 976 0068 0122     		movs	r2, #1
 977 006a 83F84220 		strb	r2, [r3, #66]
 474:Drivers/STM32F1xx_HAL_Driver/Src/stm32f1xx_hal_tim_ex.c ****   TIM_CHANNEL_N_STATE_SET(htim, TIM_CHANNEL_2, HAL_TIM_CHANNEL_STATE_READY);
 978              		.loc 1 474 3
 979 006e 7B68     		ldr	r3, [r7, #4]
 980 0070 0122     		movs	r2, #1
 981 0072 83F84320 		strb	r2, [r3, #67]
 475:Drivers/STM32F1xx_HAL_Driver/Src/stm32f1xx_hal_tim_ex.c **** 
 476:Drivers/STM32F1xx_HAL_Driver/Src/stm32f1xx_hal_tim_ex.c ****   /* Return function status */
 477:Drivers/STM32F1xx_HAL_Driver/Src/stm32f1xx_hal_tim_ex.c ****   return HAL_OK;
 982              		.loc 1 477 10
 983 0076 0023     		movs	r3, #0
 478:Drivers/STM32F1xx_HAL_Driver/Src/stm32f1xx_hal_tim_ex.c **** }
 984              		.loc 1 478 1
 985 0078 1846     		mov	r0, r3
 986 007a 0837     		adds	r7, r7, #8
 987              	.LCFI40:
 988              		.cfi_def_cfa_offset 8
 989 007c BD46     		mov	sp, r7
 990              	.LCFI41:
 991              		.cfi_def_cfa_register 13
 992              		@ sp needed
 993 007e 80BD     		pop	{r7, pc}
 994              		.cfi_endproc
 995              	.LFE72:
 997              		.section	.text.HAL_TIMEx_HallSensor_Start_DMA,"ax",%progbits
 998              		.align	1
 999              		.global	HAL_TIMEx_HallSensor_Start_DMA
 1000              		.syntax unified
 1001              		.thumb
 1002              		.thumb_func
 1004              	HAL_TIMEx_HallSensor_Start_DMA:
 1005              	.LFB73:
 479:Drivers/STM32F1xx_HAL_Driver/Src/stm32f1xx_hal_tim_ex.c **** 
 480:Drivers/STM32F1xx_HAL_Driver/Src/stm32f1xx_hal_tim_ex.c **** /**
 481:Drivers/STM32F1xx_HAL_Driver/Src/stm32f1xx_hal_tim_ex.c ****   * @brief  Starts the TIM Hall Sensor Interface in DMA mode.
 482:Drivers/STM32F1xx_HAL_Driver/Src/stm32f1xx_hal_tim_ex.c ****   * @param  htim TIM Hall Sensor Interface handle
 483:Drivers/STM32F1xx_HAL_Driver/Src/stm32f1xx_hal_tim_ex.c ****   * @param  pData The destination Buffer address.
 484:Drivers/STM32F1xx_HAL_Driver/Src/stm32f1xx_hal_tim_ex.c ****   * @param  Length The length of data to be transferred from TIM peripheral to memory.
 485:Drivers/STM32F1xx_HAL_Driver/Src/stm32f1xx_hal_tim_ex.c ****   * @retval HAL status
 486:Drivers/STM32F1xx_HAL_Driver/Src/stm32f1xx_hal_tim_ex.c ****   */
 487:Drivers/STM32F1xx_HAL_Driver/Src/stm32f1xx_hal_tim_ex.c **** HAL_StatusTypeDef HAL_TIMEx_HallSensor_Start_DMA(TIM_HandleTypeDef *htim, uint32_t *pData, uint16_t
 488:Drivers/STM32F1xx_HAL_Driver/Src/stm32f1xx_hal_tim_ex.c **** {
 1006              		.loc 1 488 1
 1007              		.cfi_startproc
 1008              		@ args = 0, pretend = 0, frame = 24
 1009              		@ frame_needed = 1, uses_anonymous_args = 0
ARM GAS  /tmp//cc6kIlXX.s 			page 27


 1010 0000 80B5     		push	{r7, lr}
 1011              	.LCFI42:
 1012              		.cfi_def_cfa_offset 8
 1013              		.cfi_offset 7, -8
 1014              		.cfi_offset 14, -4
 1015 0002 86B0     		sub	sp, sp, #24
 1016              	.LCFI43:
 1017              		.cfi_def_cfa_offset 32
 1018 0004 00AF     		add	r7, sp, #0
 1019              	.LCFI44:
 1020              		.cfi_def_cfa_register 7
 1021 0006 F860     		str	r0, [r7, #12]
 1022 0008 B960     		str	r1, [r7, #8]
 1023 000a 1346     		mov	r3, r2
 1024 000c FB80     		strh	r3, [r7, #6]	@ movhi
 489:Drivers/STM32F1xx_HAL_Driver/Src/stm32f1xx_hal_tim_ex.c ****   uint32_t tmpsmcr;
 490:Drivers/STM32F1xx_HAL_Driver/Src/stm32f1xx_hal_tim_ex.c ****   HAL_TIM_ChannelStateTypeDef channel_1_state = TIM_CHANNEL_STATE_GET(htim, TIM_CHANNEL_1);
 1025              		.loc 1 490 31
 1026 000e FB68     		ldr	r3, [r7, #12]
 1027 0010 93F83E30 		ldrb	r3, [r3, #62]
 1028 0014 FB75     		strb	r3, [r7, #23]
 491:Drivers/STM32F1xx_HAL_Driver/Src/stm32f1xx_hal_tim_ex.c ****   HAL_TIM_ChannelStateTypeDef complementary_channel_1_state = TIM_CHANNEL_N_STATE_GET(htim, TIM_CHA
 1029              		.loc 1 491 31
 1030 0016 FB68     		ldr	r3, [r7, #12]
 1031 0018 93F84230 		ldrb	r3, [r3, #66]
 1032 001c BB75     		strb	r3, [r7, #22]
 492:Drivers/STM32F1xx_HAL_Driver/Src/stm32f1xx_hal_tim_ex.c **** 
 493:Drivers/STM32F1xx_HAL_Driver/Src/stm32f1xx_hal_tim_ex.c ****   /* Check the parameters */
 494:Drivers/STM32F1xx_HAL_Driver/Src/stm32f1xx_hal_tim_ex.c ****   assert_param(IS_TIM_HALL_SENSOR_INTERFACE_INSTANCE(htim->Instance));
 495:Drivers/STM32F1xx_HAL_Driver/Src/stm32f1xx_hal_tim_ex.c **** 
 496:Drivers/STM32F1xx_HAL_Driver/Src/stm32f1xx_hal_tim_ex.c ****   /* Set the TIM channel state */
 497:Drivers/STM32F1xx_HAL_Driver/Src/stm32f1xx_hal_tim_ex.c ****   if ((channel_1_state == HAL_TIM_CHANNEL_STATE_BUSY)
 1033              		.loc 1 497 6
 1034 001e FB7D     		ldrb	r3, [r7, #23]	@ zero_extendqisi2
 1035 0020 022B     		cmp	r3, #2
 1036 0022 02D0     		beq	.L38
 498:Drivers/STM32F1xx_HAL_Driver/Src/stm32f1xx_hal_tim_ex.c ****       || (complementary_channel_1_state == HAL_TIM_CHANNEL_STATE_BUSY))
 1037              		.loc 1 498 7
 1038 0024 BB7D     		ldrb	r3, [r7, #22]	@ zero_extendqisi2
 1039 0026 022B     		cmp	r3, #2
 1040 0028 01D1     		bne	.L39
 1041              	.L38:
 499:Drivers/STM32F1xx_HAL_Driver/Src/stm32f1xx_hal_tim_ex.c ****   {
 500:Drivers/STM32F1xx_HAL_Driver/Src/stm32f1xx_hal_tim_ex.c ****     return HAL_BUSY;
 1042              		.loc 1 500 12
 1043 002a 0223     		movs	r3, #2
 1044 002c 7CE0     		b	.L40
 1045              	.L39:
 501:Drivers/STM32F1xx_HAL_Driver/Src/stm32f1xx_hal_tim_ex.c ****   }
 502:Drivers/STM32F1xx_HAL_Driver/Src/stm32f1xx_hal_tim_ex.c ****   else if ((channel_1_state == HAL_TIM_CHANNEL_STATE_READY)
 1046              		.loc 1 502 11
 1047 002e FB7D     		ldrb	r3, [r7, #23]	@ zero_extendqisi2
 1048 0030 012B     		cmp	r3, #1
 1049 0032 34D1     		bne	.L41
 503:Drivers/STM32F1xx_HAL_Driver/Src/stm32f1xx_hal_tim_ex.c ****            && (complementary_channel_1_state == HAL_TIM_CHANNEL_STATE_READY))
 1050              		.loc 1 503 12
 1051 0034 BB7D     		ldrb	r3, [r7, #22]	@ zero_extendqisi2
ARM GAS  /tmp//cc6kIlXX.s 			page 28


 1052 0036 012B     		cmp	r3, #1
 1053 0038 31D1     		bne	.L41
 504:Drivers/STM32F1xx_HAL_Driver/Src/stm32f1xx_hal_tim_ex.c ****   {
 505:Drivers/STM32F1xx_HAL_Driver/Src/stm32f1xx_hal_tim_ex.c ****     if ((pData == NULL) || (Length == 0U))
 1054              		.loc 1 505 8
 1055 003a BB68     		ldr	r3, [r7, #8]
 1056 003c 002B     		cmp	r3, #0
 1057 003e 02D0     		beq	.L42
 1058              		.loc 1 505 25 discriminator 1
 1059 0040 FB88     		ldrh	r3, [r7, #6]
 1060 0042 002B     		cmp	r3, #0
 1061 0044 01D1     		bne	.L43
 1062              	.L42:
 506:Drivers/STM32F1xx_HAL_Driver/Src/stm32f1xx_hal_tim_ex.c ****     {
 507:Drivers/STM32F1xx_HAL_Driver/Src/stm32f1xx_hal_tim_ex.c ****       return HAL_ERROR;
 1063              		.loc 1 507 14
 1064 0046 0123     		movs	r3, #1
 1065 0048 6EE0     		b	.L40
 1066              	.L43:
 508:Drivers/STM32F1xx_HAL_Driver/Src/stm32f1xx_hal_tim_ex.c ****     }
 509:Drivers/STM32F1xx_HAL_Driver/Src/stm32f1xx_hal_tim_ex.c ****     else
 510:Drivers/STM32F1xx_HAL_Driver/Src/stm32f1xx_hal_tim_ex.c ****     {
 511:Drivers/STM32F1xx_HAL_Driver/Src/stm32f1xx_hal_tim_ex.c ****       TIM_CHANNEL_STATE_SET(htim, TIM_CHANNEL_1, HAL_TIM_CHANNEL_STATE_BUSY);
 1067              		.loc 1 511 7
 1068 004a FB68     		ldr	r3, [r7, #12]
 1069 004c 0222     		movs	r2, #2
 1070 004e 83F83E20 		strb	r2, [r3, #62]
 512:Drivers/STM32F1xx_HAL_Driver/Src/stm32f1xx_hal_tim_ex.c ****       TIM_CHANNEL_N_STATE_SET(htim, TIM_CHANNEL_1, HAL_TIM_CHANNEL_STATE_BUSY);
 1071              		.loc 1 512 7
 1072 0052 FB68     		ldr	r3, [r7, #12]
 1073 0054 0222     		movs	r2, #2
 1074 0056 83F84220 		strb	r2, [r3, #66]
 505:Drivers/STM32F1xx_HAL_Driver/Src/stm32f1xx_hal_tim_ex.c ****     {
 1075              		.loc 1 505 8
 1076 005a 00BF     		nop
 513:Drivers/STM32F1xx_HAL_Driver/Src/stm32f1xx_hal_tim_ex.c ****     }
 514:Drivers/STM32F1xx_HAL_Driver/Src/stm32f1xx_hal_tim_ex.c ****   }
 515:Drivers/STM32F1xx_HAL_Driver/Src/stm32f1xx_hal_tim_ex.c ****   else
 516:Drivers/STM32F1xx_HAL_Driver/Src/stm32f1xx_hal_tim_ex.c ****   {
 517:Drivers/STM32F1xx_HAL_Driver/Src/stm32f1xx_hal_tim_ex.c ****     return HAL_ERROR;
 518:Drivers/STM32F1xx_HAL_Driver/Src/stm32f1xx_hal_tim_ex.c ****   }
 519:Drivers/STM32F1xx_HAL_Driver/Src/stm32f1xx_hal_tim_ex.c **** 
 520:Drivers/STM32F1xx_HAL_Driver/Src/stm32f1xx_hal_tim_ex.c ****   /* Enable the Input Capture channel 1
 521:Drivers/STM32F1xx_HAL_Driver/Src/stm32f1xx_hal_tim_ex.c ****   (in the Hall Sensor Interface the three possible channels that can be used are TIM_CHANNEL_1,
 522:Drivers/STM32F1xx_HAL_Driver/Src/stm32f1xx_hal_tim_ex.c ****   TIM_CHANNEL_2 and TIM_CHANNEL_3) */
 523:Drivers/STM32F1xx_HAL_Driver/Src/stm32f1xx_hal_tim_ex.c ****   TIM_CCxChannelCmd(htim->Instance, TIM_CHANNEL_1, TIM_CCx_ENABLE);
 1077              		.loc 1 523 3
 1078 005c FB68     		ldr	r3, [r7, #12]
 1079 005e 1B68     		ldr	r3, [r3]
 1080 0060 0122     		movs	r2, #1
 1081 0062 0021     		movs	r1, #0
 1082 0064 1846     		mov	r0, r3
 1083 0066 FFF7FEFF 		bl	TIM_CCxChannelCmd
 524:Drivers/STM32F1xx_HAL_Driver/Src/stm32f1xx_hal_tim_ex.c **** 
 525:Drivers/STM32F1xx_HAL_Driver/Src/stm32f1xx_hal_tim_ex.c ****   /* Set the DMA Input Capture 1 Callbacks */
 526:Drivers/STM32F1xx_HAL_Driver/Src/stm32f1xx_hal_tim_ex.c ****   htim->hdma[TIM_DMA_ID_CC1]->XferCpltCallback = TIM_DMACaptureCplt;
 1084              		.loc 1 526 13
ARM GAS  /tmp//cc6kIlXX.s 			page 29


 1085 006a FB68     		ldr	r3, [r7, #12]
 1086 006c 5B6A     		ldr	r3, [r3, #36]
 1087              		.loc 1 526 48
 1088 006e 304A     		ldr	r2, .L51
 1089 0070 9A62     		str	r2, [r3, #40]
 527:Drivers/STM32F1xx_HAL_Driver/Src/stm32f1xx_hal_tim_ex.c ****   htim->hdma[TIM_DMA_ID_CC1]->XferHalfCpltCallback = TIM_DMACaptureHalfCplt;
 1090              		.loc 1 527 13
 1091 0072 FB68     		ldr	r3, [r7, #12]
 1092 0074 5B6A     		ldr	r3, [r3, #36]
 1093              		.loc 1 527 52
 1094 0076 2F4A     		ldr	r2, .L51+4
 1095 0078 DA62     		str	r2, [r3, #44]
 528:Drivers/STM32F1xx_HAL_Driver/Src/stm32f1xx_hal_tim_ex.c ****   /* Set the DMA error callback */
 529:Drivers/STM32F1xx_HAL_Driver/Src/stm32f1xx_hal_tim_ex.c ****   htim->hdma[TIM_DMA_ID_CC1]->XferErrorCallback = TIM_DMAError ;
 1096              		.loc 1 529 13
 1097 007a FB68     		ldr	r3, [r7, #12]
 1098 007c 5B6A     		ldr	r3, [r3, #36]
 1099              		.loc 1 529 49
 1100 007e 2E4A     		ldr	r2, .L51+8
 1101 0080 1A63     		str	r2, [r3, #48]
 530:Drivers/STM32F1xx_HAL_Driver/Src/stm32f1xx_hal_tim_ex.c **** 
 531:Drivers/STM32F1xx_HAL_Driver/Src/stm32f1xx_hal_tim_ex.c ****   /* Enable the DMA channel for Capture 1*/
 532:Drivers/STM32F1xx_HAL_Driver/Src/stm32f1xx_hal_tim_ex.c ****   if (HAL_DMA_Start_IT(htim->hdma[TIM_DMA_ID_CC1], (uint32_t)&htim->Instance->CCR1, (uint32_t)pData
 1102              		.loc 1 532 7
 1103 0082 FB68     		ldr	r3, [r7, #12]
 1104 0084 586A     		ldr	r0, [r3, #36]
 1105              		.loc 1 532 67
 1106 0086 FB68     		ldr	r3, [r7, #12]
 1107 0088 1B68     		ldr	r3, [r3]
 1108              		.loc 1 532 62
 1109 008a 3433     		adds	r3, r3, #52
 1110              		.loc 1 532 7
 1111 008c 1946     		mov	r1, r3
 1112 008e BA68     		ldr	r2, [r7, #8]
 1113 0090 FB88     		ldrh	r3, [r7, #6]
 1114 0092 FFF7FEFF 		bl	HAL_DMA_Start_IT
 1115 0096 0346     		mov	r3, r0
 1116              		.loc 1 532 6 discriminator 1
 1117 0098 002B     		cmp	r3, #0
 1118 009a 04D0     		beq	.L45
 1119 009c 01E0     		b	.L50
 1120              	.L41:
 517:Drivers/STM32F1xx_HAL_Driver/Src/stm32f1xx_hal_tim_ex.c ****   }
 1121              		.loc 1 517 12
 1122 009e 0123     		movs	r3, #1
 1123 00a0 42E0     		b	.L40
 1124              	.L50:
 533:Drivers/STM32F1xx_HAL_Driver/Src/stm32f1xx_hal_tim_ex.c ****   {
 534:Drivers/STM32F1xx_HAL_Driver/Src/stm32f1xx_hal_tim_ex.c ****     /* Return error status */
 535:Drivers/STM32F1xx_HAL_Driver/Src/stm32f1xx_hal_tim_ex.c ****     return HAL_ERROR;
 1125              		.loc 1 535 12
 1126 00a2 0123     		movs	r3, #1
 1127 00a4 40E0     		b	.L40
 1128              	.L45:
 536:Drivers/STM32F1xx_HAL_Driver/Src/stm32f1xx_hal_tim_ex.c ****   }
 537:Drivers/STM32F1xx_HAL_Driver/Src/stm32f1xx_hal_tim_ex.c ****   /* Enable the capture compare 1 Interrupt */
 538:Drivers/STM32F1xx_HAL_Driver/Src/stm32f1xx_hal_tim_ex.c ****   __HAL_TIM_ENABLE_DMA(htim, TIM_DMA_CC1);
ARM GAS  /tmp//cc6kIlXX.s 			page 30


 1129              		.loc 1 538 3
 1130 00a6 FB68     		ldr	r3, [r7, #12]
 1131 00a8 1B68     		ldr	r3, [r3]
 1132 00aa DA68     		ldr	r2, [r3, #12]
 1133 00ac FB68     		ldr	r3, [r7, #12]
 1134 00ae 1B68     		ldr	r3, [r3]
 1135 00b0 42F40072 		orr	r2, r2, #512
 1136 00b4 DA60     		str	r2, [r3, #12]
 539:Drivers/STM32F1xx_HAL_Driver/Src/stm32f1xx_hal_tim_ex.c **** 
 540:Drivers/STM32F1xx_HAL_Driver/Src/stm32f1xx_hal_tim_ex.c ****   /* Enable the Peripheral, except in trigger mode where enable is automatically done with trigger 
 541:Drivers/STM32F1xx_HAL_Driver/Src/stm32f1xx_hal_tim_ex.c ****   if (IS_TIM_SLAVE_INSTANCE(htim->Instance))
 1137              		.loc 1 541 7
 1138 00b6 FB68     		ldr	r3, [r7, #12]
 1139 00b8 1B68     		ldr	r3, [r3]
 1140              		.loc 1 541 6
 1141 00ba 204A     		ldr	r2, .L51+12
 1142 00bc 9342     		cmp	r3, r2
 1143 00be 18D0     		beq	.L46
 1144              		.loc 1 541 7 discriminator 1
 1145 00c0 FB68     		ldr	r3, [r7, #12]
 1146 00c2 1B68     		ldr	r3, [r3]
 1147 00c4 1E4A     		ldr	r2, .L51+16
 1148 00c6 9342     		cmp	r3, r2
 1149 00c8 13D0     		beq	.L46
 1150              		.loc 1 541 7 is_stmt 0 discriminator 2
 1151 00ca FB68     		ldr	r3, [r7, #12]
 1152 00cc 1B68     		ldr	r3, [r3]
 1153 00ce B3F1804F 		cmp	r3, #1073741824
 1154 00d2 0ED0     		beq	.L46
 1155              		.loc 1 541 7 discriminator 3
 1156 00d4 FB68     		ldr	r3, [r7, #12]
 1157 00d6 1B68     		ldr	r3, [r3]
 1158 00d8 1A4A     		ldr	r2, .L51+20
 1159 00da 9342     		cmp	r3, r2
 1160 00dc 09D0     		beq	.L46
 1161              		.loc 1 541 7 discriminator 4
 1162 00de FB68     		ldr	r3, [r7, #12]
 1163 00e0 1B68     		ldr	r3, [r3]
 1164 00e2 194A     		ldr	r2, .L51+24
 1165 00e4 9342     		cmp	r3, r2
 1166 00e6 04D0     		beq	.L46
 1167              		.loc 1 541 7 discriminator 5
 1168 00e8 FB68     		ldr	r3, [r7, #12]
 1169 00ea 1B68     		ldr	r3, [r3]
 1170 00ec 174A     		ldr	r2, .L51+28
 1171 00ee 9342     		cmp	r3, r2
 1172 00f0 11D1     		bne	.L47
 1173              	.L46:
 542:Drivers/STM32F1xx_HAL_Driver/Src/stm32f1xx_hal_tim_ex.c ****   {
 543:Drivers/STM32F1xx_HAL_Driver/Src/stm32f1xx_hal_tim_ex.c ****     tmpsmcr = htim->Instance->SMCR & TIM_SMCR_SMS;
 1174              		.loc 1 543 19 is_stmt 1
 1175 00f2 FB68     		ldr	r3, [r7, #12]
 1176 00f4 1B68     		ldr	r3, [r3]
 1177              		.loc 1 543 29
 1178 00f6 9B68     		ldr	r3, [r3, #8]
 1179              		.loc 1 543 13
 1180 00f8 03F00703 		and	r3, r3, #7
ARM GAS  /tmp//cc6kIlXX.s 			page 31


 1181 00fc 3B61     		str	r3, [r7, #16]
 544:Drivers/STM32F1xx_HAL_Driver/Src/stm32f1xx_hal_tim_ex.c ****     if (!IS_TIM_SLAVEMODE_TRIGGER_ENABLED(tmpsmcr))
 1182              		.loc 1 544 8
 1183 00fe 3B69     		ldr	r3, [r7, #16]
 1184 0100 062B     		cmp	r3, #6
 1185 0102 10D0     		beq	.L49
 545:Drivers/STM32F1xx_HAL_Driver/Src/stm32f1xx_hal_tim_ex.c ****     {
 546:Drivers/STM32F1xx_HAL_Driver/Src/stm32f1xx_hal_tim_ex.c ****       __HAL_TIM_ENABLE(htim);
 1186              		.loc 1 546 7
 1187 0104 FB68     		ldr	r3, [r7, #12]
 1188 0106 1B68     		ldr	r3, [r3]
 1189 0108 1A68     		ldr	r2, [r3]
 1190 010a FB68     		ldr	r3, [r7, #12]
 1191 010c 1B68     		ldr	r3, [r3]
 1192 010e 42F00102 		orr	r2, r2, #1
 1193 0112 1A60     		str	r2, [r3]
 544:Drivers/STM32F1xx_HAL_Driver/Src/stm32f1xx_hal_tim_ex.c ****     if (!IS_TIM_SLAVEMODE_TRIGGER_ENABLED(tmpsmcr))
 1194              		.loc 1 544 8
 1195 0114 07E0     		b	.L49
 1196              	.L47:
 547:Drivers/STM32F1xx_HAL_Driver/Src/stm32f1xx_hal_tim_ex.c ****     }
 548:Drivers/STM32F1xx_HAL_Driver/Src/stm32f1xx_hal_tim_ex.c ****   }
 549:Drivers/STM32F1xx_HAL_Driver/Src/stm32f1xx_hal_tim_ex.c ****   else
 550:Drivers/STM32F1xx_HAL_Driver/Src/stm32f1xx_hal_tim_ex.c ****   {
 551:Drivers/STM32F1xx_HAL_Driver/Src/stm32f1xx_hal_tim_ex.c ****     __HAL_TIM_ENABLE(htim);
 1197              		.loc 1 551 5
 1198 0116 FB68     		ldr	r3, [r7, #12]
 1199 0118 1B68     		ldr	r3, [r3]
 1200 011a 1A68     		ldr	r2, [r3]
 1201 011c FB68     		ldr	r3, [r7, #12]
 1202 011e 1B68     		ldr	r3, [r3]
 1203 0120 42F00102 		orr	r2, r2, #1
 1204 0124 1A60     		str	r2, [r3]
 1205              	.L49:
 552:Drivers/STM32F1xx_HAL_Driver/Src/stm32f1xx_hal_tim_ex.c ****   }
 553:Drivers/STM32F1xx_HAL_Driver/Src/stm32f1xx_hal_tim_ex.c **** 
 554:Drivers/STM32F1xx_HAL_Driver/Src/stm32f1xx_hal_tim_ex.c ****   /* Return function status */
 555:Drivers/STM32F1xx_HAL_Driver/Src/stm32f1xx_hal_tim_ex.c ****   return HAL_OK;
 1206              		.loc 1 555 10
 1207 0126 0023     		movs	r3, #0
 1208              	.L40:
 556:Drivers/STM32F1xx_HAL_Driver/Src/stm32f1xx_hal_tim_ex.c **** }
 1209              		.loc 1 556 1
 1210 0128 1846     		mov	r0, r3
 1211 012a 1837     		adds	r7, r7, #24
 1212              	.LCFI45:
 1213              		.cfi_def_cfa_offset 8
 1214 012c BD46     		mov	sp, r7
 1215              	.LCFI46:
 1216              		.cfi_def_cfa_register 13
 1217              		@ sp needed
 1218 012e 80BD     		pop	{r7, pc}
 1219              	.L52:
 1220              		.align	2
 1221              	.L51:
 1222 0130 00000000 		.word	TIM_DMACaptureCplt
 1223 0134 00000000 		.word	TIM_DMACaptureHalfCplt
ARM GAS  /tmp//cc6kIlXX.s 			page 32


 1224 0138 00000000 		.word	TIM_DMAError
 1225 013c 002C0140 		.word	1073818624
 1226 0140 00340140 		.word	1073820672
 1227 0144 00040040 		.word	1073742848
 1228 0148 00080040 		.word	1073743872
 1229 014c 000C0040 		.word	1073744896
 1230              		.cfi_endproc
 1231              	.LFE73:
 1233              		.section	.text.HAL_TIMEx_HallSensor_Stop_DMA,"ax",%progbits
 1234              		.align	1
 1235              		.global	HAL_TIMEx_HallSensor_Stop_DMA
 1236              		.syntax unified
 1237              		.thumb
 1238              		.thumb_func
 1240              	HAL_TIMEx_HallSensor_Stop_DMA:
 1241              	.LFB74:
 557:Drivers/STM32F1xx_HAL_Driver/Src/stm32f1xx_hal_tim_ex.c **** 
 558:Drivers/STM32F1xx_HAL_Driver/Src/stm32f1xx_hal_tim_ex.c **** /**
 559:Drivers/STM32F1xx_HAL_Driver/Src/stm32f1xx_hal_tim_ex.c ****   * @brief  Stops the TIM Hall Sensor Interface in DMA mode.
 560:Drivers/STM32F1xx_HAL_Driver/Src/stm32f1xx_hal_tim_ex.c ****   * @param  htim TIM Hall Sensor Interface handle
 561:Drivers/STM32F1xx_HAL_Driver/Src/stm32f1xx_hal_tim_ex.c ****   * @retval HAL status
 562:Drivers/STM32F1xx_HAL_Driver/Src/stm32f1xx_hal_tim_ex.c ****   */
 563:Drivers/STM32F1xx_HAL_Driver/Src/stm32f1xx_hal_tim_ex.c **** HAL_StatusTypeDef HAL_TIMEx_HallSensor_Stop_DMA(TIM_HandleTypeDef *htim)
 564:Drivers/STM32F1xx_HAL_Driver/Src/stm32f1xx_hal_tim_ex.c **** {
 1242              		.loc 1 564 1
 1243              		.cfi_startproc
 1244              		@ args = 0, pretend = 0, frame = 8
 1245              		@ frame_needed = 1, uses_anonymous_args = 0
 1246 0000 80B5     		push	{r7, lr}
 1247              	.LCFI47:
 1248              		.cfi_def_cfa_offset 8
 1249              		.cfi_offset 7, -8
 1250              		.cfi_offset 14, -4
 1251 0002 82B0     		sub	sp, sp, #8
 1252              	.LCFI48:
 1253              		.cfi_def_cfa_offset 16
 1254 0004 00AF     		add	r7, sp, #0
 1255              	.LCFI49:
 1256              		.cfi_def_cfa_register 7
 1257 0006 7860     		str	r0, [r7, #4]
 565:Drivers/STM32F1xx_HAL_Driver/Src/stm32f1xx_hal_tim_ex.c ****   /* Check the parameters */
 566:Drivers/STM32F1xx_HAL_Driver/Src/stm32f1xx_hal_tim_ex.c ****   assert_param(IS_TIM_HALL_SENSOR_INTERFACE_INSTANCE(htim->Instance));
 567:Drivers/STM32F1xx_HAL_Driver/Src/stm32f1xx_hal_tim_ex.c **** 
 568:Drivers/STM32F1xx_HAL_Driver/Src/stm32f1xx_hal_tim_ex.c ****   /* Disable the Input Capture channel 1
 569:Drivers/STM32F1xx_HAL_Driver/Src/stm32f1xx_hal_tim_ex.c ****   (in the Hall Sensor Interface the three possible channels that can be used are TIM_CHANNEL_1,
 570:Drivers/STM32F1xx_HAL_Driver/Src/stm32f1xx_hal_tim_ex.c ****   TIM_CHANNEL_2 and TIM_CHANNEL_3) */
 571:Drivers/STM32F1xx_HAL_Driver/Src/stm32f1xx_hal_tim_ex.c ****   TIM_CCxChannelCmd(htim->Instance, TIM_CHANNEL_1, TIM_CCx_DISABLE);
 1258              		.loc 1 571 3
 1259 0008 7B68     		ldr	r3, [r7, #4]
 1260 000a 1B68     		ldr	r3, [r3]
 1261 000c 0022     		movs	r2, #0
 1262 000e 0021     		movs	r1, #0
 1263 0010 1846     		mov	r0, r3
 1264 0012 FFF7FEFF 		bl	TIM_CCxChannelCmd
 572:Drivers/STM32F1xx_HAL_Driver/Src/stm32f1xx_hal_tim_ex.c **** 
 573:Drivers/STM32F1xx_HAL_Driver/Src/stm32f1xx_hal_tim_ex.c **** 
 574:Drivers/STM32F1xx_HAL_Driver/Src/stm32f1xx_hal_tim_ex.c ****   /* Disable the capture compare Interrupts 1 event */
ARM GAS  /tmp//cc6kIlXX.s 			page 33


 575:Drivers/STM32F1xx_HAL_Driver/Src/stm32f1xx_hal_tim_ex.c ****   __HAL_TIM_DISABLE_DMA(htim, TIM_DMA_CC1);
 1265              		.loc 1 575 3
 1266 0016 7B68     		ldr	r3, [r7, #4]
 1267 0018 1B68     		ldr	r3, [r3]
 1268 001a DA68     		ldr	r2, [r3, #12]
 1269 001c 7B68     		ldr	r3, [r7, #4]
 1270 001e 1B68     		ldr	r3, [r3]
 1271 0020 22F40072 		bic	r2, r2, #512
 1272 0024 DA60     		str	r2, [r3, #12]
 576:Drivers/STM32F1xx_HAL_Driver/Src/stm32f1xx_hal_tim_ex.c **** 
 577:Drivers/STM32F1xx_HAL_Driver/Src/stm32f1xx_hal_tim_ex.c ****   (void)HAL_DMA_Abort_IT(htim->hdma[TIM_DMA_ID_CC1]);
 1273              		.loc 1 577 9
 1274 0026 7B68     		ldr	r3, [r7, #4]
 1275 0028 5B6A     		ldr	r3, [r3, #36]
 1276 002a 1846     		mov	r0, r3
 1277 002c FFF7FEFF 		bl	HAL_DMA_Abort_IT
 578:Drivers/STM32F1xx_HAL_Driver/Src/stm32f1xx_hal_tim_ex.c **** 
 579:Drivers/STM32F1xx_HAL_Driver/Src/stm32f1xx_hal_tim_ex.c ****   /* Disable the Peripheral */
 580:Drivers/STM32F1xx_HAL_Driver/Src/stm32f1xx_hal_tim_ex.c ****   __HAL_TIM_DISABLE(htim);
 1278              		.loc 1 580 3
 1279 0030 7B68     		ldr	r3, [r7, #4]
 1280 0032 1B68     		ldr	r3, [r3]
 1281 0034 1A6A     		ldr	r2, [r3, #32]
 1282 0036 41F21113 		movw	r3, #4369
 1283 003a 1340     		ands	r3, r3, r2
 1284 003c 002B     		cmp	r3, #0
 1285 003e 0FD1     		bne	.L54
 1286              		.loc 1 580 3 is_stmt 0 discriminator 1
 1287 0040 7B68     		ldr	r3, [r7, #4]
 1288 0042 1B68     		ldr	r3, [r3]
 1289 0044 1A6A     		ldr	r2, [r3, #32]
 1290 0046 40F24443 		movw	r3, #1092
 1291 004a 1340     		ands	r3, r3, r2
 1292 004c 002B     		cmp	r3, #0
 1293 004e 07D1     		bne	.L54
 1294              		.loc 1 580 3 discriminator 2
 1295 0050 7B68     		ldr	r3, [r7, #4]
 1296 0052 1B68     		ldr	r3, [r3]
 1297 0054 1A68     		ldr	r2, [r3]
 1298 0056 7B68     		ldr	r3, [r7, #4]
 1299 0058 1B68     		ldr	r3, [r3]
 1300 005a 22F00102 		bic	r2, r2, #1
 1301 005e 1A60     		str	r2, [r3]
 1302              	.L54:
 581:Drivers/STM32F1xx_HAL_Driver/Src/stm32f1xx_hal_tim_ex.c **** 
 582:Drivers/STM32F1xx_HAL_Driver/Src/stm32f1xx_hal_tim_ex.c ****   /* Set the TIM channel state */
 583:Drivers/STM32F1xx_HAL_Driver/Src/stm32f1xx_hal_tim_ex.c ****   TIM_CHANNEL_STATE_SET(htim, TIM_CHANNEL_1, HAL_TIM_CHANNEL_STATE_READY);
 1303              		.loc 1 583 3 is_stmt 1
 1304 0060 7B68     		ldr	r3, [r7, #4]
 1305 0062 0122     		movs	r2, #1
 1306 0064 83F83E20 		strb	r2, [r3, #62]
 584:Drivers/STM32F1xx_HAL_Driver/Src/stm32f1xx_hal_tim_ex.c ****   TIM_CHANNEL_N_STATE_SET(htim, TIM_CHANNEL_1, HAL_TIM_CHANNEL_STATE_READY);
 1307              		.loc 1 584 3
 1308 0068 7B68     		ldr	r3, [r7, #4]
 1309 006a 0122     		movs	r2, #1
 1310 006c 83F84220 		strb	r2, [r3, #66]
 585:Drivers/STM32F1xx_HAL_Driver/Src/stm32f1xx_hal_tim_ex.c **** 
ARM GAS  /tmp//cc6kIlXX.s 			page 34


 586:Drivers/STM32F1xx_HAL_Driver/Src/stm32f1xx_hal_tim_ex.c ****   /* Return function status */
 587:Drivers/STM32F1xx_HAL_Driver/Src/stm32f1xx_hal_tim_ex.c ****   return HAL_OK;
 1311              		.loc 1 587 10
 1312 0070 0023     		movs	r3, #0
 588:Drivers/STM32F1xx_HAL_Driver/Src/stm32f1xx_hal_tim_ex.c **** }
 1313              		.loc 1 588 1
 1314 0072 1846     		mov	r0, r3
 1315 0074 0837     		adds	r7, r7, #8
 1316              	.LCFI50:
 1317              		.cfi_def_cfa_offset 8
 1318 0076 BD46     		mov	sp, r7
 1319              	.LCFI51:
 1320              		.cfi_def_cfa_register 13
 1321              		@ sp needed
 1322 0078 80BD     		pop	{r7, pc}
 1323              		.cfi_endproc
 1324              	.LFE74:
 1326              		.section	.text.HAL_TIMEx_OCN_Start,"ax",%progbits
 1327              		.align	1
 1328              		.global	HAL_TIMEx_OCN_Start
 1329              		.syntax unified
 1330              		.thumb
 1331              		.thumb_func
 1333              	HAL_TIMEx_OCN_Start:
 1334              	.LFB75:
 589:Drivers/STM32F1xx_HAL_Driver/Src/stm32f1xx_hal_tim_ex.c **** 
 590:Drivers/STM32F1xx_HAL_Driver/Src/stm32f1xx_hal_tim_ex.c **** /**
 591:Drivers/STM32F1xx_HAL_Driver/Src/stm32f1xx_hal_tim_ex.c ****   * @}
 592:Drivers/STM32F1xx_HAL_Driver/Src/stm32f1xx_hal_tim_ex.c ****   */
 593:Drivers/STM32F1xx_HAL_Driver/Src/stm32f1xx_hal_tim_ex.c **** 
 594:Drivers/STM32F1xx_HAL_Driver/Src/stm32f1xx_hal_tim_ex.c **** /** @defgroup TIMEx_Exported_Functions_Group2 Extended Timer Complementary Output Compare functions
 595:Drivers/STM32F1xx_HAL_Driver/Src/stm32f1xx_hal_tim_ex.c ****   *  @brief   Timer Complementary Output Compare functions
 596:Drivers/STM32F1xx_HAL_Driver/Src/stm32f1xx_hal_tim_ex.c ****   *
 597:Drivers/STM32F1xx_HAL_Driver/Src/stm32f1xx_hal_tim_ex.c **** @verbatim
 598:Drivers/STM32F1xx_HAL_Driver/Src/stm32f1xx_hal_tim_ex.c ****   ==============================================================================
 599:Drivers/STM32F1xx_HAL_Driver/Src/stm32f1xx_hal_tim_ex.c ****               ##### Timer Complementary Output Compare functions #####
 600:Drivers/STM32F1xx_HAL_Driver/Src/stm32f1xx_hal_tim_ex.c ****   ==============================================================================
 601:Drivers/STM32F1xx_HAL_Driver/Src/stm32f1xx_hal_tim_ex.c ****   [..]
 602:Drivers/STM32F1xx_HAL_Driver/Src/stm32f1xx_hal_tim_ex.c ****     This section provides functions allowing to:
 603:Drivers/STM32F1xx_HAL_Driver/Src/stm32f1xx_hal_tim_ex.c ****     (+) Start the Complementary Output Compare/PWM.
 604:Drivers/STM32F1xx_HAL_Driver/Src/stm32f1xx_hal_tim_ex.c ****     (+) Stop the Complementary Output Compare/PWM.
 605:Drivers/STM32F1xx_HAL_Driver/Src/stm32f1xx_hal_tim_ex.c ****     (+) Start the Complementary Output Compare/PWM and enable interrupts.
 606:Drivers/STM32F1xx_HAL_Driver/Src/stm32f1xx_hal_tim_ex.c ****     (+) Stop the Complementary Output Compare/PWM and disable interrupts.
 607:Drivers/STM32F1xx_HAL_Driver/Src/stm32f1xx_hal_tim_ex.c ****     (+) Start the Complementary Output Compare/PWM and enable DMA transfers.
 608:Drivers/STM32F1xx_HAL_Driver/Src/stm32f1xx_hal_tim_ex.c ****     (+) Stop the Complementary Output Compare/PWM and disable DMA transfers.
 609:Drivers/STM32F1xx_HAL_Driver/Src/stm32f1xx_hal_tim_ex.c **** 
 610:Drivers/STM32F1xx_HAL_Driver/Src/stm32f1xx_hal_tim_ex.c **** @endverbatim
 611:Drivers/STM32F1xx_HAL_Driver/Src/stm32f1xx_hal_tim_ex.c ****   * @{
 612:Drivers/STM32F1xx_HAL_Driver/Src/stm32f1xx_hal_tim_ex.c ****   */
 613:Drivers/STM32F1xx_HAL_Driver/Src/stm32f1xx_hal_tim_ex.c **** 
 614:Drivers/STM32F1xx_HAL_Driver/Src/stm32f1xx_hal_tim_ex.c **** /**
 615:Drivers/STM32F1xx_HAL_Driver/Src/stm32f1xx_hal_tim_ex.c ****   * @brief  Starts the TIM Output Compare signal generation on the complementary
 616:Drivers/STM32F1xx_HAL_Driver/Src/stm32f1xx_hal_tim_ex.c ****   *         output.
 617:Drivers/STM32F1xx_HAL_Driver/Src/stm32f1xx_hal_tim_ex.c ****   * @param  htim TIM Output Compare handle
 618:Drivers/STM32F1xx_HAL_Driver/Src/stm32f1xx_hal_tim_ex.c ****   * @param  Channel TIM Channel to be enabled
 619:Drivers/STM32F1xx_HAL_Driver/Src/stm32f1xx_hal_tim_ex.c ****   *          This parameter can be one of the following values:
 620:Drivers/STM32F1xx_HAL_Driver/Src/stm32f1xx_hal_tim_ex.c ****   *            @arg TIM_CHANNEL_1: TIM Channel 1 selected
ARM GAS  /tmp//cc6kIlXX.s 			page 35


 621:Drivers/STM32F1xx_HAL_Driver/Src/stm32f1xx_hal_tim_ex.c ****   *            @arg TIM_CHANNEL_2: TIM Channel 2 selected
 622:Drivers/STM32F1xx_HAL_Driver/Src/stm32f1xx_hal_tim_ex.c ****   *            @arg TIM_CHANNEL_3: TIM Channel 3 selected
 623:Drivers/STM32F1xx_HAL_Driver/Src/stm32f1xx_hal_tim_ex.c ****   * @retval HAL status
 624:Drivers/STM32F1xx_HAL_Driver/Src/stm32f1xx_hal_tim_ex.c ****   */
 625:Drivers/STM32F1xx_HAL_Driver/Src/stm32f1xx_hal_tim_ex.c **** HAL_StatusTypeDef HAL_TIMEx_OCN_Start(TIM_HandleTypeDef *htim, uint32_t Channel)
 626:Drivers/STM32F1xx_HAL_Driver/Src/stm32f1xx_hal_tim_ex.c **** {
 1335              		.loc 1 626 1
 1336              		.cfi_startproc
 1337              		@ args = 0, pretend = 0, frame = 16
 1338              		@ frame_needed = 1, uses_anonymous_args = 0
 1339 0000 80B5     		push	{r7, lr}
 1340              	.LCFI52:
 1341              		.cfi_def_cfa_offset 8
 1342              		.cfi_offset 7, -8
 1343              		.cfi_offset 14, -4
 1344 0002 84B0     		sub	sp, sp, #16
 1345              	.LCFI53:
 1346              		.cfi_def_cfa_offset 24
 1347 0004 00AF     		add	r7, sp, #0
 1348              	.LCFI54:
 1349              		.cfi_def_cfa_register 7
 1350 0006 7860     		str	r0, [r7, #4]
 1351 0008 3960     		str	r1, [r7]
 627:Drivers/STM32F1xx_HAL_Driver/Src/stm32f1xx_hal_tim_ex.c ****   uint32_t tmpsmcr;
 628:Drivers/STM32F1xx_HAL_Driver/Src/stm32f1xx_hal_tim_ex.c **** 
 629:Drivers/STM32F1xx_HAL_Driver/Src/stm32f1xx_hal_tim_ex.c ****   /* Check the parameters */
 630:Drivers/STM32F1xx_HAL_Driver/Src/stm32f1xx_hal_tim_ex.c ****   assert_param(IS_TIM_CCXN_INSTANCE(htim->Instance, Channel));
 631:Drivers/STM32F1xx_HAL_Driver/Src/stm32f1xx_hal_tim_ex.c **** 
 632:Drivers/STM32F1xx_HAL_Driver/Src/stm32f1xx_hal_tim_ex.c ****   /* Check the TIM complementary channel state */
 633:Drivers/STM32F1xx_HAL_Driver/Src/stm32f1xx_hal_tim_ex.c ****   if (TIM_CHANNEL_N_STATE_GET(htim, Channel) != HAL_TIM_CHANNEL_STATE_READY)
 1352              		.loc 1 633 46
 1353 000a 3B68     		ldr	r3, [r7]
 1354 000c 002B     		cmp	r3, #0
 1355 000e 09D1     		bne	.L57
 1356              		.loc 1 633 7 discriminator 1
 1357 0010 7B68     		ldr	r3, [r7, #4]
 1358 0012 93F84230 		ldrb	r3, [r3, #66]
 1359 0016 DBB2     		uxtb	r3, r3
 1360              		.loc 1 633 46 discriminator 1
 1361 0018 012B     		cmp	r3, #1
 1362 001a 14BF     		ite	ne
 1363 001c 0123     		movne	r3, #1
 1364 001e 0023     		moveq	r3, #0
 1365 0020 DBB2     		uxtb	r3, r3
 1366 0022 22E0     		b	.L58
 1367              	.L57:
 1368              		.loc 1 633 46 is_stmt 0 discriminator 2
 1369 0024 3B68     		ldr	r3, [r7]
 1370 0026 042B     		cmp	r3, #4
 1371 0028 09D1     		bne	.L59
 1372              		.loc 1 633 7 is_stmt 1 discriminator 4
 1373 002a 7B68     		ldr	r3, [r7, #4]
 1374 002c 93F84330 		ldrb	r3, [r3, #67]
 1375 0030 DBB2     		uxtb	r3, r3
 1376              		.loc 1 633 46 discriminator 4
 1377 0032 012B     		cmp	r3, #1
 1378 0034 14BF     		ite	ne
ARM GAS  /tmp//cc6kIlXX.s 			page 36


 1379 0036 0123     		movne	r3, #1
 1380 0038 0023     		moveq	r3, #0
 1381 003a DBB2     		uxtb	r3, r3
 1382 003c 15E0     		b	.L58
 1383              	.L59:
 1384              		.loc 1 633 46 is_stmt 0 discriminator 5
 1385 003e 3B68     		ldr	r3, [r7]
 1386 0040 082B     		cmp	r3, #8
 1387 0042 09D1     		bne	.L61
 1388              		.loc 1 633 7 is_stmt 1 discriminator 7
 1389 0044 7B68     		ldr	r3, [r7, #4]
 1390 0046 93F84430 		ldrb	r3, [r3, #68]
 1391 004a DBB2     		uxtb	r3, r3
 1392              		.loc 1 633 46 discriminator 7
 1393 004c 012B     		cmp	r3, #1
 1394 004e 14BF     		ite	ne
 1395 0050 0123     		movne	r3, #1
 1396 0052 0023     		moveq	r3, #0
 1397 0054 DBB2     		uxtb	r3, r3
 1398 0056 08E0     		b	.L58
 1399              	.L61:
 1400              		.loc 1 633 7 discriminator 8
 1401 0058 7B68     		ldr	r3, [r7, #4]
 1402 005a 93F84530 		ldrb	r3, [r3, #69]
 1403 005e DBB2     		uxtb	r3, r3
 1404              		.loc 1 633 46 discriminator 8
 1405 0060 012B     		cmp	r3, #1
 1406 0062 14BF     		ite	ne
 1407 0064 0123     		movne	r3, #1
 1408 0066 0023     		moveq	r3, #0
 1409 0068 DBB2     		uxtb	r3, r3
 1410              	.L58:
 1411              		.loc 1 633 6 discriminator 12
 1412 006a 002B     		cmp	r3, #0
 1413 006c 01D0     		beq	.L63
 634:Drivers/STM32F1xx_HAL_Driver/Src/stm32f1xx_hal_tim_ex.c ****   {
 635:Drivers/STM32F1xx_HAL_Driver/Src/stm32f1xx_hal_tim_ex.c ****     return HAL_ERROR;
 1414              		.loc 1 635 12
 1415 006e 0123     		movs	r3, #1
 1416 0070 63E0     		b	.L64
 1417              	.L63:
 636:Drivers/STM32F1xx_HAL_Driver/Src/stm32f1xx_hal_tim_ex.c ****   }
 637:Drivers/STM32F1xx_HAL_Driver/Src/stm32f1xx_hal_tim_ex.c **** 
 638:Drivers/STM32F1xx_HAL_Driver/Src/stm32f1xx_hal_tim_ex.c ****   /* Set the TIM complementary channel state */
 639:Drivers/STM32F1xx_HAL_Driver/Src/stm32f1xx_hal_tim_ex.c ****   TIM_CHANNEL_N_STATE_SET(htim, Channel, HAL_TIM_CHANNEL_STATE_BUSY);
 1418              		.loc 1 639 3
 1419 0072 3B68     		ldr	r3, [r7]
 1420 0074 002B     		cmp	r3, #0
 1421 0076 04D1     		bne	.L65
 1422              		.loc 1 639 3 is_stmt 0 discriminator 1
 1423 0078 7B68     		ldr	r3, [r7, #4]
 1424 007a 0222     		movs	r2, #2
 1425 007c 83F84220 		strb	r2, [r3, #66]
 1426 0080 13E0     		b	.L66
 1427              	.L65:
 1428              		.loc 1 639 3 discriminator 2
 1429 0082 3B68     		ldr	r3, [r7]
ARM GAS  /tmp//cc6kIlXX.s 			page 37


 1430 0084 042B     		cmp	r3, #4
 1431 0086 04D1     		bne	.L67
 1432              		.loc 1 639 3 discriminator 3
 1433 0088 7B68     		ldr	r3, [r7, #4]
 1434 008a 0222     		movs	r2, #2
 1435 008c 83F84320 		strb	r2, [r3, #67]
 1436 0090 0BE0     		b	.L66
 1437              	.L67:
 1438              		.loc 1 639 3 discriminator 4
 1439 0092 3B68     		ldr	r3, [r7]
 1440 0094 082B     		cmp	r3, #8
 1441 0096 04D1     		bne	.L69
 1442              		.loc 1 639 3 discriminator 6
 1443 0098 7B68     		ldr	r3, [r7, #4]
 1444 009a 0222     		movs	r2, #2
 1445 009c 83F84420 		strb	r2, [r3, #68]
 1446 00a0 03E0     		b	.L66
 1447              	.L69:
 1448              		.loc 1 639 3 discriminator 7
 1449 00a2 7B68     		ldr	r3, [r7, #4]
 1450 00a4 0222     		movs	r2, #2
 1451 00a6 83F84520 		strb	r2, [r3, #69]
 1452              	.L66:
 640:Drivers/STM32F1xx_HAL_Driver/Src/stm32f1xx_hal_tim_ex.c **** 
 641:Drivers/STM32F1xx_HAL_Driver/Src/stm32f1xx_hal_tim_ex.c ****   /* Enable the Capture compare channel N */
 642:Drivers/STM32F1xx_HAL_Driver/Src/stm32f1xx_hal_tim_ex.c ****   TIM_CCxNChannelCmd(htim->Instance, Channel, TIM_CCxN_ENABLE);
 1453              		.loc 1 642 3 is_stmt 1
 1454 00aa 7B68     		ldr	r3, [r7, #4]
 1455 00ac 1B68     		ldr	r3, [r3]
 1456 00ae 0422     		movs	r2, #4
 1457 00b0 3968     		ldr	r1, [r7]
 1458 00b2 1846     		mov	r0, r3
 1459 00b4 FFF7FEFF 		bl	TIM_CCxNChannelCmd
 643:Drivers/STM32F1xx_HAL_Driver/Src/stm32f1xx_hal_tim_ex.c **** 
 644:Drivers/STM32F1xx_HAL_Driver/Src/stm32f1xx_hal_tim_ex.c ****   /* Enable the Main Output */
 645:Drivers/STM32F1xx_HAL_Driver/Src/stm32f1xx_hal_tim_ex.c ****   __HAL_TIM_MOE_ENABLE(htim);
 1460              		.loc 1 645 3
 1461 00b8 7B68     		ldr	r3, [r7, #4]
 1462 00ba 1B68     		ldr	r3, [r3]
 1463 00bc 5A6C     		ldr	r2, [r3, #68]
 1464 00be 7B68     		ldr	r3, [r7, #4]
 1465 00c0 1B68     		ldr	r3, [r3]
 1466 00c2 42F40042 		orr	r2, r2, #32768
 1467 00c6 5A64     		str	r2, [r3, #68]
 646:Drivers/STM32F1xx_HAL_Driver/Src/stm32f1xx_hal_tim_ex.c **** 
 647:Drivers/STM32F1xx_HAL_Driver/Src/stm32f1xx_hal_tim_ex.c ****   /* Enable the Peripheral, except in trigger mode where enable is automatically done with trigger 
 648:Drivers/STM32F1xx_HAL_Driver/Src/stm32f1xx_hal_tim_ex.c ****   if (IS_TIM_SLAVE_INSTANCE(htim->Instance))
 1468              		.loc 1 648 7
 1469 00c8 7B68     		ldr	r3, [r7, #4]
 1470 00ca 1B68     		ldr	r3, [r3]
 1471              		.loc 1 648 6
 1472 00cc 1D4A     		ldr	r2, .L75
 1473 00ce 9342     		cmp	r3, r2
 1474 00d0 18D0     		beq	.L71
 1475              		.loc 1 648 7 discriminator 1
 1476 00d2 7B68     		ldr	r3, [r7, #4]
 1477 00d4 1B68     		ldr	r3, [r3]
ARM GAS  /tmp//cc6kIlXX.s 			page 38


 1478 00d6 1C4A     		ldr	r2, .L75+4
 1479 00d8 9342     		cmp	r3, r2
 1480 00da 13D0     		beq	.L71
 1481              		.loc 1 648 7 is_stmt 0 discriminator 2
 1482 00dc 7B68     		ldr	r3, [r7, #4]
 1483 00de 1B68     		ldr	r3, [r3]
 1484 00e0 B3F1804F 		cmp	r3, #1073741824
 1485 00e4 0ED0     		beq	.L71
 1486              		.loc 1 648 7 discriminator 3
 1487 00e6 7B68     		ldr	r3, [r7, #4]
 1488 00e8 1B68     		ldr	r3, [r3]
 1489 00ea 184A     		ldr	r2, .L75+8
 1490 00ec 9342     		cmp	r3, r2
 1491 00ee 09D0     		beq	.L71
 1492              		.loc 1 648 7 discriminator 4
 1493 00f0 7B68     		ldr	r3, [r7, #4]
 1494 00f2 1B68     		ldr	r3, [r3]
 1495 00f4 164A     		ldr	r2, .L75+12
 1496 00f6 9342     		cmp	r3, r2
 1497 00f8 04D0     		beq	.L71
 1498              		.loc 1 648 7 discriminator 5
 1499 00fa 7B68     		ldr	r3, [r7, #4]
 1500 00fc 1B68     		ldr	r3, [r3]
 1501 00fe 154A     		ldr	r2, .L75+16
 1502 0100 9342     		cmp	r3, r2
 1503 0102 11D1     		bne	.L72
 1504              	.L71:
 649:Drivers/STM32F1xx_HAL_Driver/Src/stm32f1xx_hal_tim_ex.c ****   {
 650:Drivers/STM32F1xx_HAL_Driver/Src/stm32f1xx_hal_tim_ex.c ****     tmpsmcr = htim->Instance->SMCR & TIM_SMCR_SMS;
 1505              		.loc 1 650 19 is_stmt 1
 1506 0104 7B68     		ldr	r3, [r7, #4]
 1507 0106 1B68     		ldr	r3, [r3]
 1508              		.loc 1 650 29
 1509 0108 9B68     		ldr	r3, [r3, #8]
 1510              		.loc 1 650 13
 1511 010a 03F00703 		and	r3, r3, #7
 1512 010e FB60     		str	r3, [r7, #12]
 651:Drivers/STM32F1xx_HAL_Driver/Src/stm32f1xx_hal_tim_ex.c ****     if (!IS_TIM_SLAVEMODE_TRIGGER_ENABLED(tmpsmcr))
 1513              		.loc 1 651 8
 1514 0110 FB68     		ldr	r3, [r7, #12]
 1515 0112 062B     		cmp	r3, #6
 1516 0114 10D0     		beq	.L74
 652:Drivers/STM32F1xx_HAL_Driver/Src/stm32f1xx_hal_tim_ex.c ****     {
 653:Drivers/STM32F1xx_HAL_Driver/Src/stm32f1xx_hal_tim_ex.c ****       __HAL_TIM_ENABLE(htim);
 1517              		.loc 1 653 7
 1518 0116 7B68     		ldr	r3, [r7, #4]
 1519 0118 1B68     		ldr	r3, [r3]
 1520 011a 1A68     		ldr	r2, [r3]
 1521 011c 7B68     		ldr	r3, [r7, #4]
 1522 011e 1B68     		ldr	r3, [r3]
 1523 0120 42F00102 		orr	r2, r2, #1
 1524 0124 1A60     		str	r2, [r3]
 651:Drivers/STM32F1xx_HAL_Driver/Src/stm32f1xx_hal_tim_ex.c ****     if (!IS_TIM_SLAVEMODE_TRIGGER_ENABLED(tmpsmcr))
 1525              		.loc 1 651 8
 1526 0126 07E0     		b	.L74
 1527              	.L72:
 654:Drivers/STM32F1xx_HAL_Driver/Src/stm32f1xx_hal_tim_ex.c ****     }
ARM GAS  /tmp//cc6kIlXX.s 			page 39


 655:Drivers/STM32F1xx_HAL_Driver/Src/stm32f1xx_hal_tim_ex.c ****   }
 656:Drivers/STM32F1xx_HAL_Driver/Src/stm32f1xx_hal_tim_ex.c ****   else
 657:Drivers/STM32F1xx_HAL_Driver/Src/stm32f1xx_hal_tim_ex.c ****   {
 658:Drivers/STM32F1xx_HAL_Driver/Src/stm32f1xx_hal_tim_ex.c ****     __HAL_TIM_ENABLE(htim);
 1528              		.loc 1 658 5
 1529 0128 7B68     		ldr	r3, [r7, #4]
 1530 012a 1B68     		ldr	r3, [r3]
 1531 012c 1A68     		ldr	r2, [r3]
 1532 012e 7B68     		ldr	r3, [r7, #4]
 1533 0130 1B68     		ldr	r3, [r3]
 1534 0132 42F00102 		orr	r2, r2, #1
 1535 0136 1A60     		str	r2, [r3]
 1536              	.L74:
 659:Drivers/STM32F1xx_HAL_Driver/Src/stm32f1xx_hal_tim_ex.c ****   }
 660:Drivers/STM32F1xx_HAL_Driver/Src/stm32f1xx_hal_tim_ex.c **** 
 661:Drivers/STM32F1xx_HAL_Driver/Src/stm32f1xx_hal_tim_ex.c ****   /* Return function status */
 662:Drivers/STM32F1xx_HAL_Driver/Src/stm32f1xx_hal_tim_ex.c ****   return HAL_OK;
 1537              		.loc 1 662 10
 1538 0138 0023     		movs	r3, #0
 1539              	.L64:
 663:Drivers/STM32F1xx_HAL_Driver/Src/stm32f1xx_hal_tim_ex.c **** }
 1540              		.loc 1 663 1
 1541 013a 1846     		mov	r0, r3
 1542 013c 1037     		adds	r7, r7, #16
 1543              	.LCFI55:
 1544              		.cfi_def_cfa_offset 8
 1545 013e BD46     		mov	sp, r7
 1546              	.LCFI56:
 1547              		.cfi_def_cfa_register 13
 1548              		@ sp needed
 1549 0140 80BD     		pop	{r7, pc}
 1550              	.L76:
 1551 0142 00BF     		.align	2
 1552              	.L75:
 1553 0144 002C0140 		.word	1073818624
 1554 0148 00340140 		.word	1073820672
 1555 014c 00040040 		.word	1073742848
 1556 0150 00080040 		.word	1073743872
 1557 0154 000C0040 		.word	1073744896
 1558              		.cfi_endproc
 1559              	.LFE75:
 1561              		.section	.text.HAL_TIMEx_OCN_Stop,"ax",%progbits
 1562              		.align	1
 1563              		.global	HAL_TIMEx_OCN_Stop
 1564              		.syntax unified
 1565              		.thumb
 1566              		.thumb_func
 1568              	HAL_TIMEx_OCN_Stop:
 1569              	.LFB76:
 664:Drivers/STM32F1xx_HAL_Driver/Src/stm32f1xx_hal_tim_ex.c **** 
 665:Drivers/STM32F1xx_HAL_Driver/Src/stm32f1xx_hal_tim_ex.c **** /**
 666:Drivers/STM32F1xx_HAL_Driver/Src/stm32f1xx_hal_tim_ex.c ****   * @brief  Stops the TIM Output Compare signal generation on the complementary
 667:Drivers/STM32F1xx_HAL_Driver/Src/stm32f1xx_hal_tim_ex.c ****   *         output.
 668:Drivers/STM32F1xx_HAL_Driver/Src/stm32f1xx_hal_tim_ex.c ****   * @param  htim TIM handle
 669:Drivers/STM32F1xx_HAL_Driver/Src/stm32f1xx_hal_tim_ex.c ****   * @param  Channel TIM Channel to be disabled
 670:Drivers/STM32F1xx_HAL_Driver/Src/stm32f1xx_hal_tim_ex.c ****   *          This parameter can be one of the following values:
 671:Drivers/STM32F1xx_HAL_Driver/Src/stm32f1xx_hal_tim_ex.c ****   *            @arg TIM_CHANNEL_1: TIM Channel 1 selected
ARM GAS  /tmp//cc6kIlXX.s 			page 40


 672:Drivers/STM32F1xx_HAL_Driver/Src/stm32f1xx_hal_tim_ex.c ****   *            @arg TIM_CHANNEL_2: TIM Channel 2 selected
 673:Drivers/STM32F1xx_HAL_Driver/Src/stm32f1xx_hal_tim_ex.c ****   *            @arg TIM_CHANNEL_3: TIM Channel 3 selected
 674:Drivers/STM32F1xx_HAL_Driver/Src/stm32f1xx_hal_tim_ex.c ****   * @retval HAL status
 675:Drivers/STM32F1xx_HAL_Driver/Src/stm32f1xx_hal_tim_ex.c ****   */
 676:Drivers/STM32F1xx_HAL_Driver/Src/stm32f1xx_hal_tim_ex.c **** HAL_StatusTypeDef HAL_TIMEx_OCN_Stop(TIM_HandleTypeDef *htim, uint32_t Channel)
 677:Drivers/STM32F1xx_HAL_Driver/Src/stm32f1xx_hal_tim_ex.c **** {
 1570              		.loc 1 677 1
 1571              		.cfi_startproc
 1572              		@ args = 0, pretend = 0, frame = 8
 1573              		@ frame_needed = 1, uses_anonymous_args = 0
 1574 0000 80B5     		push	{r7, lr}
 1575              	.LCFI57:
 1576              		.cfi_def_cfa_offset 8
 1577              		.cfi_offset 7, -8
 1578              		.cfi_offset 14, -4
 1579 0002 82B0     		sub	sp, sp, #8
 1580              	.LCFI58:
 1581              		.cfi_def_cfa_offset 16
 1582 0004 00AF     		add	r7, sp, #0
 1583              	.LCFI59:
 1584              		.cfi_def_cfa_register 7
 1585 0006 7860     		str	r0, [r7, #4]
 1586 0008 3960     		str	r1, [r7]
 678:Drivers/STM32F1xx_HAL_Driver/Src/stm32f1xx_hal_tim_ex.c ****   /* Check the parameters */
 679:Drivers/STM32F1xx_HAL_Driver/Src/stm32f1xx_hal_tim_ex.c ****   assert_param(IS_TIM_CCXN_INSTANCE(htim->Instance, Channel));
 680:Drivers/STM32F1xx_HAL_Driver/Src/stm32f1xx_hal_tim_ex.c **** 
 681:Drivers/STM32F1xx_HAL_Driver/Src/stm32f1xx_hal_tim_ex.c ****   /* Disable the Capture compare channel N */
 682:Drivers/STM32F1xx_HAL_Driver/Src/stm32f1xx_hal_tim_ex.c ****   TIM_CCxNChannelCmd(htim->Instance, Channel, TIM_CCxN_DISABLE);
 1587              		.loc 1 682 3
 1588 000a 7B68     		ldr	r3, [r7, #4]
 1589 000c 1B68     		ldr	r3, [r3]
 1590 000e 0022     		movs	r2, #0
 1591 0010 3968     		ldr	r1, [r7]
 1592 0012 1846     		mov	r0, r3
 1593 0014 FFF7FEFF 		bl	TIM_CCxNChannelCmd
 683:Drivers/STM32F1xx_HAL_Driver/Src/stm32f1xx_hal_tim_ex.c **** 
 684:Drivers/STM32F1xx_HAL_Driver/Src/stm32f1xx_hal_tim_ex.c ****   /* Disable the Main Output */
 685:Drivers/STM32F1xx_HAL_Driver/Src/stm32f1xx_hal_tim_ex.c ****   __HAL_TIM_MOE_DISABLE(htim);
 1594              		.loc 1 685 3
 1595 0018 7B68     		ldr	r3, [r7, #4]
 1596 001a 1B68     		ldr	r3, [r3]
 1597 001c 1A6A     		ldr	r2, [r3, #32]
 1598 001e 41F21113 		movw	r3, #4369
 1599 0022 1340     		ands	r3, r3, r2
 1600 0024 002B     		cmp	r3, #0
 1601 0026 0FD1     		bne	.L78
 1602              		.loc 1 685 3 is_stmt 0 discriminator 1
 1603 0028 7B68     		ldr	r3, [r7, #4]
 1604 002a 1B68     		ldr	r3, [r3]
 1605 002c 1A6A     		ldr	r2, [r3, #32]
 1606 002e 40F24443 		movw	r3, #1092
 1607 0032 1340     		ands	r3, r3, r2
 1608 0034 002B     		cmp	r3, #0
 1609 0036 07D1     		bne	.L78
 1610              		.loc 1 685 3 discriminator 2
 1611 0038 7B68     		ldr	r3, [r7, #4]
 1612 003a 1B68     		ldr	r3, [r3]
ARM GAS  /tmp//cc6kIlXX.s 			page 41


 1613 003c 5A6C     		ldr	r2, [r3, #68]
 1614 003e 7B68     		ldr	r3, [r7, #4]
 1615 0040 1B68     		ldr	r3, [r3]
 1616 0042 22F40042 		bic	r2, r2, #32768
 1617 0046 5A64     		str	r2, [r3, #68]
 1618              	.L78:
 686:Drivers/STM32F1xx_HAL_Driver/Src/stm32f1xx_hal_tim_ex.c **** 
 687:Drivers/STM32F1xx_HAL_Driver/Src/stm32f1xx_hal_tim_ex.c ****   /* Disable the Peripheral */
 688:Drivers/STM32F1xx_HAL_Driver/Src/stm32f1xx_hal_tim_ex.c ****   __HAL_TIM_DISABLE(htim);
 1619              		.loc 1 688 3 is_stmt 1
 1620 0048 7B68     		ldr	r3, [r7, #4]
 1621 004a 1B68     		ldr	r3, [r3]
 1622 004c 1A6A     		ldr	r2, [r3, #32]
 1623 004e 41F21113 		movw	r3, #4369
 1624 0052 1340     		ands	r3, r3, r2
 1625 0054 002B     		cmp	r3, #0
 1626 0056 0FD1     		bne	.L79
 1627              		.loc 1 688 3 is_stmt 0 discriminator 1
 1628 0058 7B68     		ldr	r3, [r7, #4]
 1629 005a 1B68     		ldr	r3, [r3]
 1630 005c 1A6A     		ldr	r2, [r3, #32]
 1631 005e 40F24443 		movw	r3, #1092
 1632 0062 1340     		ands	r3, r3, r2
 1633 0064 002B     		cmp	r3, #0
 1634 0066 07D1     		bne	.L79
 1635              		.loc 1 688 3 discriminator 2
 1636 0068 7B68     		ldr	r3, [r7, #4]
 1637 006a 1B68     		ldr	r3, [r3]
 1638 006c 1A68     		ldr	r2, [r3]
 1639 006e 7B68     		ldr	r3, [r7, #4]
 1640 0070 1B68     		ldr	r3, [r3]
 1641 0072 22F00102 		bic	r2, r2, #1
 1642 0076 1A60     		str	r2, [r3]
 1643              	.L79:
 689:Drivers/STM32F1xx_HAL_Driver/Src/stm32f1xx_hal_tim_ex.c **** 
 690:Drivers/STM32F1xx_HAL_Driver/Src/stm32f1xx_hal_tim_ex.c ****   /* Set the TIM complementary channel state */
 691:Drivers/STM32F1xx_HAL_Driver/Src/stm32f1xx_hal_tim_ex.c ****   TIM_CHANNEL_N_STATE_SET(htim, Channel, HAL_TIM_CHANNEL_STATE_READY);
 1644              		.loc 1 691 3 is_stmt 1
 1645 0078 3B68     		ldr	r3, [r7]
 1646 007a 002B     		cmp	r3, #0
 1647 007c 04D1     		bne	.L80
 1648              		.loc 1 691 3 is_stmt 0 discriminator 1
 1649 007e 7B68     		ldr	r3, [r7, #4]
 1650 0080 0122     		movs	r2, #1
 1651 0082 83F84220 		strb	r2, [r3, #66]
 1652 0086 13E0     		b	.L81
 1653              	.L80:
 1654              		.loc 1 691 3 discriminator 2
 1655 0088 3B68     		ldr	r3, [r7]
 1656 008a 042B     		cmp	r3, #4
 1657 008c 04D1     		bne	.L82
 1658              		.loc 1 691 3 discriminator 3
 1659 008e 7B68     		ldr	r3, [r7, #4]
 1660 0090 0122     		movs	r2, #1
 1661 0092 83F84320 		strb	r2, [r3, #67]
 1662 0096 0BE0     		b	.L81
 1663              	.L82:
ARM GAS  /tmp//cc6kIlXX.s 			page 42


 1664              		.loc 1 691 3 discriminator 4
 1665 0098 3B68     		ldr	r3, [r7]
 1666 009a 082B     		cmp	r3, #8
 1667 009c 04D1     		bne	.L84
 1668              		.loc 1 691 3 discriminator 6
 1669 009e 7B68     		ldr	r3, [r7, #4]
 1670 00a0 0122     		movs	r2, #1
 1671 00a2 83F84420 		strb	r2, [r3, #68]
 1672 00a6 03E0     		b	.L81
 1673              	.L84:
 1674              		.loc 1 691 3 discriminator 7
 1675 00a8 7B68     		ldr	r3, [r7, #4]
 1676 00aa 0122     		movs	r2, #1
 1677 00ac 83F84520 		strb	r2, [r3, #69]
 1678              	.L81:
 692:Drivers/STM32F1xx_HAL_Driver/Src/stm32f1xx_hal_tim_ex.c **** 
 693:Drivers/STM32F1xx_HAL_Driver/Src/stm32f1xx_hal_tim_ex.c ****   /* Return function status */
 694:Drivers/STM32F1xx_HAL_Driver/Src/stm32f1xx_hal_tim_ex.c ****   return HAL_OK;
 1679              		.loc 1 694 10 is_stmt 1
 1680 00b0 0023     		movs	r3, #0
 695:Drivers/STM32F1xx_HAL_Driver/Src/stm32f1xx_hal_tim_ex.c **** }
 1681              		.loc 1 695 1
 1682 00b2 1846     		mov	r0, r3
 1683 00b4 0837     		adds	r7, r7, #8
 1684              	.LCFI60:
 1685              		.cfi_def_cfa_offset 8
 1686 00b6 BD46     		mov	sp, r7
 1687              	.LCFI61:
 1688              		.cfi_def_cfa_register 13
 1689              		@ sp needed
 1690 00b8 80BD     		pop	{r7, pc}
 1691              		.cfi_endproc
 1692              	.LFE76:
 1694              		.section	.text.HAL_TIMEx_OCN_Start_IT,"ax",%progbits
 1695              		.align	1
 1696              		.global	HAL_TIMEx_OCN_Start_IT
 1697              		.syntax unified
 1698              		.thumb
 1699              		.thumb_func
 1701              	HAL_TIMEx_OCN_Start_IT:
 1702              	.LFB77:
 696:Drivers/STM32F1xx_HAL_Driver/Src/stm32f1xx_hal_tim_ex.c **** 
 697:Drivers/STM32F1xx_HAL_Driver/Src/stm32f1xx_hal_tim_ex.c **** /**
 698:Drivers/STM32F1xx_HAL_Driver/Src/stm32f1xx_hal_tim_ex.c ****   * @brief  Starts the TIM Output Compare signal generation in interrupt mode
 699:Drivers/STM32F1xx_HAL_Driver/Src/stm32f1xx_hal_tim_ex.c ****   *         on the complementary output.
 700:Drivers/STM32F1xx_HAL_Driver/Src/stm32f1xx_hal_tim_ex.c ****   * @param  htim TIM OC handle
 701:Drivers/STM32F1xx_HAL_Driver/Src/stm32f1xx_hal_tim_ex.c ****   * @param  Channel TIM Channel to be enabled
 702:Drivers/STM32F1xx_HAL_Driver/Src/stm32f1xx_hal_tim_ex.c ****   *          This parameter can be one of the following values:
 703:Drivers/STM32F1xx_HAL_Driver/Src/stm32f1xx_hal_tim_ex.c ****   *            @arg TIM_CHANNEL_1: TIM Channel 1 selected
 704:Drivers/STM32F1xx_HAL_Driver/Src/stm32f1xx_hal_tim_ex.c ****   *            @arg TIM_CHANNEL_2: TIM Channel 2 selected
 705:Drivers/STM32F1xx_HAL_Driver/Src/stm32f1xx_hal_tim_ex.c ****   *            @arg TIM_CHANNEL_3: TIM Channel 3 selected
 706:Drivers/STM32F1xx_HAL_Driver/Src/stm32f1xx_hal_tim_ex.c ****   * @retval HAL status
 707:Drivers/STM32F1xx_HAL_Driver/Src/stm32f1xx_hal_tim_ex.c ****   */
 708:Drivers/STM32F1xx_HAL_Driver/Src/stm32f1xx_hal_tim_ex.c **** HAL_StatusTypeDef HAL_TIMEx_OCN_Start_IT(TIM_HandleTypeDef *htim, uint32_t Channel)
 709:Drivers/STM32F1xx_HAL_Driver/Src/stm32f1xx_hal_tim_ex.c **** {
 1703              		.loc 1 709 1
 1704              		.cfi_startproc
ARM GAS  /tmp//cc6kIlXX.s 			page 43


 1705              		@ args = 0, pretend = 0, frame = 16
 1706              		@ frame_needed = 1, uses_anonymous_args = 0
 1707 0000 80B5     		push	{r7, lr}
 1708              	.LCFI62:
 1709              		.cfi_def_cfa_offset 8
 1710              		.cfi_offset 7, -8
 1711              		.cfi_offset 14, -4
 1712 0002 84B0     		sub	sp, sp, #16
 1713              	.LCFI63:
 1714              		.cfi_def_cfa_offset 24
 1715 0004 00AF     		add	r7, sp, #0
 1716              	.LCFI64:
 1717              		.cfi_def_cfa_register 7
 1718 0006 7860     		str	r0, [r7, #4]
 1719 0008 3960     		str	r1, [r7]
 710:Drivers/STM32F1xx_HAL_Driver/Src/stm32f1xx_hal_tim_ex.c ****   HAL_StatusTypeDef status = HAL_OK;
 1720              		.loc 1 710 21
 1721 000a 0023     		movs	r3, #0
 1722 000c FB73     		strb	r3, [r7, #15]
 711:Drivers/STM32F1xx_HAL_Driver/Src/stm32f1xx_hal_tim_ex.c ****   uint32_t tmpsmcr;
 712:Drivers/STM32F1xx_HAL_Driver/Src/stm32f1xx_hal_tim_ex.c **** 
 713:Drivers/STM32F1xx_HAL_Driver/Src/stm32f1xx_hal_tim_ex.c ****   /* Check the parameters */
 714:Drivers/STM32F1xx_HAL_Driver/Src/stm32f1xx_hal_tim_ex.c ****   assert_param(IS_TIM_CCXN_INSTANCE(htim->Instance, Channel));
 715:Drivers/STM32F1xx_HAL_Driver/Src/stm32f1xx_hal_tim_ex.c **** 
 716:Drivers/STM32F1xx_HAL_Driver/Src/stm32f1xx_hal_tim_ex.c ****   /* Check the TIM complementary channel state */
 717:Drivers/STM32F1xx_HAL_Driver/Src/stm32f1xx_hal_tim_ex.c ****   if (TIM_CHANNEL_N_STATE_GET(htim, Channel) != HAL_TIM_CHANNEL_STATE_READY)
 1723              		.loc 1 717 46
 1724 000e 3B68     		ldr	r3, [r7]
 1725 0010 002B     		cmp	r3, #0
 1726 0012 09D1     		bne	.L88
 1727              		.loc 1 717 7 discriminator 1
 1728 0014 7B68     		ldr	r3, [r7, #4]
 1729 0016 93F84230 		ldrb	r3, [r3, #66]
 1730 001a DBB2     		uxtb	r3, r3
 1731              		.loc 1 717 46 discriminator 1
 1732 001c 012B     		cmp	r3, #1
 1733 001e 14BF     		ite	ne
 1734 0020 0123     		movne	r3, #1
 1735 0022 0023     		moveq	r3, #0
 1736 0024 DBB2     		uxtb	r3, r3
 1737 0026 22E0     		b	.L89
 1738              	.L88:
 1739              		.loc 1 717 46 is_stmt 0 discriminator 2
 1740 0028 3B68     		ldr	r3, [r7]
 1741 002a 042B     		cmp	r3, #4
 1742 002c 09D1     		bne	.L90
 1743              		.loc 1 717 7 is_stmt 1 discriminator 4
 1744 002e 7B68     		ldr	r3, [r7, #4]
 1745 0030 93F84330 		ldrb	r3, [r3, #67]
 1746 0034 DBB2     		uxtb	r3, r3
 1747              		.loc 1 717 46 discriminator 4
 1748 0036 012B     		cmp	r3, #1
 1749 0038 14BF     		ite	ne
 1750 003a 0123     		movne	r3, #1
 1751 003c 0023     		moveq	r3, #0
 1752 003e DBB2     		uxtb	r3, r3
 1753 0040 15E0     		b	.L89
ARM GAS  /tmp//cc6kIlXX.s 			page 44


 1754              	.L90:
 1755              		.loc 1 717 46 is_stmt 0 discriminator 5
 1756 0042 3B68     		ldr	r3, [r7]
 1757 0044 082B     		cmp	r3, #8
 1758 0046 09D1     		bne	.L92
 1759              		.loc 1 717 7 is_stmt 1 discriminator 7
 1760 0048 7B68     		ldr	r3, [r7, #4]
 1761 004a 93F84430 		ldrb	r3, [r3, #68]
 1762 004e DBB2     		uxtb	r3, r3
 1763              		.loc 1 717 46 discriminator 7
 1764 0050 012B     		cmp	r3, #1
 1765 0052 14BF     		ite	ne
 1766 0054 0123     		movne	r3, #1
 1767 0056 0023     		moveq	r3, #0
 1768 0058 DBB2     		uxtb	r3, r3
 1769 005a 08E0     		b	.L89
 1770              	.L92:
 1771              		.loc 1 717 7 discriminator 8
 1772 005c 7B68     		ldr	r3, [r7, #4]
 1773 005e 93F84530 		ldrb	r3, [r3, #69]
 1774 0062 DBB2     		uxtb	r3, r3
 1775              		.loc 1 717 46 discriminator 8
 1776 0064 012B     		cmp	r3, #1
 1777 0066 14BF     		ite	ne
 1778 0068 0123     		movne	r3, #1
 1779 006a 0023     		moveq	r3, #0
 1780 006c DBB2     		uxtb	r3, r3
 1781              	.L89:
 1782              		.loc 1 717 6 discriminator 12
 1783 006e 002B     		cmp	r3, #0
 1784 0070 01D0     		beq	.L94
 718:Drivers/STM32F1xx_HAL_Driver/Src/stm32f1xx_hal_tim_ex.c ****   {
 719:Drivers/STM32F1xx_HAL_Driver/Src/stm32f1xx_hal_tim_ex.c ****     return HAL_ERROR;
 1785              		.loc 1 719 12
 1786 0072 0123     		movs	r3, #1
 1787 0074 99E0     		b	.L95
 1788              	.L94:
 720:Drivers/STM32F1xx_HAL_Driver/Src/stm32f1xx_hal_tim_ex.c ****   }
 721:Drivers/STM32F1xx_HAL_Driver/Src/stm32f1xx_hal_tim_ex.c **** 
 722:Drivers/STM32F1xx_HAL_Driver/Src/stm32f1xx_hal_tim_ex.c ****   /* Set the TIM complementary channel state */
 723:Drivers/STM32F1xx_HAL_Driver/Src/stm32f1xx_hal_tim_ex.c ****   TIM_CHANNEL_N_STATE_SET(htim, Channel, HAL_TIM_CHANNEL_STATE_BUSY);
 1789              		.loc 1 723 3
 1790 0076 3B68     		ldr	r3, [r7]
 1791 0078 002B     		cmp	r3, #0
 1792 007a 04D1     		bne	.L96
 1793              		.loc 1 723 3 is_stmt 0 discriminator 1
 1794 007c 7B68     		ldr	r3, [r7, #4]
 1795 007e 0222     		movs	r2, #2
 1796 0080 83F84220 		strb	r2, [r3, #66]
 1797 0084 13E0     		b	.L97
 1798              	.L96:
 1799              		.loc 1 723 3 discriminator 2
 1800 0086 3B68     		ldr	r3, [r7]
 1801 0088 042B     		cmp	r3, #4
 1802 008a 04D1     		bne	.L98
 1803              		.loc 1 723 3 discriminator 3
 1804 008c 7B68     		ldr	r3, [r7, #4]
ARM GAS  /tmp//cc6kIlXX.s 			page 45


 1805 008e 0222     		movs	r2, #2
 1806 0090 83F84320 		strb	r2, [r3, #67]
 1807 0094 0BE0     		b	.L97
 1808              	.L98:
 1809              		.loc 1 723 3 discriminator 4
 1810 0096 3B68     		ldr	r3, [r7]
 1811 0098 082B     		cmp	r3, #8
 1812 009a 04D1     		bne	.L100
 1813              		.loc 1 723 3 discriminator 6
 1814 009c 7B68     		ldr	r3, [r7, #4]
 1815 009e 0222     		movs	r2, #2
 1816 00a0 83F84420 		strb	r2, [r3, #68]
 1817 00a4 03E0     		b	.L97
 1818              	.L100:
 1819              		.loc 1 723 3 discriminator 7
 1820 00a6 7B68     		ldr	r3, [r7, #4]
 1821 00a8 0222     		movs	r2, #2
 1822 00aa 83F84520 		strb	r2, [r3, #69]
 1823              	.L97:
 724:Drivers/STM32F1xx_HAL_Driver/Src/stm32f1xx_hal_tim_ex.c **** 
 725:Drivers/STM32F1xx_HAL_Driver/Src/stm32f1xx_hal_tim_ex.c ****   switch (Channel)
 1824              		.loc 1 725 3 is_stmt 1
 1825 00ae 3B68     		ldr	r3, [r7]
 1826 00b0 082B     		cmp	r3, #8
 1827 00b2 1BD0     		beq	.L102
 1828 00b4 3B68     		ldr	r3, [r7]
 1829 00b6 082B     		cmp	r3, #8
 1830 00b8 21D8     		bhi	.L103
 1831 00ba 3B68     		ldr	r3, [r7]
 1832 00bc 002B     		cmp	r3, #0
 1833 00be 03D0     		beq	.L104
 1834 00c0 3B68     		ldr	r3, [r7]
 1835 00c2 042B     		cmp	r3, #4
 1836 00c4 09D0     		beq	.L105
 1837 00c6 1AE0     		b	.L103
 1838              	.L104:
 726:Drivers/STM32F1xx_HAL_Driver/Src/stm32f1xx_hal_tim_ex.c ****   {
 727:Drivers/STM32F1xx_HAL_Driver/Src/stm32f1xx_hal_tim_ex.c ****     case TIM_CHANNEL_1:
 728:Drivers/STM32F1xx_HAL_Driver/Src/stm32f1xx_hal_tim_ex.c ****     {
 729:Drivers/STM32F1xx_HAL_Driver/Src/stm32f1xx_hal_tim_ex.c ****       /* Enable the TIM Output Compare interrupt */
 730:Drivers/STM32F1xx_HAL_Driver/Src/stm32f1xx_hal_tim_ex.c ****       __HAL_TIM_ENABLE_IT(htim, TIM_IT_CC1);
 1839              		.loc 1 730 7
 1840 00c8 7B68     		ldr	r3, [r7, #4]
 1841 00ca 1B68     		ldr	r3, [r3]
 1842 00cc DA68     		ldr	r2, [r3, #12]
 1843 00ce 7B68     		ldr	r3, [r7, #4]
 1844 00d0 1B68     		ldr	r3, [r3]
 1845 00d2 42F00202 		orr	r2, r2, #2
 1846 00d6 DA60     		str	r2, [r3, #12]
 731:Drivers/STM32F1xx_HAL_Driver/Src/stm32f1xx_hal_tim_ex.c ****       break;
 1847              		.loc 1 731 7
 1848 00d8 14E0     		b	.L106
 1849              	.L105:
 732:Drivers/STM32F1xx_HAL_Driver/Src/stm32f1xx_hal_tim_ex.c ****     }
 733:Drivers/STM32F1xx_HAL_Driver/Src/stm32f1xx_hal_tim_ex.c **** 
 734:Drivers/STM32F1xx_HAL_Driver/Src/stm32f1xx_hal_tim_ex.c ****     case TIM_CHANNEL_2:
 735:Drivers/STM32F1xx_HAL_Driver/Src/stm32f1xx_hal_tim_ex.c ****     {
ARM GAS  /tmp//cc6kIlXX.s 			page 46


 736:Drivers/STM32F1xx_HAL_Driver/Src/stm32f1xx_hal_tim_ex.c ****       /* Enable the TIM Output Compare interrupt */
 737:Drivers/STM32F1xx_HAL_Driver/Src/stm32f1xx_hal_tim_ex.c ****       __HAL_TIM_ENABLE_IT(htim, TIM_IT_CC2);
 1850              		.loc 1 737 7
 1851 00da 7B68     		ldr	r3, [r7, #4]
 1852 00dc 1B68     		ldr	r3, [r3]
 1853 00de DA68     		ldr	r2, [r3, #12]
 1854 00e0 7B68     		ldr	r3, [r7, #4]
 1855 00e2 1B68     		ldr	r3, [r3]
 1856 00e4 42F00402 		orr	r2, r2, #4
 1857 00e8 DA60     		str	r2, [r3, #12]
 738:Drivers/STM32F1xx_HAL_Driver/Src/stm32f1xx_hal_tim_ex.c ****       break;
 1858              		.loc 1 738 7
 1859 00ea 0BE0     		b	.L106
 1860              	.L102:
 739:Drivers/STM32F1xx_HAL_Driver/Src/stm32f1xx_hal_tim_ex.c ****     }
 740:Drivers/STM32F1xx_HAL_Driver/Src/stm32f1xx_hal_tim_ex.c **** 
 741:Drivers/STM32F1xx_HAL_Driver/Src/stm32f1xx_hal_tim_ex.c ****     case TIM_CHANNEL_3:
 742:Drivers/STM32F1xx_HAL_Driver/Src/stm32f1xx_hal_tim_ex.c ****     {
 743:Drivers/STM32F1xx_HAL_Driver/Src/stm32f1xx_hal_tim_ex.c ****       /* Enable the TIM Output Compare interrupt */
 744:Drivers/STM32F1xx_HAL_Driver/Src/stm32f1xx_hal_tim_ex.c ****       __HAL_TIM_ENABLE_IT(htim, TIM_IT_CC3);
 1861              		.loc 1 744 7
 1862 00ec 7B68     		ldr	r3, [r7, #4]
 1863 00ee 1B68     		ldr	r3, [r3]
 1864 00f0 DA68     		ldr	r2, [r3, #12]
 1865 00f2 7B68     		ldr	r3, [r7, #4]
 1866 00f4 1B68     		ldr	r3, [r3]
 1867 00f6 42F00802 		orr	r2, r2, #8
 1868 00fa DA60     		str	r2, [r3, #12]
 745:Drivers/STM32F1xx_HAL_Driver/Src/stm32f1xx_hal_tim_ex.c ****       break;
 1869              		.loc 1 745 7
 1870 00fc 02E0     		b	.L106
 1871              	.L103:
 746:Drivers/STM32F1xx_HAL_Driver/Src/stm32f1xx_hal_tim_ex.c ****     }
 747:Drivers/STM32F1xx_HAL_Driver/Src/stm32f1xx_hal_tim_ex.c **** 
 748:Drivers/STM32F1xx_HAL_Driver/Src/stm32f1xx_hal_tim_ex.c **** 
 749:Drivers/STM32F1xx_HAL_Driver/Src/stm32f1xx_hal_tim_ex.c ****     default:
 750:Drivers/STM32F1xx_HAL_Driver/Src/stm32f1xx_hal_tim_ex.c ****       status = HAL_ERROR;
 1872              		.loc 1 750 14
 1873 00fe 0123     		movs	r3, #1
 1874 0100 FB73     		strb	r3, [r7, #15]
 751:Drivers/STM32F1xx_HAL_Driver/Src/stm32f1xx_hal_tim_ex.c ****       break;
 1875              		.loc 1 751 7
 1876 0102 00BF     		nop
 1877              	.L106:
 752:Drivers/STM32F1xx_HAL_Driver/Src/stm32f1xx_hal_tim_ex.c ****   }
 753:Drivers/STM32F1xx_HAL_Driver/Src/stm32f1xx_hal_tim_ex.c **** 
 754:Drivers/STM32F1xx_HAL_Driver/Src/stm32f1xx_hal_tim_ex.c ****   if (status == HAL_OK)
 1878              		.loc 1 754 6
 1879 0104 FB7B     		ldrb	r3, [r7, #15]	@ zero_extendqisi2
 1880 0106 002B     		cmp	r3, #0
 1881 0108 4ED1     		bne	.L107
 755:Drivers/STM32F1xx_HAL_Driver/Src/stm32f1xx_hal_tim_ex.c ****   {
 756:Drivers/STM32F1xx_HAL_Driver/Src/stm32f1xx_hal_tim_ex.c ****     /* Enable the TIM Break interrupt */
 757:Drivers/STM32F1xx_HAL_Driver/Src/stm32f1xx_hal_tim_ex.c ****     __HAL_TIM_ENABLE_IT(htim, TIM_IT_BREAK);
 1882              		.loc 1 757 5
 1883 010a 7B68     		ldr	r3, [r7, #4]
 1884 010c 1B68     		ldr	r3, [r3]
ARM GAS  /tmp//cc6kIlXX.s 			page 47


 1885 010e DA68     		ldr	r2, [r3, #12]
 1886 0110 7B68     		ldr	r3, [r7, #4]
 1887 0112 1B68     		ldr	r3, [r3]
 1888 0114 42F08002 		orr	r2, r2, #128
 1889 0118 DA60     		str	r2, [r3, #12]
 758:Drivers/STM32F1xx_HAL_Driver/Src/stm32f1xx_hal_tim_ex.c **** 
 759:Drivers/STM32F1xx_HAL_Driver/Src/stm32f1xx_hal_tim_ex.c ****     /* Enable the Capture compare channel N */
 760:Drivers/STM32F1xx_HAL_Driver/Src/stm32f1xx_hal_tim_ex.c ****     TIM_CCxNChannelCmd(htim->Instance, Channel, TIM_CCxN_ENABLE);
 1890              		.loc 1 760 5
 1891 011a 7B68     		ldr	r3, [r7, #4]
 1892 011c 1B68     		ldr	r3, [r3]
 1893 011e 0422     		movs	r2, #4
 1894 0120 3968     		ldr	r1, [r7]
 1895 0122 1846     		mov	r0, r3
 1896 0124 FFF7FEFF 		bl	TIM_CCxNChannelCmd
 761:Drivers/STM32F1xx_HAL_Driver/Src/stm32f1xx_hal_tim_ex.c **** 
 762:Drivers/STM32F1xx_HAL_Driver/Src/stm32f1xx_hal_tim_ex.c ****     /* Enable the Main Output */
 763:Drivers/STM32F1xx_HAL_Driver/Src/stm32f1xx_hal_tim_ex.c ****     __HAL_TIM_MOE_ENABLE(htim);
 1897              		.loc 1 763 5
 1898 0128 7B68     		ldr	r3, [r7, #4]
 1899 012a 1B68     		ldr	r3, [r3]
 1900 012c 5A6C     		ldr	r2, [r3, #68]
 1901 012e 7B68     		ldr	r3, [r7, #4]
 1902 0130 1B68     		ldr	r3, [r3]
 1903 0132 42F40042 		orr	r2, r2, #32768
 1904 0136 5A64     		str	r2, [r3, #68]
 764:Drivers/STM32F1xx_HAL_Driver/Src/stm32f1xx_hal_tim_ex.c **** 
 765:Drivers/STM32F1xx_HAL_Driver/Src/stm32f1xx_hal_tim_ex.c ****     /* Enable the Peripheral, except in trigger mode where enable is automatically done with trigge
 766:Drivers/STM32F1xx_HAL_Driver/Src/stm32f1xx_hal_tim_ex.c ****     if (IS_TIM_SLAVE_INSTANCE(htim->Instance))
 1905              		.loc 1 766 9
 1906 0138 7B68     		ldr	r3, [r7, #4]
 1907 013a 1B68     		ldr	r3, [r3]
 1908              		.loc 1 766 8
 1909 013c 1D4A     		ldr	r2, .L111
 1910 013e 9342     		cmp	r3, r2
 1911 0140 18D0     		beq	.L108
 1912              		.loc 1 766 9 discriminator 1
 1913 0142 7B68     		ldr	r3, [r7, #4]
 1914 0144 1B68     		ldr	r3, [r3]
 1915 0146 1C4A     		ldr	r2, .L111+4
 1916 0148 9342     		cmp	r3, r2
 1917 014a 13D0     		beq	.L108
 1918              		.loc 1 766 9 is_stmt 0 discriminator 2
 1919 014c 7B68     		ldr	r3, [r7, #4]
 1920 014e 1B68     		ldr	r3, [r3]
 1921 0150 B3F1804F 		cmp	r3, #1073741824
 1922 0154 0ED0     		beq	.L108
 1923              		.loc 1 766 9 discriminator 3
 1924 0156 7B68     		ldr	r3, [r7, #4]
 1925 0158 1B68     		ldr	r3, [r3]
 1926 015a 184A     		ldr	r2, .L111+8
 1927 015c 9342     		cmp	r3, r2
 1928 015e 09D0     		beq	.L108
 1929              		.loc 1 766 9 discriminator 4
 1930 0160 7B68     		ldr	r3, [r7, #4]
 1931 0162 1B68     		ldr	r3, [r3]
 1932 0164 164A     		ldr	r2, .L111+12
ARM GAS  /tmp//cc6kIlXX.s 			page 48


 1933 0166 9342     		cmp	r3, r2
 1934 0168 04D0     		beq	.L108
 1935              		.loc 1 766 9 discriminator 5
 1936 016a 7B68     		ldr	r3, [r7, #4]
 1937 016c 1B68     		ldr	r3, [r3]
 1938 016e 154A     		ldr	r2, .L111+16
 1939 0170 9342     		cmp	r3, r2
 1940 0172 11D1     		bne	.L109
 1941              	.L108:
 767:Drivers/STM32F1xx_HAL_Driver/Src/stm32f1xx_hal_tim_ex.c ****     {
 768:Drivers/STM32F1xx_HAL_Driver/Src/stm32f1xx_hal_tim_ex.c ****       tmpsmcr = htim->Instance->SMCR & TIM_SMCR_SMS;
 1942              		.loc 1 768 21 is_stmt 1
 1943 0174 7B68     		ldr	r3, [r7, #4]
 1944 0176 1B68     		ldr	r3, [r3]
 1945              		.loc 1 768 31
 1946 0178 9B68     		ldr	r3, [r3, #8]
 1947              		.loc 1 768 15
 1948 017a 03F00703 		and	r3, r3, #7
 1949 017e BB60     		str	r3, [r7, #8]
 769:Drivers/STM32F1xx_HAL_Driver/Src/stm32f1xx_hal_tim_ex.c ****       if (!IS_TIM_SLAVEMODE_TRIGGER_ENABLED(tmpsmcr))
 1950              		.loc 1 769 10
 1951 0180 BB68     		ldr	r3, [r7, #8]
 1952 0182 062B     		cmp	r3, #6
 1953 0184 10D0     		beq	.L107
 770:Drivers/STM32F1xx_HAL_Driver/Src/stm32f1xx_hal_tim_ex.c ****       {
 771:Drivers/STM32F1xx_HAL_Driver/Src/stm32f1xx_hal_tim_ex.c ****         __HAL_TIM_ENABLE(htim);
 1954              		.loc 1 771 9
 1955 0186 7B68     		ldr	r3, [r7, #4]
 1956 0188 1B68     		ldr	r3, [r3]
 1957 018a 1A68     		ldr	r2, [r3]
 1958 018c 7B68     		ldr	r3, [r7, #4]
 1959 018e 1B68     		ldr	r3, [r3]
 1960 0190 42F00102 		orr	r2, r2, #1
 1961 0194 1A60     		str	r2, [r3]
 769:Drivers/STM32F1xx_HAL_Driver/Src/stm32f1xx_hal_tim_ex.c ****       if (!IS_TIM_SLAVEMODE_TRIGGER_ENABLED(tmpsmcr))
 1962              		.loc 1 769 10
 1963 0196 07E0     		b	.L107
 1964              	.L109:
 772:Drivers/STM32F1xx_HAL_Driver/Src/stm32f1xx_hal_tim_ex.c ****       }
 773:Drivers/STM32F1xx_HAL_Driver/Src/stm32f1xx_hal_tim_ex.c ****     }
 774:Drivers/STM32F1xx_HAL_Driver/Src/stm32f1xx_hal_tim_ex.c ****     else
 775:Drivers/STM32F1xx_HAL_Driver/Src/stm32f1xx_hal_tim_ex.c ****     {
 776:Drivers/STM32F1xx_HAL_Driver/Src/stm32f1xx_hal_tim_ex.c ****       __HAL_TIM_ENABLE(htim);
 1965              		.loc 1 776 7
 1966 0198 7B68     		ldr	r3, [r7, #4]
 1967 019a 1B68     		ldr	r3, [r3]
 1968 019c 1A68     		ldr	r2, [r3]
 1969 019e 7B68     		ldr	r3, [r7, #4]
 1970 01a0 1B68     		ldr	r3, [r3]
 1971 01a2 42F00102 		orr	r2, r2, #1
 1972 01a6 1A60     		str	r2, [r3]
 1973              	.L107:
 777:Drivers/STM32F1xx_HAL_Driver/Src/stm32f1xx_hal_tim_ex.c ****     }
 778:Drivers/STM32F1xx_HAL_Driver/Src/stm32f1xx_hal_tim_ex.c ****   }
 779:Drivers/STM32F1xx_HAL_Driver/Src/stm32f1xx_hal_tim_ex.c **** 
 780:Drivers/STM32F1xx_HAL_Driver/Src/stm32f1xx_hal_tim_ex.c ****   /* Return function status */
 781:Drivers/STM32F1xx_HAL_Driver/Src/stm32f1xx_hal_tim_ex.c ****   return status;
ARM GAS  /tmp//cc6kIlXX.s 			page 49


 1974              		.loc 1 781 10
 1975 01a8 FB7B     		ldrb	r3, [r7, #15]	@ zero_extendqisi2
 1976              	.L95:
 782:Drivers/STM32F1xx_HAL_Driver/Src/stm32f1xx_hal_tim_ex.c **** }
 1977              		.loc 1 782 1
 1978 01aa 1846     		mov	r0, r3
 1979 01ac 1037     		adds	r7, r7, #16
 1980              	.LCFI65:
 1981              		.cfi_def_cfa_offset 8
 1982 01ae BD46     		mov	sp, r7
 1983              	.LCFI66:
 1984              		.cfi_def_cfa_register 13
 1985              		@ sp needed
 1986 01b0 80BD     		pop	{r7, pc}
 1987              	.L112:
 1988 01b2 00BF     		.align	2
 1989              	.L111:
 1990 01b4 002C0140 		.word	1073818624
 1991 01b8 00340140 		.word	1073820672
 1992 01bc 00040040 		.word	1073742848
 1993 01c0 00080040 		.word	1073743872
 1994 01c4 000C0040 		.word	1073744896
 1995              		.cfi_endproc
 1996              	.LFE77:
 1998              		.section	.text.HAL_TIMEx_OCN_Stop_IT,"ax",%progbits
 1999              		.align	1
 2000              		.global	HAL_TIMEx_OCN_Stop_IT
 2001              		.syntax unified
 2002              		.thumb
 2003              		.thumb_func
 2005              	HAL_TIMEx_OCN_Stop_IT:
 2006              	.LFB78:
 783:Drivers/STM32F1xx_HAL_Driver/Src/stm32f1xx_hal_tim_ex.c **** 
 784:Drivers/STM32F1xx_HAL_Driver/Src/stm32f1xx_hal_tim_ex.c **** /**
 785:Drivers/STM32F1xx_HAL_Driver/Src/stm32f1xx_hal_tim_ex.c ****   * @brief  Stops the TIM Output Compare signal generation in interrupt mode
 786:Drivers/STM32F1xx_HAL_Driver/Src/stm32f1xx_hal_tim_ex.c ****   *         on the complementary output.
 787:Drivers/STM32F1xx_HAL_Driver/Src/stm32f1xx_hal_tim_ex.c ****   * @param  htim TIM Output Compare handle
 788:Drivers/STM32F1xx_HAL_Driver/Src/stm32f1xx_hal_tim_ex.c ****   * @param  Channel TIM Channel to be disabled
 789:Drivers/STM32F1xx_HAL_Driver/Src/stm32f1xx_hal_tim_ex.c ****   *          This parameter can be one of the following values:
 790:Drivers/STM32F1xx_HAL_Driver/Src/stm32f1xx_hal_tim_ex.c ****   *            @arg TIM_CHANNEL_1: TIM Channel 1 selected
 791:Drivers/STM32F1xx_HAL_Driver/Src/stm32f1xx_hal_tim_ex.c ****   *            @arg TIM_CHANNEL_2: TIM Channel 2 selected
 792:Drivers/STM32F1xx_HAL_Driver/Src/stm32f1xx_hal_tim_ex.c ****   *            @arg TIM_CHANNEL_3: TIM Channel 3 selected
 793:Drivers/STM32F1xx_HAL_Driver/Src/stm32f1xx_hal_tim_ex.c ****   * @retval HAL status
 794:Drivers/STM32F1xx_HAL_Driver/Src/stm32f1xx_hal_tim_ex.c ****   */
 795:Drivers/STM32F1xx_HAL_Driver/Src/stm32f1xx_hal_tim_ex.c **** HAL_StatusTypeDef HAL_TIMEx_OCN_Stop_IT(TIM_HandleTypeDef *htim, uint32_t Channel)
 796:Drivers/STM32F1xx_HAL_Driver/Src/stm32f1xx_hal_tim_ex.c **** {
 2007              		.loc 1 796 1
 2008              		.cfi_startproc
 2009              		@ args = 0, pretend = 0, frame = 16
 2010              		@ frame_needed = 1, uses_anonymous_args = 0
 2011 0000 80B5     		push	{r7, lr}
 2012              	.LCFI67:
 2013              		.cfi_def_cfa_offset 8
 2014              		.cfi_offset 7, -8
 2015              		.cfi_offset 14, -4
 2016 0002 84B0     		sub	sp, sp, #16
 2017              	.LCFI68:
ARM GAS  /tmp//cc6kIlXX.s 			page 50


 2018              		.cfi_def_cfa_offset 24
 2019 0004 00AF     		add	r7, sp, #0
 2020              	.LCFI69:
 2021              		.cfi_def_cfa_register 7
 2022 0006 7860     		str	r0, [r7, #4]
 2023 0008 3960     		str	r1, [r7]
 797:Drivers/STM32F1xx_HAL_Driver/Src/stm32f1xx_hal_tim_ex.c ****   HAL_StatusTypeDef status = HAL_OK;
 2024              		.loc 1 797 21
 2025 000a 0023     		movs	r3, #0
 2026 000c FB73     		strb	r3, [r7, #15]
 798:Drivers/STM32F1xx_HAL_Driver/Src/stm32f1xx_hal_tim_ex.c ****   uint32_t tmpccer;
 799:Drivers/STM32F1xx_HAL_Driver/Src/stm32f1xx_hal_tim_ex.c **** 
 800:Drivers/STM32F1xx_HAL_Driver/Src/stm32f1xx_hal_tim_ex.c ****   /* Check the parameters */
 801:Drivers/STM32F1xx_HAL_Driver/Src/stm32f1xx_hal_tim_ex.c ****   assert_param(IS_TIM_CCXN_INSTANCE(htim->Instance, Channel));
 802:Drivers/STM32F1xx_HAL_Driver/Src/stm32f1xx_hal_tim_ex.c **** 
 803:Drivers/STM32F1xx_HAL_Driver/Src/stm32f1xx_hal_tim_ex.c ****   switch (Channel)
 2027              		.loc 1 803 3
 2028 000e 3B68     		ldr	r3, [r7]
 2029 0010 082B     		cmp	r3, #8
 2030 0012 1BD0     		beq	.L114
 2031 0014 3B68     		ldr	r3, [r7]
 2032 0016 082B     		cmp	r3, #8
 2033 0018 21D8     		bhi	.L115
 2034 001a 3B68     		ldr	r3, [r7]
 2035 001c 002B     		cmp	r3, #0
 2036 001e 03D0     		beq	.L116
 2037 0020 3B68     		ldr	r3, [r7]
 2038 0022 042B     		cmp	r3, #4
 2039 0024 09D0     		beq	.L117
 2040 0026 1AE0     		b	.L115
 2041              	.L116:
 804:Drivers/STM32F1xx_HAL_Driver/Src/stm32f1xx_hal_tim_ex.c ****   {
 805:Drivers/STM32F1xx_HAL_Driver/Src/stm32f1xx_hal_tim_ex.c ****     case TIM_CHANNEL_1:
 806:Drivers/STM32F1xx_HAL_Driver/Src/stm32f1xx_hal_tim_ex.c ****     {
 807:Drivers/STM32F1xx_HAL_Driver/Src/stm32f1xx_hal_tim_ex.c ****       /* Disable the TIM Output Compare interrupt */
 808:Drivers/STM32F1xx_HAL_Driver/Src/stm32f1xx_hal_tim_ex.c ****       __HAL_TIM_DISABLE_IT(htim, TIM_IT_CC1);
 2042              		.loc 1 808 7
 2043 0028 7B68     		ldr	r3, [r7, #4]
 2044 002a 1B68     		ldr	r3, [r3]
 2045 002c DA68     		ldr	r2, [r3, #12]
 2046 002e 7B68     		ldr	r3, [r7, #4]
 2047 0030 1B68     		ldr	r3, [r3]
 2048 0032 22F00202 		bic	r2, r2, #2
 2049 0036 DA60     		str	r2, [r3, #12]
 809:Drivers/STM32F1xx_HAL_Driver/Src/stm32f1xx_hal_tim_ex.c ****       break;
 2050              		.loc 1 809 7
 2051 0038 14E0     		b	.L118
 2052              	.L117:
 810:Drivers/STM32F1xx_HAL_Driver/Src/stm32f1xx_hal_tim_ex.c ****     }
 811:Drivers/STM32F1xx_HAL_Driver/Src/stm32f1xx_hal_tim_ex.c **** 
 812:Drivers/STM32F1xx_HAL_Driver/Src/stm32f1xx_hal_tim_ex.c ****     case TIM_CHANNEL_2:
 813:Drivers/STM32F1xx_HAL_Driver/Src/stm32f1xx_hal_tim_ex.c ****     {
 814:Drivers/STM32F1xx_HAL_Driver/Src/stm32f1xx_hal_tim_ex.c ****       /* Disable the TIM Output Compare interrupt */
 815:Drivers/STM32F1xx_HAL_Driver/Src/stm32f1xx_hal_tim_ex.c ****       __HAL_TIM_DISABLE_IT(htim, TIM_IT_CC2);
 2053              		.loc 1 815 7
 2054 003a 7B68     		ldr	r3, [r7, #4]
 2055 003c 1B68     		ldr	r3, [r3]
ARM GAS  /tmp//cc6kIlXX.s 			page 51


 2056 003e DA68     		ldr	r2, [r3, #12]
 2057 0040 7B68     		ldr	r3, [r7, #4]
 2058 0042 1B68     		ldr	r3, [r3]
 2059 0044 22F00402 		bic	r2, r2, #4
 2060 0048 DA60     		str	r2, [r3, #12]
 816:Drivers/STM32F1xx_HAL_Driver/Src/stm32f1xx_hal_tim_ex.c ****       break;
 2061              		.loc 1 816 7
 2062 004a 0BE0     		b	.L118
 2063              	.L114:
 817:Drivers/STM32F1xx_HAL_Driver/Src/stm32f1xx_hal_tim_ex.c ****     }
 818:Drivers/STM32F1xx_HAL_Driver/Src/stm32f1xx_hal_tim_ex.c **** 
 819:Drivers/STM32F1xx_HAL_Driver/Src/stm32f1xx_hal_tim_ex.c ****     case TIM_CHANNEL_3:
 820:Drivers/STM32F1xx_HAL_Driver/Src/stm32f1xx_hal_tim_ex.c ****     {
 821:Drivers/STM32F1xx_HAL_Driver/Src/stm32f1xx_hal_tim_ex.c ****       /* Disable the TIM Output Compare interrupt */
 822:Drivers/STM32F1xx_HAL_Driver/Src/stm32f1xx_hal_tim_ex.c ****       __HAL_TIM_DISABLE_IT(htim, TIM_IT_CC3);
 2064              		.loc 1 822 7
 2065 004c 7B68     		ldr	r3, [r7, #4]
 2066 004e 1B68     		ldr	r3, [r3]
 2067 0050 DA68     		ldr	r2, [r3, #12]
 2068 0052 7B68     		ldr	r3, [r7, #4]
 2069 0054 1B68     		ldr	r3, [r3]
 2070 0056 22F00802 		bic	r2, r2, #8
 2071 005a DA60     		str	r2, [r3, #12]
 823:Drivers/STM32F1xx_HAL_Driver/Src/stm32f1xx_hal_tim_ex.c ****       break;
 2072              		.loc 1 823 7
 2073 005c 02E0     		b	.L118
 2074              	.L115:
 824:Drivers/STM32F1xx_HAL_Driver/Src/stm32f1xx_hal_tim_ex.c ****     }
 825:Drivers/STM32F1xx_HAL_Driver/Src/stm32f1xx_hal_tim_ex.c **** 
 826:Drivers/STM32F1xx_HAL_Driver/Src/stm32f1xx_hal_tim_ex.c ****     default:
 827:Drivers/STM32F1xx_HAL_Driver/Src/stm32f1xx_hal_tim_ex.c ****       status = HAL_ERROR;
 2075              		.loc 1 827 14
 2076 005e 0123     		movs	r3, #1
 2077 0060 FB73     		strb	r3, [r7, #15]
 828:Drivers/STM32F1xx_HAL_Driver/Src/stm32f1xx_hal_tim_ex.c ****       break;
 2078              		.loc 1 828 7
 2079 0062 00BF     		nop
 2080              	.L118:
 829:Drivers/STM32F1xx_HAL_Driver/Src/stm32f1xx_hal_tim_ex.c ****   }
 830:Drivers/STM32F1xx_HAL_Driver/Src/stm32f1xx_hal_tim_ex.c **** 
 831:Drivers/STM32F1xx_HAL_Driver/Src/stm32f1xx_hal_tim_ex.c ****   if (status == HAL_OK)
 2081              		.loc 1 831 6
 2082 0064 FB7B     		ldrb	r3, [r7, #15]	@ zero_extendqisi2
 2083 0066 002B     		cmp	r3, #0
 2084 0068 64D1     		bne	.L119
 832:Drivers/STM32F1xx_HAL_Driver/Src/stm32f1xx_hal_tim_ex.c ****   {
 833:Drivers/STM32F1xx_HAL_Driver/Src/stm32f1xx_hal_tim_ex.c ****     /* Disable the Capture compare channel N */
 834:Drivers/STM32F1xx_HAL_Driver/Src/stm32f1xx_hal_tim_ex.c ****     TIM_CCxNChannelCmd(htim->Instance, Channel, TIM_CCxN_DISABLE);
 2085              		.loc 1 834 5
 2086 006a 7B68     		ldr	r3, [r7, #4]
 2087 006c 1B68     		ldr	r3, [r3]
 2088 006e 0022     		movs	r2, #0
 2089 0070 3968     		ldr	r1, [r7]
 2090 0072 1846     		mov	r0, r3
 2091 0074 FFF7FEFF 		bl	TIM_CCxNChannelCmd
 835:Drivers/STM32F1xx_HAL_Driver/Src/stm32f1xx_hal_tim_ex.c **** 
 836:Drivers/STM32F1xx_HAL_Driver/Src/stm32f1xx_hal_tim_ex.c ****     /* Disable the TIM Break interrupt (only if no more channel is active) */
ARM GAS  /tmp//cc6kIlXX.s 			page 52


 837:Drivers/STM32F1xx_HAL_Driver/Src/stm32f1xx_hal_tim_ex.c ****     tmpccer = htim->Instance->CCER;
 2092              		.loc 1 837 19
 2093 0078 7B68     		ldr	r3, [r7, #4]
 2094 007a 1B68     		ldr	r3, [r3]
 2095              		.loc 1 837 13
 2096 007c 1B6A     		ldr	r3, [r3, #32]
 2097 007e BB60     		str	r3, [r7, #8]
 838:Drivers/STM32F1xx_HAL_Driver/Src/stm32f1xx_hal_tim_ex.c ****     if ((tmpccer & TIM_CCER_CCxNE_MASK) == (uint32_t)RESET)
 2098              		.loc 1 838 18
 2099 0080 BA68     		ldr	r2, [r7, #8]
 2100 0082 40F24443 		movw	r3, #1092
 2101 0086 1340     		ands	r3, r3, r2
 2102              		.loc 1 838 8
 2103 0088 002B     		cmp	r3, #0
 2104 008a 07D1     		bne	.L120
 839:Drivers/STM32F1xx_HAL_Driver/Src/stm32f1xx_hal_tim_ex.c ****     {
 840:Drivers/STM32F1xx_HAL_Driver/Src/stm32f1xx_hal_tim_ex.c ****       __HAL_TIM_DISABLE_IT(htim, TIM_IT_BREAK);
 2105              		.loc 1 840 7
 2106 008c 7B68     		ldr	r3, [r7, #4]
 2107 008e 1B68     		ldr	r3, [r3]
 2108 0090 DA68     		ldr	r2, [r3, #12]
 2109 0092 7B68     		ldr	r3, [r7, #4]
 2110 0094 1B68     		ldr	r3, [r3]
 2111 0096 22F08002 		bic	r2, r2, #128
 2112 009a DA60     		str	r2, [r3, #12]
 2113              	.L120:
 841:Drivers/STM32F1xx_HAL_Driver/Src/stm32f1xx_hal_tim_ex.c ****     }
 842:Drivers/STM32F1xx_HAL_Driver/Src/stm32f1xx_hal_tim_ex.c **** 
 843:Drivers/STM32F1xx_HAL_Driver/Src/stm32f1xx_hal_tim_ex.c ****     /* Disable the Main Output */
 844:Drivers/STM32F1xx_HAL_Driver/Src/stm32f1xx_hal_tim_ex.c ****     __HAL_TIM_MOE_DISABLE(htim);
 2114              		.loc 1 844 5
 2115 009c 7B68     		ldr	r3, [r7, #4]
 2116 009e 1B68     		ldr	r3, [r3]
 2117 00a0 1A6A     		ldr	r2, [r3, #32]
 2118 00a2 41F21113 		movw	r3, #4369
 2119 00a6 1340     		ands	r3, r3, r2
 2120 00a8 002B     		cmp	r3, #0
 2121 00aa 0FD1     		bne	.L121
 2122              		.loc 1 844 5 is_stmt 0 discriminator 1
 2123 00ac 7B68     		ldr	r3, [r7, #4]
 2124 00ae 1B68     		ldr	r3, [r3]
 2125 00b0 1A6A     		ldr	r2, [r3, #32]
 2126 00b2 40F24443 		movw	r3, #1092
 2127 00b6 1340     		ands	r3, r3, r2
 2128 00b8 002B     		cmp	r3, #0
 2129 00ba 07D1     		bne	.L121
 2130              		.loc 1 844 5 discriminator 2
 2131 00bc 7B68     		ldr	r3, [r7, #4]
 2132 00be 1B68     		ldr	r3, [r3]
 2133 00c0 5A6C     		ldr	r2, [r3, #68]
 2134 00c2 7B68     		ldr	r3, [r7, #4]
 2135 00c4 1B68     		ldr	r3, [r3]
 2136 00c6 22F40042 		bic	r2, r2, #32768
 2137 00ca 5A64     		str	r2, [r3, #68]
 2138              	.L121:
 845:Drivers/STM32F1xx_HAL_Driver/Src/stm32f1xx_hal_tim_ex.c **** 
 846:Drivers/STM32F1xx_HAL_Driver/Src/stm32f1xx_hal_tim_ex.c ****     /* Disable the Peripheral */
ARM GAS  /tmp//cc6kIlXX.s 			page 53


 847:Drivers/STM32F1xx_HAL_Driver/Src/stm32f1xx_hal_tim_ex.c ****     __HAL_TIM_DISABLE(htim);
 2139              		.loc 1 847 5 is_stmt 1
 2140 00cc 7B68     		ldr	r3, [r7, #4]
 2141 00ce 1B68     		ldr	r3, [r3]
 2142 00d0 1A6A     		ldr	r2, [r3, #32]
 2143 00d2 41F21113 		movw	r3, #4369
 2144 00d6 1340     		ands	r3, r3, r2
 2145 00d8 002B     		cmp	r3, #0
 2146 00da 0FD1     		bne	.L122
 2147              		.loc 1 847 5 is_stmt 0 discriminator 1
 2148 00dc 7B68     		ldr	r3, [r7, #4]
 2149 00de 1B68     		ldr	r3, [r3]
 2150 00e0 1A6A     		ldr	r2, [r3, #32]
 2151 00e2 40F24443 		movw	r3, #1092
 2152 00e6 1340     		ands	r3, r3, r2
 2153 00e8 002B     		cmp	r3, #0
 2154 00ea 07D1     		bne	.L122
 2155              		.loc 1 847 5 discriminator 2
 2156 00ec 7B68     		ldr	r3, [r7, #4]
 2157 00ee 1B68     		ldr	r3, [r3]
 2158 00f0 1A68     		ldr	r2, [r3]
 2159 00f2 7B68     		ldr	r3, [r7, #4]
 2160 00f4 1B68     		ldr	r3, [r3]
 2161 00f6 22F00102 		bic	r2, r2, #1
 2162 00fa 1A60     		str	r2, [r3]
 2163              	.L122:
 848:Drivers/STM32F1xx_HAL_Driver/Src/stm32f1xx_hal_tim_ex.c **** 
 849:Drivers/STM32F1xx_HAL_Driver/Src/stm32f1xx_hal_tim_ex.c ****     /* Set the TIM complementary channel state */
 850:Drivers/STM32F1xx_HAL_Driver/Src/stm32f1xx_hal_tim_ex.c ****     TIM_CHANNEL_N_STATE_SET(htim, Channel, HAL_TIM_CHANNEL_STATE_READY);
 2164              		.loc 1 850 5 is_stmt 1
 2165 00fc 3B68     		ldr	r3, [r7]
 2166 00fe 002B     		cmp	r3, #0
 2167 0100 04D1     		bne	.L123
 2168              		.loc 1 850 5 is_stmt 0 discriminator 1
 2169 0102 7B68     		ldr	r3, [r7, #4]
 2170 0104 0122     		movs	r2, #1
 2171 0106 83F84220 		strb	r2, [r3, #66]
 2172 010a 13E0     		b	.L119
 2173              	.L123:
 2174              		.loc 1 850 5 discriminator 2
 2175 010c 3B68     		ldr	r3, [r7]
 2176 010e 042B     		cmp	r3, #4
 2177 0110 04D1     		bne	.L124
 2178              		.loc 1 850 5 discriminator 3
 2179 0112 7B68     		ldr	r3, [r7, #4]
 2180 0114 0122     		movs	r2, #1
 2181 0116 83F84320 		strb	r2, [r3, #67]
 2182 011a 0BE0     		b	.L119
 2183              	.L124:
 2184              		.loc 1 850 5 discriminator 4
 2185 011c 3B68     		ldr	r3, [r7]
 2186 011e 082B     		cmp	r3, #8
 2187 0120 04D1     		bne	.L126
 2188              		.loc 1 850 5 discriminator 6
 2189 0122 7B68     		ldr	r3, [r7, #4]
 2190 0124 0122     		movs	r2, #1
 2191 0126 83F84420 		strb	r2, [r3, #68]
ARM GAS  /tmp//cc6kIlXX.s 			page 54


 2192 012a 03E0     		b	.L119
 2193              	.L126:
 2194              		.loc 1 850 5 discriminator 7
 2195 012c 7B68     		ldr	r3, [r7, #4]
 2196 012e 0122     		movs	r2, #1
 2197 0130 83F84520 		strb	r2, [r3, #69]
 2198              	.L119:
 851:Drivers/STM32F1xx_HAL_Driver/Src/stm32f1xx_hal_tim_ex.c ****   }
 852:Drivers/STM32F1xx_HAL_Driver/Src/stm32f1xx_hal_tim_ex.c **** 
 853:Drivers/STM32F1xx_HAL_Driver/Src/stm32f1xx_hal_tim_ex.c ****   /* Return function status */
 854:Drivers/STM32F1xx_HAL_Driver/Src/stm32f1xx_hal_tim_ex.c ****   return status;
 2199              		.loc 1 854 10 is_stmt 1
 2200 0134 FB7B     		ldrb	r3, [r7, #15]	@ zero_extendqisi2
 855:Drivers/STM32F1xx_HAL_Driver/Src/stm32f1xx_hal_tim_ex.c **** }
 2201              		.loc 1 855 1
 2202 0136 1846     		mov	r0, r3
 2203 0138 1037     		adds	r7, r7, #16
 2204              	.LCFI70:
 2205              		.cfi_def_cfa_offset 8
 2206 013a BD46     		mov	sp, r7
 2207              	.LCFI71:
 2208              		.cfi_def_cfa_register 13
 2209              		@ sp needed
 2210 013c 80BD     		pop	{r7, pc}
 2211              		.cfi_endproc
 2212              	.LFE78:
 2214              		.section	.text.HAL_TIMEx_OCN_Start_DMA,"ax",%progbits
 2215              		.align	1
 2216              		.global	HAL_TIMEx_OCN_Start_DMA
 2217              		.syntax unified
 2218              		.thumb
 2219              		.thumb_func
 2221              	HAL_TIMEx_OCN_Start_DMA:
 2222              	.LFB79:
 856:Drivers/STM32F1xx_HAL_Driver/Src/stm32f1xx_hal_tim_ex.c **** 
 857:Drivers/STM32F1xx_HAL_Driver/Src/stm32f1xx_hal_tim_ex.c **** /**
 858:Drivers/STM32F1xx_HAL_Driver/Src/stm32f1xx_hal_tim_ex.c ****   * @brief  Starts the TIM Output Compare signal generation in DMA mode
 859:Drivers/STM32F1xx_HAL_Driver/Src/stm32f1xx_hal_tim_ex.c ****   *         on the complementary output.
 860:Drivers/STM32F1xx_HAL_Driver/Src/stm32f1xx_hal_tim_ex.c ****   * @param  htim TIM Output Compare handle
 861:Drivers/STM32F1xx_HAL_Driver/Src/stm32f1xx_hal_tim_ex.c ****   * @param  Channel TIM Channel to be enabled
 862:Drivers/STM32F1xx_HAL_Driver/Src/stm32f1xx_hal_tim_ex.c ****   *          This parameter can be one of the following values:
 863:Drivers/STM32F1xx_HAL_Driver/Src/stm32f1xx_hal_tim_ex.c ****   *            @arg TIM_CHANNEL_1: TIM Channel 1 selected
 864:Drivers/STM32F1xx_HAL_Driver/Src/stm32f1xx_hal_tim_ex.c ****   *            @arg TIM_CHANNEL_2: TIM Channel 2 selected
 865:Drivers/STM32F1xx_HAL_Driver/Src/stm32f1xx_hal_tim_ex.c ****   *            @arg TIM_CHANNEL_3: TIM Channel 3 selected
 866:Drivers/STM32F1xx_HAL_Driver/Src/stm32f1xx_hal_tim_ex.c ****   * @param  pData The source Buffer address.
 867:Drivers/STM32F1xx_HAL_Driver/Src/stm32f1xx_hal_tim_ex.c ****   * @param  Length The length of data to be transferred from memory to TIM peripheral
 868:Drivers/STM32F1xx_HAL_Driver/Src/stm32f1xx_hal_tim_ex.c ****   * @retval HAL status
 869:Drivers/STM32F1xx_HAL_Driver/Src/stm32f1xx_hal_tim_ex.c ****   */
 870:Drivers/STM32F1xx_HAL_Driver/Src/stm32f1xx_hal_tim_ex.c **** HAL_StatusTypeDef HAL_TIMEx_OCN_Start_DMA(TIM_HandleTypeDef *htim, uint32_t Channel, const uint32_t
 871:Drivers/STM32F1xx_HAL_Driver/Src/stm32f1xx_hal_tim_ex.c ****                                           uint16_t Length)
 872:Drivers/STM32F1xx_HAL_Driver/Src/stm32f1xx_hal_tim_ex.c **** {
 2223              		.loc 1 872 1
 2224              		.cfi_startproc
 2225              		@ args = 0, pretend = 0, frame = 24
 2226              		@ frame_needed = 1, uses_anonymous_args = 0
 2227 0000 80B5     		push	{r7, lr}
 2228              	.LCFI72:
ARM GAS  /tmp//cc6kIlXX.s 			page 55


 2229              		.cfi_def_cfa_offset 8
 2230              		.cfi_offset 7, -8
 2231              		.cfi_offset 14, -4
 2232 0002 86B0     		sub	sp, sp, #24
 2233              	.LCFI73:
 2234              		.cfi_def_cfa_offset 32
 2235 0004 00AF     		add	r7, sp, #0
 2236              	.LCFI74:
 2237              		.cfi_def_cfa_register 7
 2238 0006 F860     		str	r0, [r7, #12]
 2239 0008 B960     		str	r1, [r7, #8]
 2240 000a 7A60     		str	r2, [r7, #4]
 2241 000c 7B80     		strh	r3, [r7, #2]	@ movhi
 873:Drivers/STM32F1xx_HAL_Driver/Src/stm32f1xx_hal_tim_ex.c ****   HAL_StatusTypeDef status = HAL_OK;
 2242              		.loc 1 873 21
 2243 000e 0023     		movs	r3, #0
 2244 0010 FB75     		strb	r3, [r7, #23]
 874:Drivers/STM32F1xx_HAL_Driver/Src/stm32f1xx_hal_tim_ex.c ****   uint32_t tmpsmcr;
 875:Drivers/STM32F1xx_HAL_Driver/Src/stm32f1xx_hal_tim_ex.c **** 
 876:Drivers/STM32F1xx_HAL_Driver/Src/stm32f1xx_hal_tim_ex.c ****   /* Check the parameters */
 877:Drivers/STM32F1xx_HAL_Driver/Src/stm32f1xx_hal_tim_ex.c ****   assert_param(IS_TIM_CCXN_INSTANCE(htim->Instance, Channel));
 878:Drivers/STM32F1xx_HAL_Driver/Src/stm32f1xx_hal_tim_ex.c **** 
 879:Drivers/STM32F1xx_HAL_Driver/Src/stm32f1xx_hal_tim_ex.c ****   /* Set the TIM complementary channel state */
 880:Drivers/STM32F1xx_HAL_Driver/Src/stm32f1xx_hal_tim_ex.c ****   if (TIM_CHANNEL_N_STATE_GET(htim, Channel) == HAL_TIM_CHANNEL_STATE_BUSY)
 2245              		.loc 1 880 46
 2246 0012 BB68     		ldr	r3, [r7, #8]
 2247 0014 002B     		cmp	r3, #0
 2248 0016 09D1     		bne	.L130
 2249              		.loc 1 880 7 discriminator 1
 2250 0018 FB68     		ldr	r3, [r7, #12]
 2251 001a 93F84230 		ldrb	r3, [r3, #66]
 2252 001e DBB2     		uxtb	r3, r3
 2253              		.loc 1 880 46 discriminator 1
 2254 0020 022B     		cmp	r3, #2
 2255 0022 0CBF     		ite	eq
 2256 0024 0123     		moveq	r3, #1
 2257 0026 0023     		movne	r3, #0
 2258 0028 DBB2     		uxtb	r3, r3
 2259 002a 22E0     		b	.L131
 2260              	.L130:
 2261              		.loc 1 880 46 is_stmt 0 discriminator 2
 2262 002c BB68     		ldr	r3, [r7, #8]
 2263 002e 042B     		cmp	r3, #4
 2264 0030 09D1     		bne	.L132
 2265              		.loc 1 880 7 is_stmt 1 discriminator 4
 2266 0032 FB68     		ldr	r3, [r7, #12]
 2267 0034 93F84330 		ldrb	r3, [r3, #67]
 2268 0038 DBB2     		uxtb	r3, r3
 2269              		.loc 1 880 46 discriminator 4
 2270 003a 022B     		cmp	r3, #2
 2271 003c 0CBF     		ite	eq
 2272 003e 0123     		moveq	r3, #1
 2273 0040 0023     		movne	r3, #0
 2274 0042 DBB2     		uxtb	r3, r3
 2275 0044 15E0     		b	.L131
 2276              	.L132:
 2277              		.loc 1 880 46 is_stmt 0 discriminator 5
ARM GAS  /tmp//cc6kIlXX.s 			page 56


 2278 0046 BB68     		ldr	r3, [r7, #8]
 2279 0048 082B     		cmp	r3, #8
 2280 004a 09D1     		bne	.L134
 2281              		.loc 1 880 7 is_stmt 1 discriminator 7
 2282 004c FB68     		ldr	r3, [r7, #12]
 2283 004e 93F84430 		ldrb	r3, [r3, #68]
 2284 0052 DBB2     		uxtb	r3, r3
 2285              		.loc 1 880 46 discriminator 7
 2286 0054 022B     		cmp	r3, #2
 2287 0056 0CBF     		ite	eq
 2288 0058 0123     		moveq	r3, #1
 2289 005a 0023     		movne	r3, #0
 2290 005c DBB2     		uxtb	r3, r3
 2291 005e 08E0     		b	.L131
 2292              	.L134:
 2293              		.loc 1 880 7 discriminator 8
 2294 0060 FB68     		ldr	r3, [r7, #12]
 2295 0062 93F84530 		ldrb	r3, [r3, #69]
 2296 0066 DBB2     		uxtb	r3, r3
 2297              		.loc 1 880 46 discriminator 8
 2298 0068 022B     		cmp	r3, #2
 2299 006a 0CBF     		ite	eq
 2300 006c 0123     		moveq	r3, #1
 2301 006e 0023     		movne	r3, #0
 2302 0070 DBB2     		uxtb	r3, r3
 2303              	.L131:
 2304              		.loc 1 880 6 discriminator 12
 2305 0072 002B     		cmp	r3, #0
 2306 0074 01D0     		beq	.L136
 881:Drivers/STM32F1xx_HAL_Driver/Src/stm32f1xx_hal_tim_ex.c ****   {
 882:Drivers/STM32F1xx_HAL_Driver/Src/stm32f1xx_hal_tim_ex.c ****     return HAL_BUSY;
 2307              		.loc 1 882 12
 2308 0076 0223     		movs	r3, #2
 2309 0078 1FE1     		b	.L137
 2310              	.L136:
 883:Drivers/STM32F1xx_HAL_Driver/Src/stm32f1xx_hal_tim_ex.c ****   }
 884:Drivers/STM32F1xx_HAL_Driver/Src/stm32f1xx_hal_tim_ex.c ****   else if (TIM_CHANNEL_N_STATE_GET(htim, Channel) == HAL_TIM_CHANNEL_STATE_READY)
 2311              		.loc 1 884 51
 2312 007a BB68     		ldr	r3, [r7, #8]
 2313 007c 002B     		cmp	r3, #0
 2314 007e 09D1     		bne	.L138
 2315              		.loc 1 884 12 discriminator 1
 2316 0080 FB68     		ldr	r3, [r7, #12]
 2317 0082 93F84230 		ldrb	r3, [r3, #66]
 2318 0086 DBB2     		uxtb	r3, r3
 2319              		.loc 1 884 51 discriminator 1
 2320 0088 012B     		cmp	r3, #1
 2321 008a 0CBF     		ite	eq
 2322 008c 0123     		moveq	r3, #1
 2323 008e 0023     		movne	r3, #0
 2324 0090 DBB2     		uxtb	r3, r3
 2325 0092 22E0     		b	.L139
 2326              	.L138:
 2327              		.loc 1 884 51 is_stmt 0 discriminator 2
 2328 0094 BB68     		ldr	r3, [r7, #8]
 2329 0096 042B     		cmp	r3, #4
 2330 0098 09D1     		bne	.L140
ARM GAS  /tmp//cc6kIlXX.s 			page 57


 2331              		.loc 1 884 12 is_stmt 1 discriminator 4
 2332 009a FB68     		ldr	r3, [r7, #12]
 2333 009c 93F84330 		ldrb	r3, [r3, #67]
 2334 00a0 DBB2     		uxtb	r3, r3
 2335              		.loc 1 884 51 discriminator 4
 2336 00a2 012B     		cmp	r3, #1
 2337 00a4 0CBF     		ite	eq
 2338 00a6 0123     		moveq	r3, #1
 2339 00a8 0023     		movne	r3, #0
 2340 00aa DBB2     		uxtb	r3, r3
 2341 00ac 15E0     		b	.L139
 2342              	.L140:
 2343              		.loc 1 884 51 is_stmt 0 discriminator 5
 2344 00ae BB68     		ldr	r3, [r7, #8]
 2345 00b0 082B     		cmp	r3, #8
 2346 00b2 09D1     		bne	.L142
 2347              		.loc 1 884 12 is_stmt 1 discriminator 7
 2348 00b4 FB68     		ldr	r3, [r7, #12]
 2349 00b6 93F84430 		ldrb	r3, [r3, #68]
 2350 00ba DBB2     		uxtb	r3, r3
 2351              		.loc 1 884 51 discriminator 7
 2352 00bc 012B     		cmp	r3, #1
 2353 00be 0CBF     		ite	eq
 2354 00c0 0123     		moveq	r3, #1
 2355 00c2 0023     		movne	r3, #0
 2356 00c4 DBB2     		uxtb	r3, r3
 2357 00c6 08E0     		b	.L139
 2358              	.L142:
 2359              		.loc 1 884 12 discriminator 8
 2360 00c8 FB68     		ldr	r3, [r7, #12]
 2361 00ca 93F84530 		ldrb	r3, [r3, #69]
 2362 00ce DBB2     		uxtb	r3, r3
 2363              		.loc 1 884 51 discriminator 8
 2364 00d0 012B     		cmp	r3, #1
 2365 00d2 0CBF     		ite	eq
 2366 00d4 0123     		moveq	r3, #1
 2367 00d6 0023     		movne	r3, #0
 2368 00d8 DBB2     		uxtb	r3, r3
 2369              	.L139:
 2370              		.loc 1 884 11 discriminator 12
 2371 00da 002B     		cmp	r3, #0
 2372 00dc 24D0     		beq	.L144
 885:Drivers/STM32F1xx_HAL_Driver/Src/stm32f1xx_hal_tim_ex.c ****   {
 886:Drivers/STM32F1xx_HAL_Driver/Src/stm32f1xx_hal_tim_ex.c ****     if ((pData == NULL) || (Length == 0U))
 2373              		.loc 1 886 8
 2374 00de 7B68     		ldr	r3, [r7, #4]
 2375 00e0 002B     		cmp	r3, #0
 2376 00e2 02D0     		beq	.L145
 2377              		.loc 1 886 25 discriminator 1
 2378 00e4 7B88     		ldrh	r3, [r7, #2]
 2379 00e6 002B     		cmp	r3, #0
 2380 00e8 01D1     		bne	.L146
 2381              	.L145:
 887:Drivers/STM32F1xx_HAL_Driver/Src/stm32f1xx_hal_tim_ex.c ****     {
 888:Drivers/STM32F1xx_HAL_Driver/Src/stm32f1xx_hal_tim_ex.c ****       return HAL_ERROR;
 2382              		.loc 1 888 14
 2383 00ea 0123     		movs	r3, #1
ARM GAS  /tmp//cc6kIlXX.s 			page 58


 2384 00ec E5E0     		b	.L137
 2385              	.L146:
 889:Drivers/STM32F1xx_HAL_Driver/Src/stm32f1xx_hal_tim_ex.c ****     }
 890:Drivers/STM32F1xx_HAL_Driver/Src/stm32f1xx_hal_tim_ex.c ****     else
 891:Drivers/STM32F1xx_HAL_Driver/Src/stm32f1xx_hal_tim_ex.c ****     {
 892:Drivers/STM32F1xx_HAL_Driver/Src/stm32f1xx_hal_tim_ex.c ****       TIM_CHANNEL_N_STATE_SET(htim, Channel, HAL_TIM_CHANNEL_STATE_BUSY);
 2386              		.loc 1 892 7
 2387 00ee BB68     		ldr	r3, [r7, #8]
 2388 00f0 002B     		cmp	r3, #0
 2389 00f2 04D1     		bne	.L147
 2390              		.loc 1 892 7 is_stmt 0 discriminator 1
 2391 00f4 FB68     		ldr	r3, [r7, #12]
 2392 00f6 0222     		movs	r2, #2
 2393 00f8 83F84220 		strb	r2, [r3, #66]
 2394 00fc 16E0     		b	.L148
 2395              	.L147:
 2396              		.loc 1 892 7 discriminator 2
 2397 00fe BB68     		ldr	r3, [r7, #8]
 2398 0100 042B     		cmp	r3, #4
 2399 0102 04D1     		bne	.L149
 2400              		.loc 1 892 7 discriminator 3
 2401 0104 FB68     		ldr	r3, [r7, #12]
 2402 0106 0222     		movs	r2, #2
 2403 0108 83F84320 		strb	r2, [r3, #67]
 2404              		.loc 1 892 7 discriminator 10
 2405 010c 0EE0     		b	.L148
 2406              	.L149:
 2407              		.loc 1 892 7 discriminator 4
 2408 010e BB68     		ldr	r3, [r7, #8]
 2409 0110 082B     		cmp	r3, #8
 2410 0112 04D1     		bne	.L151
 2411              		.loc 1 892 7 discriminator 6
 2412 0114 FB68     		ldr	r3, [r7, #12]
 2413 0116 0222     		movs	r2, #2
 2414 0118 83F84420 		strb	r2, [r3, #68]
 2415              		.loc 1 892 7 discriminator 10
 2416 011c 06E0     		b	.L148
 2417              	.L151:
 2418              		.loc 1 892 7 discriminator 7
 2419 011e FB68     		ldr	r3, [r7, #12]
 2420 0120 0222     		movs	r2, #2
 2421 0122 83F84520 		strb	r2, [r3, #69]
 2422 0126 01E0     		b	.L148
 2423              	.L144:
 893:Drivers/STM32F1xx_HAL_Driver/Src/stm32f1xx_hal_tim_ex.c ****     }
 894:Drivers/STM32F1xx_HAL_Driver/Src/stm32f1xx_hal_tim_ex.c ****   }
 895:Drivers/STM32F1xx_HAL_Driver/Src/stm32f1xx_hal_tim_ex.c ****   else
 896:Drivers/STM32F1xx_HAL_Driver/Src/stm32f1xx_hal_tim_ex.c ****   {
 897:Drivers/STM32F1xx_HAL_Driver/Src/stm32f1xx_hal_tim_ex.c ****     return HAL_ERROR;
 2424              		.loc 1 897 12 is_stmt 1
 2425 0128 0123     		movs	r3, #1
 2426 012a C6E0     		b	.L137
 2427              	.L148:
 898:Drivers/STM32F1xx_HAL_Driver/Src/stm32f1xx_hal_tim_ex.c ****   }
 899:Drivers/STM32F1xx_HAL_Driver/Src/stm32f1xx_hal_tim_ex.c **** 
 900:Drivers/STM32F1xx_HAL_Driver/Src/stm32f1xx_hal_tim_ex.c ****   switch (Channel)
 2428              		.loc 1 900 3
ARM GAS  /tmp//cc6kIlXX.s 			page 59


 2429 012c BB68     		ldr	r3, [r7, #8]
 2430 012e 082B     		cmp	r3, #8
 2431 0130 51D0     		beq	.L153
 2432 0132 BB68     		ldr	r3, [r7, #8]
 2433 0134 082B     		cmp	r3, #8
 2434 0136 72D8     		bhi	.L154
 2435 0138 BB68     		ldr	r3, [r7, #8]
 2436 013a 002B     		cmp	r3, #0
 2437 013c 03D0     		beq	.L155
 2438 013e BB68     		ldr	r3, [r7, #8]
 2439 0140 042B     		cmp	r3, #4
 2440 0142 24D0     		beq	.L156
 2441 0144 6BE0     		b	.L154
 2442              	.L155:
 901:Drivers/STM32F1xx_HAL_Driver/Src/stm32f1xx_hal_tim_ex.c ****   {
 902:Drivers/STM32F1xx_HAL_Driver/Src/stm32f1xx_hal_tim_ex.c ****     case TIM_CHANNEL_1:
 903:Drivers/STM32F1xx_HAL_Driver/Src/stm32f1xx_hal_tim_ex.c ****     {
 904:Drivers/STM32F1xx_HAL_Driver/Src/stm32f1xx_hal_tim_ex.c ****       /* Set the DMA compare callbacks */
 905:Drivers/STM32F1xx_HAL_Driver/Src/stm32f1xx_hal_tim_ex.c ****       htim->hdma[TIM_DMA_ID_CC1]->XferCpltCallback = TIM_DMADelayPulseNCplt;
 2443              		.loc 1 905 17
 2444 0146 FB68     		ldr	r3, [r7, #12]
 2445 0148 5B6A     		ldr	r3, [r3, #36]
 2446              		.loc 1 905 52
 2447 014a 5E4A     		ldr	r2, .L165
 2448 014c 9A62     		str	r2, [r3, #40]
 906:Drivers/STM32F1xx_HAL_Driver/Src/stm32f1xx_hal_tim_ex.c ****       htim->hdma[TIM_DMA_ID_CC1]->XferHalfCpltCallback = TIM_DMADelayPulseHalfCplt;
 2449              		.loc 1 906 17
 2450 014e FB68     		ldr	r3, [r7, #12]
 2451 0150 5B6A     		ldr	r3, [r3, #36]
 2452              		.loc 1 906 56
 2453 0152 5D4A     		ldr	r2, .L165+4
 2454 0154 DA62     		str	r2, [r3, #44]
 907:Drivers/STM32F1xx_HAL_Driver/Src/stm32f1xx_hal_tim_ex.c **** 
 908:Drivers/STM32F1xx_HAL_Driver/Src/stm32f1xx_hal_tim_ex.c ****       /* Set the DMA error callback */
 909:Drivers/STM32F1xx_HAL_Driver/Src/stm32f1xx_hal_tim_ex.c ****       htim->hdma[TIM_DMA_ID_CC1]->XferErrorCallback = TIM_DMAErrorCCxN ;
 2455              		.loc 1 909 17
 2456 0156 FB68     		ldr	r3, [r7, #12]
 2457 0158 5B6A     		ldr	r3, [r3, #36]
 2458              		.loc 1 909 53
 2459 015a 5C4A     		ldr	r2, .L165+8
 2460 015c 1A63     		str	r2, [r3, #48]
 910:Drivers/STM32F1xx_HAL_Driver/Src/stm32f1xx_hal_tim_ex.c **** 
 911:Drivers/STM32F1xx_HAL_Driver/Src/stm32f1xx_hal_tim_ex.c ****       /* Enable the DMA channel */
 912:Drivers/STM32F1xx_HAL_Driver/Src/stm32f1xx_hal_tim_ex.c ****       if (HAL_DMA_Start_IT(htim->hdma[TIM_DMA_ID_CC1], (uint32_t)pData, (uint32_t)&htim->Instance->
 2461              		.loc 1 912 11
 2462 015e FB68     		ldr	r3, [r7, #12]
 2463 0160 586A     		ldr	r0, [r3, #36]
 2464 0162 7968     		ldr	r1, [r7, #4]
 2465              		.loc 1 912 88
 2466 0164 FB68     		ldr	r3, [r7, #12]
 2467 0166 1B68     		ldr	r3, [r3]
 2468              		.loc 1 912 83
 2469 0168 3433     		adds	r3, r3, #52
 2470              		.loc 1 912 11
 2471 016a 1A46     		mov	r2, r3
 2472 016c 7B88     		ldrh	r3, [r7, #2]
 2473 016e FFF7FEFF 		bl	HAL_DMA_Start_IT
ARM GAS  /tmp//cc6kIlXX.s 			page 60


 2474 0172 0346     		mov	r3, r0
 2475              		.loc 1 912 10 discriminator 1
 2476 0174 002B     		cmp	r3, #0
 2477 0176 01D0     		beq	.L157
 913:Drivers/STM32F1xx_HAL_Driver/Src/stm32f1xx_hal_tim_ex.c ****                            Length) != HAL_OK)
 914:Drivers/STM32F1xx_HAL_Driver/Src/stm32f1xx_hal_tim_ex.c ****       {
 915:Drivers/STM32F1xx_HAL_Driver/Src/stm32f1xx_hal_tim_ex.c ****         /* Return error status */
 916:Drivers/STM32F1xx_HAL_Driver/Src/stm32f1xx_hal_tim_ex.c ****         return HAL_ERROR;
 2478              		.loc 1 916 16
 2479 0178 0123     		movs	r3, #1
 2480 017a 9EE0     		b	.L137
 2481              	.L157:
 917:Drivers/STM32F1xx_HAL_Driver/Src/stm32f1xx_hal_tim_ex.c ****       }
 918:Drivers/STM32F1xx_HAL_Driver/Src/stm32f1xx_hal_tim_ex.c ****       /* Enable the TIM Output Compare DMA request */
 919:Drivers/STM32F1xx_HAL_Driver/Src/stm32f1xx_hal_tim_ex.c ****       __HAL_TIM_ENABLE_DMA(htim, TIM_DMA_CC1);
 2482              		.loc 1 919 7
 2483 017c FB68     		ldr	r3, [r7, #12]
 2484 017e 1B68     		ldr	r3, [r3]
 2485 0180 DA68     		ldr	r2, [r3, #12]
 2486 0182 FB68     		ldr	r3, [r7, #12]
 2487 0184 1B68     		ldr	r3, [r3]
 2488 0186 42F40072 		orr	r2, r2, #512
 2489 018a DA60     		str	r2, [r3, #12]
 920:Drivers/STM32F1xx_HAL_Driver/Src/stm32f1xx_hal_tim_ex.c ****       break;
 2490              		.loc 1 920 7
 2491 018c 4AE0     		b	.L158
 2492              	.L156:
 921:Drivers/STM32F1xx_HAL_Driver/Src/stm32f1xx_hal_tim_ex.c ****     }
 922:Drivers/STM32F1xx_HAL_Driver/Src/stm32f1xx_hal_tim_ex.c **** 
 923:Drivers/STM32F1xx_HAL_Driver/Src/stm32f1xx_hal_tim_ex.c ****     case TIM_CHANNEL_2:
 924:Drivers/STM32F1xx_HAL_Driver/Src/stm32f1xx_hal_tim_ex.c ****     {
 925:Drivers/STM32F1xx_HAL_Driver/Src/stm32f1xx_hal_tim_ex.c ****       /* Set the DMA compare callbacks */
 926:Drivers/STM32F1xx_HAL_Driver/Src/stm32f1xx_hal_tim_ex.c ****       htim->hdma[TIM_DMA_ID_CC2]->XferCpltCallback = TIM_DMADelayPulseNCplt;
 2493              		.loc 1 926 17
 2494 018e FB68     		ldr	r3, [r7, #12]
 2495 0190 9B6A     		ldr	r3, [r3, #40]
 2496              		.loc 1 926 52
 2497 0192 4C4A     		ldr	r2, .L165
 2498 0194 9A62     		str	r2, [r3, #40]
 927:Drivers/STM32F1xx_HAL_Driver/Src/stm32f1xx_hal_tim_ex.c ****       htim->hdma[TIM_DMA_ID_CC2]->XferHalfCpltCallback = TIM_DMADelayPulseHalfCplt;
 2499              		.loc 1 927 17
 2500 0196 FB68     		ldr	r3, [r7, #12]
 2501 0198 9B6A     		ldr	r3, [r3, #40]
 2502              		.loc 1 927 56
 2503 019a 4B4A     		ldr	r2, .L165+4
 2504 019c DA62     		str	r2, [r3, #44]
 928:Drivers/STM32F1xx_HAL_Driver/Src/stm32f1xx_hal_tim_ex.c **** 
 929:Drivers/STM32F1xx_HAL_Driver/Src/stm32f1xx_hal_tim_ex.c ****       /* Set the DMA error callback */
 930:Drivers/STM32F1xx_HAL_Driver/Src/stm32f1xx_hal_tim_ex.c ****       htim->hdma[TIM_DMA_ID_CC2]->XferErrorCallback = TIM_DMAErrorCCxN ;
 2505              		.loc 1 930 17
 2506 019e FB68     		ldr	r3, [r7, #12]
 2507 01a0 9B6A     		ldr	r3, [r3, #40]
 2508              		.loc 1 930 53
 2509 01a2 4A4A     		ldr	r2, .L165+8
 2510 01a4 1A63     		str	r2, [r3, #48]
 931:Drivers/STM32F1xx_HAL_Driver/Src/stm32f1xx_hal_tim_ex.c **** 
 932:Drivers/STM32F1xx_HAL_Driver/Src/stm32f1xx_hal_tim_ex.c ****       /* Enable the DMA channel */
ARM GAS  /tmp//cc6kIlXX.s 			page 61


 933:Drivers/STM32F1xx_HAL_Driver/Src/stm32f1xx_hal_tim_ex.c ****       if (HAL_DMA_Start_IT(htim->hdma[TIM_DMA_ID_CC2], (uint32_t)pData, (uint32_t)&htim->Instance->
 2511              		.loc 1 933 11
 2512 01a6 FB68     		ldr	r3, [r7, #12]
 2513 01a8 986A     		ldr	r0, [r3, #40]
 2514 01aa 7968     		ldr	r1, [r7, #4]
 2515              		.loc 1 933 88
 2516 01ac FB68     		ldr	r3, [r7, #12]
 2517 01ae 1B68     		ldr	r3, [r3]
 2518              		.loc 1 933 83
 2519 01b0 3833     		adds	r3, r3, #56
 2520              		.loc 1 933 11
 2521 01b2 1A46     		mov	r2, r3
 2522 01b4 7B88     		ldrh	r3, [r7, #2]
 2523 01b6 FFF7FEFF 		bl	HAL_DMA_Start_IT
 2524 01ba 0346     		mov	r3, r0
 2525              		.loc 1 933 10 discriminator 1
 2526 01bc 002B     		cmp	r3, #0
 2527 01be 01D0     		beq	.L159
 934:Drivers/STM32F1xx_HAL_Driver/Src/stm32f1xx_hal_tim_ex.c ****                            Length) != HAL_OK)
 935:Drivers/STM32F1xx_HAL_Driver/Src/stm32f1xx_hal_tim_ex.c ****       {
 936:Drivers/STM32F1xx_HAL_Driver/Src/stm32f1xx_hal_tim_ex.c ****         /* Return error status */
 937:Drivers/STM32F1xx_HAL_Driver/Src/stm32f1xx_hal_tim_ex.c ****         return HAL_ERROR;
 2528              		.loc 1 937 16
 2529 01c0 0123     		movs	r3, #1
 2530 01c2 7AE0     		b	.L137
 2531              	.L159:
 938:Drivers/STM32F1xx_HAL_Driver/Src/stm32f1xx_hal_tim_ex.c ****       }
 939:Drivers/STM32F1xx_HAL_Driver/Src/stm32f1xx_hal_tim_ex.c ****       /* Enable the TIM Output Compare DMA request */
 940:Drivers/STM32F1xx_HAL_Driver/Src/stm32f1xx_hal_tim_ex.c ****       __HAL_TIM_ENABLE_DMA(htim, TIM_DMA_CC2);
 2532              		.loc 1 940 7
 2533 01c4 FB68     		ldr	r3, [r7, #12]
 2534 01c6 1B68     		ldr	r3, [r3]
 2535 01c8 DA68     		ldr	r2, [r3, #12]
 2536 01ca FB68     		ldr	r3, [r7, #12]
 2537 01cc 1B68     		ldr	r3, [r3]
 2538 01ce 42F48062 		orr	r2, r2, #1024
 2539 01d2 DA60     		str	r2, [r3, #12]
 941:Drivers/STM32F1xx_HAL_Driver/Src/stm32f1xx_hal_tim_ex.c ****       break;
 2540              		.loc 1 941 7
 2541 01d4 26E0     		b	.L158
 2542              	.L153:
 942:Drivers/STM32F1xx_HAL_Driver/Src/stm32f1xx_hal_tim_ex.c ****     }
 943:Drivers/STM32F1xx_HAL_Driver/Src/stm32f1xx_hal_tim_ex.c **** 
 944:Drivers/STM32F1xx_HAL_Driver/Src/stm32f1xx_hal_tim_ex.c ****     case TIM_CHANNEL_3:
 945:Drivers/STM32F1xx_HAL_Driver/Src/stm32f1xx_hal_tim_ex.c ****     {
 946:Drivers/STM32F1xx_HAL_Driver/Src/stm32f1xx_hal_tim_ex.c ****       /* Set the DMA compare callbacks */
 947:Drivers/STM32F1xx_HAL_Driver/Src/stm32f1xx_hal_tim_ex.c ****       htim->hdma[TIM_DMA_ID_CC3]->XferCpltCallback = TIM_DMADelayPulseNCplt;
 2543              		.loc 1 947 17
 2544 01d6 FB68     		ldr	r3, [r7, #12]
 2545 01d8 DB6A     		ldr	r3, [r3, #44]
 2546              		.loc 1 947 52
 2547 01da 3A4A     		ldr	r2, .L165
 2548 01dc 9A62     		str	r2, [r3, #40]
 948:Drivers/STM32F1xx_HAL_Driver/Src/stm32f1xx_hal_tim_ex.c ****       htim->hdma[TIM_DMA_ID_CC3]->XferHalfCpltCallback = TIM_DMADelayPulseHalfCplt;
 2549              		.loc 1 948 17
 2550 01de FB68     		ldr	r3, [r7, #12]
 2551 01e0 DB6A     		ldr	r3, [r3, #44]
ARM GAS  /tmp//cc6kIlXX.s 			page 62


 2552              		.loc 1 948 56
 2553 01e2 394A     		ldr	r2, .L165+4
 2554 01e4 DA62     		str	r2, [r3, #44]
 949:Drivers/STM32F1xx_HAL_Driver/Src/stm32f1xx_hal_tim_ex.c **** 
 950:Drivers/STM32F1xx_HAL_Driver/Src/stm32f1xx_hal_tim_ex.c ****       /* Set the DMA error callback */
 951:Drivers/STM32F1xx_HAL_Driver/Src/stm32f1xx_hal_tim_ex.c ****       htim->hdma[TIM_DMA_ID_CC3]->XferErrorCallback = TIM_DMAErrorCCxN ;
 2555              		.loc 1 951 17
 2556 01e6 FB68     		ldr	r3, [r7, #12]
 2557 01e8 DB6A     		ldr	r3, [r3, #44]
 2558              		.loc 1 951 53
 2559 01ea 384A     		ldr	r2, .L165+8
 2560 01ec 1A63     		str	r2, [r3, #48]
 952:Drivers/STM32F1xx_HAL_Driver/Src/stm32f1xx_hal_tim_ex.c **** 
 953:Drivers/STM32F1xx_HAL_Driver/Src/stm32f1xx_hal_tim_ex.c ****       /* Enable the DMA channel */
 954:Drivers/STM32F1xx_HAL_Driver/Src/stm32f1xx_hal_tim_ex.c ****       if (HAL_DMA_Start_IT(htim->hdma[TIM_DMA_ID_CC3], (uint32_t)pData, (uint32_t)&htim->Instance->
 2561              		.loc 1 954 11
 2562 01ee FB68     		ldr	r3, [r7, #12]
 2563 01f0 D86A     		ldr	r0, [r3, #44]
 2564 01f2 7968     		ldr	r1, [r7, #4]
 2565              		.loc 1 954 88
 2566 01f4 FB68     		ldr	r3, [r7, #12]
 2567 01f6 1B68     		ldr	r3, [r3]
 2568              		.loc 1 954 83
 2569 01f8 3C33     		adds	r3, r3, #60
 2570              		.loc 1 954 11
 2571 01fa 1A46     		mov	r2, r3
 2572 01fc 7B88     		ldrh	r3, [r7, #2]
 2573 01fe FFF7FEFF 		bl	HAL_DMA_Start_IT
 2574 0202 0346     		mov	r3, r0
 2575              		.loc 1 954 10 discriminator 1
 2576 0204 002B     		cmp	r3, #0
 2577 0206 01D0     		beq	.L160
 955:Drivers/STM32F1xx_HAL_Driver/Src/stm32f1xx_hal_tim_ex.c ****                            Length) != HAL_OK)
 956:Drivers/STM32F1xx_HAL_Driver/Src/stm32f1xx_hal_tim_ex.c ****       {
 957:Drivers/STM32F1xx_HAL_Driver/Src/stm32f1xx_hal_tim_ex.c ****         /* Return error status */
 958:Drivers/STM32F1xx_HAL_Driver/Src/stm32f1xx_hal_tim_ex.c ****         return HAL_ERROR;
 2578              		.loc 1 958 16
 2579 0208 0123     		movs	r3, #1
 2580 020a 56E0     		b	.L137
 2581              	.L160:
 959:Drivers/STM32F1xx_HAL_Driver/Src/stm32f1xx_hal_tim_ex.c ****       }
 960:Drivers/STM32F1xx_HAL_Driver/Src/stm32f1xx_hal_tim_ex.c ****       /* Enable the TIM Output Compare DMA request */
 961:Drivers/STM32F1xx_HAL_Driver/Src/stm32f1xx_hal_tim_ex.c ****       __HAL_TIM_ENABLE_DMA(htim, TIM_DMA_CC3);
 2582              		.loc 1 961 7
 2583 020c FB68     		ldr	r3, [r7, #12]
 2584 020e 1B68     		ldr	r3, [r3]
 2585 0210 DA68     		ldr	r2, [r3, #12]
 2586 0212 FB68     		ldr	r3, [r7, #12]
 2587 0214 1B68     		ldr	r3, [r3]
 2588 0216 42F40062 		orr	r2, r2, #2048
 2589 021a DA60     		str	r2, [r3, #12]
 962:Drivers/STM32F1xx_HAL_Driver/Src/stm32f1xx_hal_tim_ex.c ****       break;
 2590              		.loc 1 962 7
 2591 021c 02E0     		b	.L158
 2592              	.L154:
 963:Drivers/STM32F1xx_HAL_Driver/Src/stm32f1xx_hal_tim_ex.c ****     }
 964:Drivers/STM32F1xx_HAL_Driver/Src/stm32f1xx_hal_tim_ex.c **** 
ARM GAS  /tmp//cc6kIlXX.s 			page 63


 965:Drivers/STM32F1xx_HAL_Driver/Src/stm32f1xx_hal_tim_ex.c ****     default:
 966:Drivers/STM32F1xx_HAL_Driver/Src/stm32f1xx_hal_tim_ex.c ****       status = HAL_ERROR;
 2593              		.loc 1 966 14
 2594 021e 0123     		movs	r3, #1
 2595 0220 FB75     		strb	r3, [r7, #23]
 967:Drivers/STM32F1xx_HAL_Driver/Src/stm32f1xx_hal_tim_ex.c ****       break;
 2596              		.loc 1 967 7
 2597 0222 00BF     		nop
 2598              	.L158:
 968:Drivers/STM32F1xx_HAL_Driver/Src/stm32f1xx_hal_tim_ex.c ****   }
 969:Drivers/STM32F1xx_HAL_Driver/Src/stm32f1xx_hal_tim_ex.c **** 
 970:Drivers/STM32F1xx_HAL_Driver/Src/stm32f1xx_hal_tim_ex.c ****   if (status == HAL_OK)
 2599              		.loc 1 970 6
 2600 0224 FB7D     		ldrb	r3, [r7, #23]	@ zero_extendqisi2
 2601 0226 002B     		cmp	r3, #0
 2602 0228 46D1     		bne	.L161
 971:Drivers/STM32F1xx_HAL_Driver/Src/stm32f1xx_hal_tim_ex.c ****   {
 972:Drivers/STM32F1xx_HAL_Driver/Src/stm32f1xx_hal_tim_ex.c ****     /* Enable the Capture compare channel N */
 973:Drivers/STM32F1xx_HAL_Driver/Src/stm32f1xx_hal_tim_ex.c ****     TIM_CCxNChannelCmd(htim->Instance, Channel, TIM_CCxN_ENABLE);
 2603              		.loc 1 973 5
 2604 022a FB68     		ldr	r3, [r7, #12]
 2605 022c 1B68     		ldr	r3, [r3]
 2606 022e 0422     		movs	r2, #4
 2607 0230 B968     		ldr	r1, [r7, #8]
 2608 0232 1846     		mov	r0, r3
 2609 0234 FFF7FEFF 		bl	TIM_CCxNChannelCmd
 974:Drivers/STM32F1xx_HAL_Driver/Src/stm32f1xx_hal_tim_ex.c **** 
 975:Drivers/STM32F1xx_HAL_Driver/Src/stm32f1xx_hal_tim_ex.c ****     /* Enable the Main Output */
 976:Drivers/STM32F1xx_HAL_Driver/Src/stm32f1xx_hal_tim_ex.c ****     __HAL_TIM_MOE_ENABLE(htim);
 2610              		.loc 1 976 5
 2611 0238 FB68     		ldr	r3, [r7, #12]
 2612 023a 1B68     		ldr	r3, [r3]
 2613 023c 5A6C     		ldr	r2, [r3, #68]
 2614 023e FB68     		ldr	r3, [r7, #12]
 2615 0240 1B68     		ldr	r3, [r3]
 2616 0242 42F40042 		orr	r2, r2, #32768
 2617 0246 5A64     		str	r2, [r3, #68]
 977:Drivers/STM32F1xx_HAL_Driver/Src/stm32f1xx_hal_tim_ex.c **** 
 978:Drivers/STM32F1xx_HAL_Driver/Src/stm32f1xx_hal_tim_ex.c ****     /* Enable the Peripheral, except in trigger mode where enable is automatically done with trigge
 979:Drivers/STM32F1xx_HAL_Driver/Src/stm32f1xx_hal_tim_ex.c ****     if (IS_TIM_SLAVE_INSTANCE(htim->Instance))
 2618              		.loc 1 979 9
 2619 0248 FB68     		ldr	r3, [r7, #12]
 2620 024a 1B68     		ldr	r3, [r3]
 2621              		.loc 1 979 8
 2622 024c 204A     		ldr	r2, .L165+12
 2623 024e 9342     		cmp	r3, r2
 2624 0250 18D0     		beq	.L162
 2625              		.loc 1 979 9 discriminator 1
 2626 0252 FB68     		ldr	r3, [r7, #12]
 2627 0254 1B68     		ldr	r3, [r3]
 2628 0256 1F4A     		ldr	r2, .L165+16
 2629 0258 9342     		cmp	r3, r2
 2630 025a 13D0     		beq	.L162
 2631              		.loc 1 979 9 is_stmt 0 discriminator 2
 2632 025c FB68     		ldr	r3, [r7, #12]
 2633 025e 1B68     		ldr	r3, [r3]
 2634 0260 B3F1804F 		cmp	r3, #1073741824
ARM GAS  /tmp//cc6kIlXX.s 			page 64


 2635 0264 0ED0     		beq	.L162
 2636              		.loc 1 979 9 discriminator 3
 2637 0266 FB68     		ldr	r3, [r7, #12]
 2638 0268 1B68     		ldr	r3, [r3]
 2639 026a 1B4A     		ldr	r2, .L165+20
 2640 026c 9342     		cmp	r3, r2
 2641 026e 09D0     		beq	.L162
 2642              		.loc 1 979 9 discriminator 4
 2643 0270 FB68     		ldr	r3, [r7, #12]
 2644 0272 1B68     		ldr	r3, [r3]
 2645 0274 194A     		ldr	r2, .L165+24
 2646 0276 9342     		cmp	r3, r2
 2647 0278 04D0     		beq	.L162
 2648              		.loc 1 979 9 discriminator 5
 2649 027a FB68     		ldr	r3, [r7, #12]
 2650 027c 1B68     		ldr	r3, [r3]
 2651 027e 184A     		ldr	r2, .L165+28
 2652 0280 9342     		cmp	r3, r2
 2653 0282 11D1     		bne	.L163
 2654              	.L162:
 980:Drivers/STM32F1xx_HAL_Driver/Src/stm32f1xx_hal_tim_ex.c ****     {
 981:Drivers/STM32F1xx_HAL_Driver/Src/stm32f1xx_hal_tim_ex.c ****       tmpsmcr = htim->Instance->SMCR & TIM_SMCR_SMS;
 2655              		.loc 1 981 21 is_stmt 1
 2656 0284 FB68     		ldr	r3, [r7, #12]
 2657 0286 1B68     		ldr	r3, [r3]
 2658              		.loc 1 981 31
 2659 0288 9B68     		ldr	r3, [r3, #8]
 2660              		.loc 1 981 15
 2661 028a 03F00703 		and	r3, r3, #7
 2662 028e 3B61     		str	r3, [r7, #16]
 982:Drivers/STM32F1xx_HAL_Driver/Src/stm32f1xx_hal_tim_ex.c ****       if (!IS_TIM_SLAVEMODE_TRIGGER_ENABLED(tmpsmcr))
 2663              		.loc 1 982 10
 2664 0290 3B69     		ldr	r3, [r7, #16]
 2665 0292 062B     		cmp	r3, #6
 2666 0294 10D0     		beq	.L161
 983:Drivers/STM32F1xx_HAL_Driver/Src/stm32f1xx_hal_tim_ex.c ****       {
 984:Drivers/STM32F1xx_HAL_Driver/Src/stm32f1xx_hal_tim_ex.c ****         __HAL_TIM_ENABLE(htim);
 2667              		.loc 1 984 9
 2668 0296 FB68     		ldr	r3, [r7, #12]
 2669 0298 1B68     		ldr	r3, [r3]
 2670 029a 1A68     		ldr	r2, [r3]
 2671 029c FB68     		ldr	r3, [r7, #12]
 2672 029e 1B68     		ldr	r3, [r3]
 2673 02a0 42F00102 		orr	r2, r2, #1
 2674 02a4 1A60     		str	r2, [r3]
 982:Drivers/STM32F1xx_HAL_Driver/Src/stm32f1xx_hal_tim_ex.c ****       if (!IS_TIM_SLAVEMODE_TRIGGER_ENABLED(tmpsmcr))
 2675              		.loc 1 982 10
 2676 02a6 07E0     		b	.L161
 2677              	.L163:
 985:Drivers/STM32F1xx_HAL_Driver/Src/stm32f1xx_hal_tim_ex.c ****       }
 986:Drivers/STM32F1xx_HAL_Driver/Src/stm32f1xx_hal_tim_ex.c ****     }
 987:Drivers/STM32F1xx_HAL_Driver/Src/stm32f1xx_hal_tim_ex.c ****     else
 988:Drivers/STM32F1xx_HAL_Driver/Src/stm32f1xx_hal_tim_ex.c ****     {
 989:Drivers/STM32F1xx_HAL_Driver/Src/stm32f1xx_hal_tim_ex.c ****       __HAL_TIM_ENABLE(htim);
 2678              		.loc 1 989 7
 2679 02a8 FB68     		ldr	r3, [r7, #12]
 2680 02aa 1B68     		ldr	r3, [r3]
ARM GAS  /tmp//cc6kIlXX.s 			page 65


 2681 02ac 1A68     		ldr	r2, [r3]
 2682 02ae FB68     		ldr	r3, [r7, #12]
 2683 02b0 1B68     		ldr	r3, [r3]
 2684 02b2 42F00102 		orr	r2, r2, #1
 2685 02b6 1A60     		str	r2, [r3]
 2686              	.L161:
 990:Drivers/STM32F1xx_HAL_Driver/Src/stm32f1xx_hal_tim_ex.c ****     }
 991:Drivers/STM32F1xx_HAL_Driver/Src/stm32f1xx_hal_tim_ex.c ****   }
 992:Drivers/STM32F1xx_HAL_Driver/Src/stm32f1xx_hal_tim_ex.c **** 
 993:Drivers/STM32F1xx_HAL_Driver/Src/stm32f1xx_hal_tim_ex.c ****   /* Return function status */
 994:Drivers/STM32F1xx_HAL_Driver/Src/stm32f1xx_hal_tim_ex.c ****   return status;
 2687              		.loc 1 994 10
 2688 02b8 FB7D     		ldrb	r3, [r7, #23]	@ zero_extendqisi2
 2689              	.L137:
 995:Drivers/STM32F1xx_HAL_Driver/Src/stm32f1xx_hal_tim_ex.c **** }
 2690              		.loc 1 995 1
 2691 02ba 1846     		mov	r0, r3
 2692 02bc 1837     		adds	r7, r7, #24
 2693              	.LCFI75:
 2694              		.cfi_def_cfa_offset 8
 2695 02be BD46     		mov	sp, r7
 2696              	.LCFI76:
 2697              		.cfi_def_cfa_register 13
 2698              		@ sp needed
 2699 02c0 80BD     		pop	{r7, pc}
 2700              	.L166:
 2701 02c2 00BF     		.align	2
 2702              	.L165:
 2703 02c4 00000000 		.word	TIM_DMADelayPulseNCplt
 2704 02c8 00000000 		.word	TIM_DMADelayPulseHalfCplt
 2705 02cc 00000000 		.word	TIM_DMAErrorCCxN
 2706 02d0 002C0140 		.word	1073818624
 2707 02d4 00340140 		.word	1073820672
 2708 02d8 00040040 		.word	1073742848
 2709 02dc 00080040 		.word	1073743872
 2710 02e0 000C0040 		.word	1073744896
 2711              		.cfi_endproc
 2712              	.LFE79:
 2714              		.section	.text.HAL_TIMEx_OCN_Stop_DMA,"ax",%progbits
 2715              		.align	1
 2716              		.global	HAL_TIMEx_OCN_Stop_DMA
 2717              		.syntax unified
 2718              		.thumb
 2719              		.thumb_func
 2721              	HAL_TIMEx_OCN_Stop_DMA:
 2722              	.LFB80:
 996:Drivers/STM32F1xx_HAL_Driver/Src/stm32f1xx_hal_tim_ex.c **** 
 997:Drivers/STM32F1xx_HAL_Driver/Src/stm32f1xx_hal_tim_ex.c **** /**
 998:Drivers/STM32F1xx_HAL_Driver/Src/stm32f1xx_hal_tim_ex.c ****   * @brief  Stops the TIM Output Compare signal generation in DMA mode
 999:Drivers/STM32F1xx_HAL_Driver/Src/stm32f1xx_hal_tim_ex.c ****   *         on the complementary output.
1000:Drivers/STM32F1xx_HAL_Driver/Src/stm32f1xx_hal_tim_ex.c ****   * @param  htim TIM Output Compare handle
1001:Drivers/STM32F1xx_HAL_Driver/Src/stm32f1xx_hal_tim_ex.c ****   * @param  Channel TIM Channel to be disabled
1002:Drivers/STM32F1xx_HAL_Driver/Src/stm32f1xx_hal_tim_ex.c ****   *          This parameter can be one of the following values:
1003:Drivers/STM32F1xx_HAL_Driver/Src/stm32f1xx_hal_tim_ex.c ****   *            @arg TIM_CHANNEL_1: TIM Channel 1 selected
1004:Drivers/STM32F1xx_HAL_Driver/Src/stm32f1xx_hal_tim_ex.c ****   *            @arg TIM_CHANNEL_2: TIM Channel 2 selected
1005:Drivers/STM32F1xx_HAL_Driver/Src/stm32f1xx_hal_tim_ex.c ****   *            @arg TIM_CHANNEL_3: TIM Channel 3 selected
1006:Drivers/STM32F1xx_HAL_Driver/Src/stm32f1xx_hal_tim_ex.c ****   * @retval HAL status
ARM GAS  /tmp//cc6kIlXX.s 			page 66


1007:Drivers/STM32F1xx_HAL_Driver/Src/stm32f1xx_hal_tim_ex.c ****   */
1008:Drivers/STM32F1xx_HAL_Driver/Src/stm32f1xx_hal_tim_ex.c **** HAL_StatusTypeDef HAL_TIMEx_OCN_Stop_DMA(TIM_HandleTypeDef *htim, uint32_t Channel)
1009:Drivers/STM32F1xx_HAL_Driver/Src/stm32f1xx_hal_tim_ex.c **** {
 2723              		.loc 1 1009 1
 2724              		.cfi_startproc
 2725              		@ args = 0, pretend = 0, frame = 16
 2726              		@ frame_needed = 1, uses_anonymous_args = 0
 2727 0000 80B5     		push	{r7, lr}
 2728              	.LCFI77:
 2729              		.cfi_def_cfa_offset 8
 2730              		.cfi_offset 7, -8
 2731              		.cfi_offset 14, -4
 2732 0002 84B0     		sub	sp, sp, #16
 2733              	.LCFI78:
 2734              		.cfi_def_cfa_offset 24
 2735 0004 00AF     		add	r7, sp, #0
 2736              	.LCFI79:
 2737              		.cfi_def_cfa_register 7
 2738 0006 7860     		str	r0, [r7, #4]
 2739 0008 3960     		str	r1, [r7]
1010:Drivers/STM32F1xx_HAL_Driver/Src/stm32f1xx_hal_tim_ex.c ****   HAL_StatusTypeDef status = HAL_OK;
 2740              		.loc 1 1010 21
 2741 000a 0023     		movs	r3, #0
 2742 000c FB73     		strb	r3, [r7, #15]
1011:Drivers/STM32F1xx_HAL_Driver/Src/stm32f1xx_hal_tim_ex.c **** 
1012:Drivers/STM32F1xx_HAL_Driver/Src/stm32f1xx_hal_tim_ex.c ****   /* Check the parameters */
1013:Drivers/STM32F1xx_HAL_Driver/Src/stm32f1xx_hal_tim_ex.c ****   assert_param(IS_TIM_CCXN_INSTANCE(htim->Instance, Channel));
1014:Drivers/STM32F1xx_HAL_Driver/Src/stm32f1xx_hal_tim_ex.c **** 
1015:Drivers/STM32F1xx_HAL_Driver/Src/stm32f1xx_hal_tim_ex.c ****   switch (Channel)
 2743              		.loc 1 1015 3
 2744 000e 3B68     		ldr	r3, [r7]
 2745 0010 082B     		cmp	r3, #8
 2746 0012 25D0     		beq	.L168
 2747 0014 3B68     		ldr	r3, [r7]
 2748 0016 082B     		cmp	r3, #8
 2749 0018 30D8     		bhi	.L169
 2750 001a 3B68     		ldr	r3, [r7]
 2751 001c 002B     		cmp	r3, #0
 2752 001e 03D0     		beq	.L170
 2753 0020 3B68     		ldr	r3, [r7]
 2754 0022 042B     		cmp	r3, #4
 2755 0024 0ED0     		beq	.L171
 2756 0026 29E0     		b	.L169
 2757              	.L170:
1016:Drivers/STM32F1xx_HAL_Driver/Src/stm32f1xx_hal_tim_ex.c ****   {
1017:Drivers/STM32F1xx_HAL_Driver/Src/stm32f1xx_hal_tim_ex.c ****     case TIM_CHANNEL_1:
1018:Drivers/STM32F1xx_HAL_Driver/Src/stm32f1xx_hal_tim_ex.c ****     {
1019:Drivers/STM32F1xx_HAL_Driver/Src/stm32f1xx_hal_tim_ex.c ****       /* Disable the TIM Output Compare DMA request */
1020:Drivers/STM32F1xx_HAL_Driver/Src/stm32f1xx_hal_tim_ex.c ****       __HAL_TIM_DISABLE_DMA(htim, TIM_DMA_CC1);
 2758              		.loc 1 1020 7
 2759 0028 7B68     		ldr	r3, [r7, #4]
 2760 002a 1B68     		ldr	r3, [r3]
 2761 002c DA68     		ldr	r2, [r3, #12]
 2762 002e 7B68     		ldr	r3, [r7, #4]
 2763 0030 1B68     		ldr	r3, [r3]
 2764 0032 22F40072 		bic	r2, r2, #512
 2765 0036 DA60     		str	r2, [r3, #12]
ARM GAS  /tmp//cc6kIlXX.s 			page 67


1021:Drivers/STM32F1xx_HAL_Driver/Src/stm32f1xx_hal_tim_ex.c ****       (void)HAL_DMA_Abort_IT(htim->hdma[TIM_DMA_ID_CC1]);
 2766              		.loc 1 1021 13
 2767 0038 7B68     		ldr	r3, [r7, #4]
 2768 003a 5B6A     		ldr	r3, [r3, #36]
 2769 003c 1846     		mov	r0, r3
 2770 003e FFF7FEFF 		bl	HAL_DMA_Abort_IT
1022:Drivers/STM32F1xx_HAL_Driver/Src/stm32f1xx_hal_tim_ex.c ****       break;
 2771              		.loc 1 1022 7
 2772 0042 1EE0     		b	.L172
 2773              	.L171:
1023:Drivers/STM32F1xx_HAL_Driver/Src/stm32f1xx_hal_tim_ex.c ****     }
1024:Drivers/STM32F1xx_HAL_Driver/Src/stm32f1xx_hal_tim_ex.c **** 
1025:Drivers/STM32F1xx_HAL_Driver/Src/stm32f1xx_hal_tim_ex.c ****     case TIM_CHANNEL_2:
1026:Drivers/STM32F1xx_HAL_Driver/Src/stm32f1xx_hal_tim_ex.c ****     {
1027:Drivers/STM32F1xx_HAL_Driver/Src/stm32f1xx_hal_tim_ex.c ****       /* Disable the TIM Output Compare DMA request */
1028:Drivers/STM32F1xx_HAL_Driver/Src/stm32f1xx_hal_tim_ex.c ****       __HAL_TIM_DISABLE_DMA(htim, TIM_DMA_CC2);
 2774              		.loc 1 1028 7
 2775 0044 7B68     		ldr	r3, [r7, #4]
 2776 0046 1B68     		ldr	r3, [r3]
 2777 0048 DA68     		ldr	r2, [r3, #12]
 2778 004a 7B68     		ldr	r3, [r7, #4]
 2779 004c 1B68     		ldr	r3, [r3]
 2780 004e 22F48062 		bic	r2, r2, #1024
 2781 0052 DA60     		str	r2, [r3, #12]
1029:Drivers/STM32F1xx_HAL_Driver/Src/stm32f1xx_hal_tim_ex.c ****       (void)HAL_DMA_Abort_IT(htim->hdma[TIM_DMA_ID_CC2]);
 2782              		.loc 1 1029 13
 2783 0054 7B68     		ldr	r3, [r7, #4]
 2784 0056 9B6A     		ldr	r3, [r3, #40]
 2785 0058 1846     		mov	r0, r3
 2786 005a FFF7FEFF 		bl	HAL_DMA_Abort_IT
1030:Drivers/STM32F1xx_HAL_Driver/Src/stm32f1xx_hal_tim_ex.c ****       break;
 2787              		.loc 1 1030 7
 2788 005e 10E0     		b	.L172
 2789              	.L168:
1031:Drivers/STM32F1xx_HAL_Driver/Src/stm32f1xx_hal_tim_ex.c ****     }
1032:Drivers/STM32F1xx_HAL_Driver/Src/stm32f1xx_hal_tim_ex.c **** 
1033:Drivers/STM32F1xx_HAL_Driver/Src/stm32f1xx_hal_tim_ex.c ****     case TIM_CHANNEL_3:
1034:Drivers/STM32F1xx_HAL_Driver/Src/stm32f1xx_hal_tim_ex.c ****     {
1035:Drivers/STM32F1xx_HAL_Driver/Src/stm32f1xx_hal_tim_ex.c ****       /* Disable the TIM Output Compare DMA request */
1036:Drivers/STM32F1xx_HAL_Driver/Src/stm32f1xx_hal_tim_ex.c ****       __HAL_TIM_DISABLE_DMA(htim, TIM_DMA_CC3);
 2790              		.loc 1 1036 7
 2791 0060 7B68     		ldr	r3, [r7, #4]
 2792 0062 1B68     		ldr	r3, [r3]
 2793 0064 DA68     		ldr	r2, [r3, #12]
 2794 0066 7B68     		ldr	r3, [r7, #4]
 2795 0068 1B68     		ldr	r3, [r3]
 2796 006a 22F40062 		bic	r2, r2, #2048
 2797 006e DA60     		str	r2, [r3, #12]
1037:Drivers/STM32F1xx_HAL_Driver/Src/stm32f1xx_hal_tim_ex.c ****       (void)HAL_DMA_Abort_IT(htim->hdma[TIM_DMA_ID_CC3]);
 2798              		.loc 1 1037 13
 2799 0070 7B68     		ldr	r3, [r7, #4]
 2800 0072 DB6A     		ldr	r3, [r3, #44]
 2801 0074 1846     		mov	r0, r3
 2802 0076 FFF7FEFF 		bl	HAL_DMA_Abort_IT
1038:Drivers/STM32F1xx_HAL_Driver/Src/stm32f1xx_hal_tim_ex.c ****       break;
 2803              		.loc 1 1038 7
 2804 007a 02E0     		b	.L172
ARM GAS  /tmp//cc6kIlXX.s 			page 68


 2805              	.L169:
1039:Drivers/STM32F1xx_HAL_Driver/Src/stm32f1xx_hal_tim_ex.c ****     }
1040:Drivers/STM32F1xx_HAL_Driver/Src/stm32f1xx_hal_tim_ex.c **** 
1041:Drivers/STM32F1xx_HAL_Driver/Src/stm32f1xx_hal_tim_ex.c ****     default:
1042:Drivers/STM32F1xx_HAL_Driver/Src/stm32f1xx_hal_tim_ex.c ****       status = HAL_ERROR;
 2806              		.loc 1 1042 14
 2807 007c 0123     		movs	r3, #1
 2808 007e FB73     		strb	r3, [r7, #15]
1043:Drivers/STM32F1xx_HAL_Driver/Src/stm32f1xx_hal_tim_ex.c ****       break;
 2809              		.loc 1 1043 7
 2810 0080 00BF     		nop
 2811              	.L172:
1044:Drivers/STM32F1xx_HAL_Driver/Src/stm32f1xx_hal_tim_ex.c ****   }
1045:Drivers/STM32F1xx_HAL_Driver/Src/stm32f1xx_hal_tim_ex.c **** 
1046:Drivers/STM32F1xx_HAL_Driver/Src/stm32f1xx_hal_tim_ex.c ****   if (status == HAL_OK)
 2812              		.loc 1 1046 6
 2813 0082 FB7B     		ldrb	r3, [r7, #15]	@ zero_extendqisi2
 2814 0084 002B     		cmp	r3, #0
 2815 0086 52D1     		bne	.L173
1047:Drivers/STM32F1xx_HAL_Driver/Src/stm32f1xx_hal_tim_ex.c ****   {
1048:Drivers/STM32F1xx_HAL_Driver/Src/stm32f1xx_hal_tim_ex.c ****     /* Disable the Capture compare channel N */
1049:Drivers/STM32F1xx_HAL_Driver/Src/stm32f1xx_hal_tim_ex.c ****     TIM_CCxNChannelCmd(htim->Instance, Channel, TIM_CCxN_DISABLE);
 2816              		.loc 1 1049 5
 2817 0088 7B68     		ldr	r3, [r7, #4]
 2818 008a 1B68     		ldr	r3, [r3]
 2819 008c 0022     		movs	r2, #0
 2820 008e 3968     		ldr	r1, [r7]
 2821 0090 1846     		mov	r0, r3
 2822 0092 FFF7FEFF 		bl	TIM_CCxNChannelCmd
1050:Drivers/STM32F1xx_HAL_Driver/Src/stm32f1xx_hal_tim_ex.c **** 
1051:Drivers/STM32F1xx_HAL_Driver/Src/stm32f1xx_hal_tim_ex.c ****     /* Disable the Main Output */
1052:Drivers/STM32F1xx_HAL_Driver/Src/stm32f1xx_hal_tim_ex.c ****     __HAL_TIM_MOE_DISABLE(htim);
 2823              		.loc 1 1052 5
 2824 0096 7B68     		ldr	r3, [r7, #4]
 2825 0098 1B68     		ldr	r3, [r3]
 2826 009a 1A6A     		ldr	r2, [r3, #32]
 2827 009c 41F21113 		movw	r3, #4369
 2828 00a0 1340     		ands	r3, r3, r2
 2829 00a2 002B     		cmp	r3, #0
 2830 00a4 0FD1     		bne	.L174
 2831              		.loc 1 1052 5 is_stmt 0 discriminator 1
 2832 00a6 7B68     		ldr	r3, [r7, #4]
 2833 00a8 1B68     		ldr	r3, [r3]
 2834 00aa 1A6A     		ldr	r2, [r3, #32]
 2835 00ac 40F24443 		movw	r3, #1092
 2836 00b0 1340     		ands	r3, r3, r2
 2837 00b2 002B     		cmp	r3, #0
 2838 00b4 07D1     		bne	.L174
 2839              		.loc 1 1052 5 discriminator 2
 2840 00b6 7B68     		ldr	r3, [r7, #4]
 2841 00b8 1B68     		ldr	r3, [r3]
 2842 00ba 5A6C     		ldr	r2, [r3, #68]
 2843 00bc 7B68     		ldr	r3, [r7, #4]
 2844 00be 1B68     		ldr	r3, [r3]
 2845 00c0 22F40042 		bic	r2, r2, #32768
 2846 00c4 5A64     		str	r2, [r3, #68]
 2847              	.L174:
ARM GAS  /tmp//cc6kIlXX.s 			page 69


1053:Drivers/STM32F1xx_HAL_Driver/Src/stm32f1xx_hal_tim_ex.c **** 
1054:Drivers/STM32F1xx_HAL_Driver/Src/stm32f1xx_hal_tim_ex.c ****     /* Disable the Peripheral */
1055:Drivers/STM32F1xx_HAL_Driver/Src/stm32f1xx_hal_tim_ex.c ****     __HAL_TIM_DISABLE(htim);
 2848              		.loc 1 1055 5 is_stmt 1
 2849 00c6 7B68     		ldr	r3, [r7, #4]
 2850 00c8 1B68     		ldr	r3, [r3]
 2851 00ca 1A6A     		ldr	r2, [r3, #32]
 2852 00cc 41F21113 		movw	r3, #4369
 2853 00d0 1340     		ands	r3, r3, r2
 2854 00d2 002B     		cmp	r3, #0
 2855 00d4 0FD1     		bne	.L175
 2856              		.loc 1 1055 5 is_stmt 0 discriminator 1
 2857 00d6 7B68     		ldr	r3, [r7, #4]
 2858 00d8 1B68     		ldr	r3, [r3]
 2859 00da 1A6A     		ldr	r2, [r3, #32]
 2860 00dc 40F24443 		movw	r3, #1092
 2861 00e0 1340     		ands	r3, r3, r2
 2862 00e2 002B     		cmp	r3, #0
 2863 00e4 07D1     		bne	.L175
 2864              		.loc 1 1055 5 discriminator 2
 2865 00e6 7B68     		ldr	r3, [r7, #4]
 2866 00e8 1B68     		ldr	r3, [r3]
 2867 00ea 1A68     		ldr	r2, [r3]
 2868 00ec 7B68     		ldr	r3, [r7, #4]
 2869 00ee 1B68     		ldr	r3, [r3]
 2870 00f0 22F00102 		bic	r2, r2, #1
 2871 00f4 1A60     		str	r2, [r3]
 2872              	.L175:
1056:Drivers/STM32F1xx_HAL_Driver/Src/stm32f1xx_hal_tim_ex.c **** 
1057:Drivers/STM32F1xx_HAL_Driver/Src/stm32f1xx_hal_tim_ex.c ****     /* Set the TIM complementary channel state */
1058:Drivers/STM32F1xx_HAL_Driver/Src/stm32f1xx_hal_tim_ex.c ****     TIM_CHANNEL_N_STATE_SET(htim, Channel, HAL_TIM_CHANNEL_STATE_READY);
 2873              		.loc 1 1058 5 is_stmt 1
 2874 00f6 3B68     		ldr	r3, [r7]
 2875 00f8 002B     		cmp	r3, #0
 2876 00fa 04D1     		bne	.L176
 2877              		.loc 1 1058 5 is_stmt 0 discriminator 1
 2878 00fc 7B68     		ldr	r3, [r7, #4]
 2879 00fe 0122     		movs	r2, #1
 2880 0100 83F84220 		strb	r2, [r3, #66]
 2881 0104 13E0     		b	.L173
 2882              	.L176:
 2883              		.loc 1 1058 5 discriminator 2
 2884 0106 3B68     		ldr	r3, [r7]
 2885 0108 042B     		cmp	r3, #4
 2886 010a 04D1     		bne	.L177
 2887              		.loc 1 1058 5 discriminator 3
 2888 010c 7B68     		ldr	r3, [r7, #4]
 2889 010e 0122     		movs	r2, #1
 2890 0110 83F84320 		strb	r2, [r3, #67]
 2891 0114 0BE0     		b	.L173
 2892              	.L177:
 2893              		.loc 1 1058 5 discriminator 4
 2894 0116 3B68     		ldr	r3, [r7]
 2895 0118 082B     		cmp	r3, #8
 2896 011a 04D1     		bne	.L179
 2897              		.loc 1 1058 5 discriminator 6
 2898 011c 7B68     		ldr	r3, [r7, #4]
ARM GAS  /tmp//cc6kIlXX.s 			page 70


 2899 011e 0122     		movs	r2, #1
 2900 0120 83F84420 		strb	r2, [r3, #68]
 2901 0124 03E0     		b	.L173
 2902              	.L179:
 2903              		.loc 1 1058 5 discriminator 7
 2904 0126 7B68     		ldr	r3, [r7, #4]
 2905 0128 0122     		movs	r2, #1
 2906 012a 83F84520 		strb	r2, [r3, #69]
 2907              	.L173:
1059:Drivers/STM32F1xx_HAL_Driver/Src/stm32f1xx_hal_tim_ex.c ****   }
1060:Drivers/STM32F1xx_HAL_Driver/Src/stm32f1xx_hal_tim_ex.c **** 
1061:Drivers/STM32F1xx_HAL_Driver/Src/stm32f1xx_hal_tim_ex.c ****   /* Return function status */
1062:Drivers/STM32F1xx_HAL_Driver/Src/stm32f1xx_hal_tim_ex.c ****   return status;
 2908              		.loc 1 1062 10 is_stmt 1
 2909 012e FB7B     		ldrb	r3, [r7, #15]	@ zero_extendqisi2
1063:Drivers/STM32F1xx_HAL_Driver/Src/stm32f1xx_hal_tim_ex.c **** }
 2910              		.loc 1 1063 1
 2911 0130 1846     		mov	r0, r3
 2912 0132 1037     		adds	r7, r7, #16
 2913              	.LCFI80:
 2914              		.cfi_def_cfa_offset 8
 2915 0134 BD46     		mov	sp, r7
 2916              	.LCFI81:
 2917              		.cfi_def_cfa_register 13
 2918              		@ sp needed
 2919 0136 80BD     		pop	{r7, pc}
 2920              		.cfi_endproc
 2921              	.LFE80:
 2923              		.section	.text.HAL_TIMEx_PWMN_Start,"ax",%progbits
 2924              		.align	1
 2925              		.global	HAL_TIMEx_PWMN_Start
 2926              		.syntax unified
 2927              		.thumb
 2928              		.thumb_func
 2930              	HAL_TIMEx_PWMN_Start:
 2931              	.LFB81:
1064:Drivers/STM32F1xx_HAL_Driver/Src/stm32f1xx_hal_tim_ex.c **** 
1065:Drivers/STM32F1xx_HAL_Driver/Src/stm32f1xx_hal_tim_ex.c **** /**
1066:Drivers/STM32F1xx_HAL_Driver/Src/stm32f1xx_hal_tim_ex.c ****   * @}
1067:Drivers/STM32F1xx_HAL_Driver/Src/stm32f1xx_hal_tim_ex.c ****   */
1068:Drivers/STM32F1xx_HAL_Driver/Src/stm32f1xx_hal_tim_ex.c **** 
1069:Drivers/STM32F1xx_HAL_Driver/Src/stm32f1xx_hal_tim_ex.c **** /** @defgroup TIMEx_Exported_Functions_Group3 Extended Timer Complementary PWM functions
1070:Drivers/STM32F1xx_HAL_Driver/Src/stm32f1xx_hal_tim_ex.c ****   * @brief    Timer Complementary PWM functions
1071:Drivers/STM32F1xx_HAL_Driver/Src/stm32f1xx_hal_tim_ex.c ****   *
1072:Drivers/STM32F1xx_HAL_Driver/Src/stm32f1xx_hal_tim_ex.c **** @verbatim
1073:Drivers/STM32F1xx_HAL_Driver/Src/stm32f1xx_hal_tim_ex.c ****   ==============================================================================
1074:Drivers/STM32F1xx_HAL_Driver/Src/stm32f1xx_hal_tim_ex.c ****                  ##### Timer Complementary PWM functions #####
1075:Drivers/STM32F1xx_HAL_Driver/Src/stm32f1xx_hal_tim_ex.c ****   ==============================================================================
1076:Drivers/STM32F1xx_HAL_Driver/Src/stm32f1xx_hal_tim_ex.c ****   [..]
1077:Drivers/STM32F1xx_HAL_Driver/Src/stm32f1xx_hal_tim_ex.c ****     This section provides functions allowing to:
1078:Drivers/STM32F1xx_HAL_Driver/Src/stm32f1xx_hal_tim_ex.c ****     (+) Start the Complementary PWM.
1079:Drivers/STM32F1xx_HAL_Driver/Src/stm32f1xx_hal_tim_ex.c ****     (+) Stop the Complementary PWM.
1080:Drivers/STM32F1xx_HAL_Driver/Src/stm32f1xx_hal_tim_ex.c ****     (+) Start the Complementary PWM and enable interrupts.
1081:Drivers/STM32F1xx_HAL_Driver/Src/stm32f1xx_hal_tim_ex.c ****     (+) Stop the Complementary PWM and disable interrupts.
1082:Drivers/STM32F1xx_HAL_Driver/Src/stm32f1xx_hal_tim_ex.c ****     (+) Start the Complementary PWM and enable DMA transfers.
1083:Drivers/STM32F1xx_HAL_Driver/Src/stm32f1xx_hal_tim_ex.c ****     (+) Stop the Complementary PWM and disable DMA transfers.
1084:Drivers/STM32F1xx_HAL_Driver/Src/stm32f1xx_hal_tim_ex.c **** @endverbatim
ARM GAS  /tmp//cc6kIlXX.s 			page 71


1085:Drivers/STM32F1xx_HAL_Driver/Src/stm32f1xx_hal_tim_ex.c ****   * @{
1086:Drivers/STM32F1xx_HAL_Driver/Src/stm32f1xx_hal_tim_ex.c ****   */
1087:Drivers/STM32F1xx_HAL_Driver/Src/stm32f1xx_hal_tim_ex.c **** 
1088:Drivers/STM32F1xx_HAL_Driver/Src/stm32f1xx_hal_tim_ex.c **** /**
1089:Drivers/STM32F1xx_HAL_Driver/Src/stm32f1xx_hal_tim_ex.c ****   * @brief  Starts the PWM signal generation on the complementary output.
1090:Drivers/STM32F1xx_HAL_Driver/Src/stm32f1xx_hal_tim_ex.c ****   * @param  htim TIM handle
1091:Drivers/STM32F1xx_HAL_Driver/Src/stm32f1xx_hal_tim_ex.c ****   * @param  Channel TIM Channel to be enabled
1092:Drivers/STM32F1xx_HAL_Driver/Src/stm32f1xx_hal_tim_ex.c ****   *          This parameter can be one of the following values:
1093:Drivers/STM32F1xx_HAL_Driver/Src/stm32f1xx_hal_tim_ex.c ****   *            @arg TIM_CHANNEL_1: TIM Channel 1 selected
1094:Drivers/STM32F1xx_HAL_Driver/Src/stm32f1xx_hal_tim_ex.c ****   *            @arg TIM_CHANNEL_2: TIM Channel 2 selected
1095:Drivers/STM32F1xx_HAL_Driver/Src/stm32f1xx_hal_tim_ex.c ****   *            @arg TIM_CHANNEL_3: TIM Channel 3 selected
1096:Drivers/STM32F1xx_HAL_Driver/Src/stm32f1xx_hal_tim_ex.c ****   * @retval HAL status
1097:Drivers/STM32F1xx_HAL_Driver/Src/stm32f1xx_hal_tim_ex.c ****   */
1098:Drivers/STM32F1xx_HAL_Driver/Src/stm32f1xx_hal_tim_ex.c **** HAL_StatusTypeDef HAL_TIMEx_PWMN_Start(TIM_HandleTypeDef *htim, uint32_t Channel)
1099:Drivers/STM32F1xx_HAL_Driver/Src/stm32f1xx_hal_tim_ex.c **** {
 2932              		.loc 1 1099 1
 2933              		.cfi_startproc
 2934              		@ args = 0, pretend = 0, frame = 16
 2935              		@ frame_needed = 1, uses_anonymous_args = 0
 2936 0000 80B5     		push	{r7, lr}
 2937              	.LCFI82:
 2938              		.cfi_def_cfa_offset 8
 2939              		.cfi_offset 7, -8
 2940              		.cfi_offset 14, -4
 2941 0002 84B0     		sub	sp, sp, #16
 2942              	.LCFI83:
 2943              		.cfi_def_cfa_offset 24
 2944 0004 00AF     		add	r7, sp, #0
 2945              	.LCFI84:
 2946              		.cfi_def_cfa_register 7
 2947 0006 7860     		str	r0, [r7, #4]
 2948 0008 3960     		str	r1, [r7]
1100:Drivers/STM32F1xx_HAL_Driver/Src/stm32f1xx_hal_tim_ex.c ****   uint32_t tmpsmcr;
1101:Drivers/STM32F1xx_HAL_Driver/Src/stm32f1xx_hal_tim_ex.c **** 
1102:Drivers/STM32F1xx_HAL_Driver/Src/stm32f1xx_hal_tim_ex.c ****   /* Check the parameters */
1103:Drivers/STM32F1xx_HAL_Driver/Src/stm32f1xx_hal_tim_ex.c ****   assert_param(IS_TIM_CCXN_INSTANCE(htim->Instance, Channel));
1104:Drivers/STM32F1xx_HAL_Driver/Src/stm32f1xx_hal_tim_ex.c **** 
1105:Drivers/STM32F1xx_HAL_Driver/Src/stm32f1xx_hal_tim_ex.c ****   /* Check the TIM complementary channel state */
1106:Drivers/STM32F1xx_HAL_Driver/Src/stm32f1xx_hal_tim_ex.c ****   if (TIM_CHANNEL_N_STATE_GET(htim, Channel) != HAL_TIM_CHANNEL_STATE_READY)
 2949              		.loc 1 1106 46
 2950 000a 3B68     		ldr	r3, [r7]
 2951 000c 002B     		cmp	r3, #0
 2952 000e 09D1     		bne	.L183
 2953              		.loc 1 1106 7 discriminator 1
 2954 0010 7B68     		ldr	r3, [r7, #4]
 2955 0012 93F84230 		ldrb	r3, [r3, #66]
 2956 0016 DBB2     		uxtb	r3, r3
 2957              		.loc 1 1106 46 discriminator 1
 2958 0018 012B     		cmp	r3, #1
 2959 001a 14BF     		ite	ne
 2960 001c 0123     		movne	r3, #1
 2961 001e 0023     		moveq	r3, #0
 2962 0020 DBB2     		uxtb	r3, r3
 2963 0022 22E0     		b	.L184
 2964              	.L183:
 2965              		.loc 1 1106 46 is_stmt 0 discriminator 2
 2966 0024 3B68     		ldr	r3, [r7]
ARM GAS  /tmp//cc6kIlXX.s 			page 72


 2967 0026 042B     		cmp	r3, #4
 2968 0028 09D1     		bne	.L185
 2969              		.loc 1 1106 7 is_stmt 1 discriminator 4
 2970 002a 7B68     		ldr	r3, [r7, #4]
 2971 002c 93F84330 		ldrb	r3, [r3, #67]
 2972 0030 DBB2     		uxtb	r3, r3
 2973              		.loc 1 1106 46 discriminator 4
 2974 0032 012B     		cmp	r3, #1
 2975 0034 14BF     		ite	ne
 2976 0036 0123     		movne	r3, #1
 2977 0038 0023     		moveq	r3, #0
 2978 003a DBB2     		uxtb	r3, r3
 2979 003c 15E0     		b	.L184
 2980              	.L185:
 2981              		.loc 1 1106 46 is_stmt 0 discriminator 5
 2982 003e 3B68     		ldr	r3, [r7]
 2983 0040 082B     		cmp	r3, #8
 2984 0042 09D1     		bne	.L187
 2985              		.loc 1 1106 7 is_stmt 1 discriminator 7
 2986 0044 7B68     		ldr	r3, [r7, #4]
 2987 0046 93F84430 		ldrb	r3, [r3, #68]
 2988 004a DBB2     		uxtb	r3, r3
 2989              		.loc 1 1106 46 discriminator 7
 2990 004c 012B     		cmp	r3, #1
 2991 004e 14BF     		ite	ne
 2992 0050 0123     		movne	r3, #1
 2993 0052 0023     		moveq	r3, #0
 2994 0054 DBB2     		uxtb	r3, r3
 2995 0056 08E0     		b	.L184
 2996              	.L187:
 2997              		.loc 1 1106 7 discriminator 8
 2998 0058 7B68     		ldr	r3, [r7, #4]
 2999 005a 93F84530 		ldrb	r3, [r3, #69]
 3000 005e DBB2     		uxtb	r3, r3
 3001              		.loc 1 1106 46 discriminator 8
 3002 0060 012B     		cmp	r3, #1
 3003 0062 14BF     		ite	ne
 3004 0064 0123     		movne	r3, #1
 3005 0066 0023     		moveq	r3, #0
 3006 0068 DBB2     		uxtb	r3, r3
 3007              	.L184:
 3008              		.loc 1 1106 6 discriminator 12
 3009 006a 002B     		cmp	r3, #0
 3010 006c 01D0     		beq	.L189
1107:Drivers/STM32F1xx_HAL_Driver/Src/stm32f1xx_hal_tim_ex.c ****   {
1108:Drivers/STM32F1xx_HAL_Driver/Src/stm32f1xx_hal_tim_ex.c ****     return HAL_ERROR;
 3011              		.loc 1 1108 12
 3012 006e 0123     		movs	r3, #1
 3013 0070 63E0     		b	.L190
 3014              	.L189:
1109:Drivers/STM32F1xx_HAL_Driver/Src/stm32f1xx_hal_tim_ex.c ****   }
1110:Drivers/STM32F1xx_HAL_Driver/Src/stm32f1xx_hal_tim_ex.c **** 
1111:Drivers/STM32F1xx_HAL_Driver/Src/stm32f1xx_hal_tim_ex.c ****   /* Set the TIM complementary channel state */
1112:Drivers/STM32F1xx_HAL_Driver/Src/stm32f1xx_hal_tim_ex.c ****   TIM_CHANNEL_N_STATE_SET(htim, Channel, HAL_TIM_CHANNEL_STATE_BUSY);
 3015              		.loc 1 1112 3
 3016 0072 3B68     		ldr	r3, [r7]
 3017 0074 002B     		cmp	r3, #0
ARM GAS  /tmp//cc6kIlXX.s 			page 73


 3018 0076 04D1     		bne	.L191
 3019              		.loc 1 1112 3 is_stmt 0 discriminator 1
 3020 0078 7B68     		ldr	r3, [r7, #4]
 3021 007a 0222     		movs	r2, #2
 3022 007c 83F84220 		strb	r2, [r3, #66]
 3023 0080 13E0     		b	.L192
 3024              	.L191:
 3025              		.loc 1 1112 3 discriminator 2
 3026 0082 3B68     		ldr	r3, [r7]
 3027 0084 042B     		cmp	r3, #4
 3028 0086 04D1     		bne	.L193
 3029              		.loc 1 1112 3 discriminator 3
 3030 0088 7B68     		ldr	r3, [r7, #4]
 3031 008a 0222     		movs	r2, #2
 3032 008c 83F84320 		strb	r2, [r3, #67]
 3033 0090 0BE0     		b	.L192
 3034              	.L193:
 3035              		.loc 1 1112 3 discriminator 4
 3036 0092 3B68     		ldr	r3, [r7]
 3037 0094 082B     		cmp	r3, #8
 3038 0096 04D1     		bne	.L195
 3039              		.loc 1 1112 3 discriminator 6
 3040 0098 7B68     		ldr	r3, [r7, #4]
 3041 009a 0222     		movs	r2, #2
 3042 009c 83F84420 		strb	r2, [r3, #68]
 3043 00a0 03E0     		b	.L192
 3044              	.L195:
 3045              		.loc 1 1112 3 discriminator 7
 3046 00a2 7B68     		ldr	r3, [r7, #4]
 3047 00a4 0222     		movs	r2, #2
 3048 00a6 83F84520 		strb	r2, [r3, #69]
 3049              	.L192:
1113:Drivers/STM32F1xx_HAL_Driver/Src/stm32f1xx_hal_tim_ex.c **** 
1114:Drivers/STM32F1xx_HAL_Driver/Src/stm32f1xx_hal_tim_ex.c ****   /* Enable the complementary PWM output  */
1115:Drivers/STM32F1xx_HAL_Driver/Src/stm32f1xx_hal_tim_ex.c ****   TIM_CCxNChannelCmd(htim->Instance, Channel, TIM_CCxN_ENABLE);
 3050              		.loc 1 1115 3 is_stmt 1
 3051 00aa 7B68     		ldr	r3, [r7, #4]
 3052 00ac 1B68     		ldr	r3, [r3]
 3053 00ae 0422     		movs	r2, #4
 3054 00b0 3968     		ldr	r1, [r7]
 3055 00b2 1846     		mov	r0, r3
 3056 00b4 FFF7FEFF 		bl	TIM_CCxNChannelCmd
1116:Drivers/STM32F1xx_HAL_Driver/Src/stm32f1xx_hal_tim_ex.c **** 
1117:Drivers/STM32F1xx_HAL_Driver/Src/stm32f1xx_hal_tim_ex.c ****   /* Enable the Main Output */
1118:Drivers/STM32F1xx_HAL_Driver/Src/stm32f1xx_hal_tim_ex.c ****   __HAL_TIM_MOE_ENABLE(htim);
 3057              		.loc 1 1118 3
 3058 00b8 7B68     		ldr	r3, [r7, #4]
 3059 00ba 1B68     		ldr	r3, [r3]
 3060 00bc 5A6C     		ldr	r2, [r3, #68]
 3061 00be 7B68     		ldr	r3, [r7, #4]
 3062 00c0 1B68     		ldr	r3, [r3]
 3063 00c2 42F40042 		orr	r2, r2, #32768
 3064 00c6 5A64     		str	r2, [r3, #68]
1119:Drivers/STM32F1xx_HAL_Driver/Src/stm32f1xx_hal_tim_ex.c **** 
1120:Drivers/STM32F1xx_HAL_Driver/Src/stm32f1xx_hal_tim_ex.c ****   /* Enable the Peripheral, except in trigger mode where enable is automatically done with trigger 
1121:Drivers/STM32F1xx_HAL_Driver/Src/stm32f1xx_hal_tim_ex.c ****   if (IS_TIM_SLAVE_INSTANCE(htim->Instance))
 3065              		.loc 1 1121 7
ARM GAS  /tmp//cc6kIlXX.s 			page 74


 3066 00c8 7B68     		ldr	r3, [r7, #4]
 3067 00ca 1B68     		ldr	r3, [r3]
 3068              		.loc 1 1121 6
 3069 00cc 1D4A     		ldr	r2, .L201
 3070 00ce 9342     		cmp	r3, r2
 3071 00d0 18D0     		beq	.L197
 3072              		.loc 1 1121 7 discriminator 1
 3073 00d2 7B68     		ldr	r3, [r7, #4]
 3074 00d4 1B68     		ldr	r3, [r3]
 3075 00d6 1C4A     		ldr	r2, .L201+4
 3076 00d8 9342     		cmp	r3, r2
 3077 00da 13D0     		beq	.L197
 3078              		.loc 1 1121 7 is_stmt 0 discriminator 2
 3079 00dc 7B68     		ldr	r3, [r7, #4]
 3080 00de 1B68     		ldr	r3, [r3]
 3081 00e0 B3F1804F 		cmp	r3, #1073741824
 3082 00e4 0ED0     		beq	.L197
 3083              		.loc 1 1121 7 discriminator 3
 3084 00e6 7B68     		ldr	r3, [r7, #4]
 3085 00e8 1B68     		ldr	r3, [r3]
 3086 00ea 184A     		ldr	r2, .L201+8
 3087 00ec 9342     		cmp	r3, r2
 3088 00ee 09D0     		beq	.L197
 3089              		.loc 1 1121 7 discriminator 4
 3090 00f0 7B68     		ldr	r3, [r7, #4]
 3091 00f2 1B68     		ldr	r3, [r3]
 3092 00f4 164A     		ldr	r2, .L201+12
 3093 00f6 9342     		cmp	r3, r2
 3094 00f8 04D0     		beq	.L197
 3095              		.loc 1 1121 7 discriminator 5
 3096 00fa 7B68     		ldr	r3, [r7, #4]
 3097 00fc 1B68     		ldr	r3, [r3]
 3098 00fe 154A     		ldr	r2, .L201+16
 3099 0100 9342     		cmp	r3, r2
 3100 0102 11D1     		bne	.L198
 3101              	.L197:
1122:Drivers/STM32F1xx_HAL_Driver/Src/stm32f1xx_hal_tim_ex.c ****   {
1123:Drivers/STM32F1xx_HAL_Driver/Src/stm32f1xx_hal_tim_ex.c ****     tmpsmcr = htim->Instance->SMCR & TIM_SMCR_SMS;
 3102              		.loc 1 1123 19 is_stmt 1
 3103 0104 7B68     		ldr	r3, [r7, #4]
 3104 0106 1B68     		ldr	r3, [r3]
 3105              		.loc 1 1123 29
 3106 0108 9B68     		ldr	r3, [r3, #8]
 3107              		.loc 1 1123 13
 3108 010a 03F00703 		and	r3, r3, #7
 3109 010e FB60     		str	r3, [r7, #12]
1124:Drivers/STM32F1xx_HAL_Driver/Src/stm32f1xx_hal_tim_ex.c ****     if (!IS_TIM_SLAVEMODE_TRIGGER_ENABLED(tmpsmcr))
 3110              		.loc 1 1124 8
 3111 0110 FB68     		ldr	r3, [r7, #12]
 3112 0112 062B     		cmp	r3, #6
 3113 0114 10D0     		beq	.L200
1125:Drivers/STM32F1xx_HAL_Driver/Src/stm32f1xx_hal_tim_ex.c ****     {
1126:Drivers/STM32F1xx_HAL_Driver/Src/stm32f1xx_hal_tim_ex.c ****       __HAL_TIM_ENABLE(htim);
 3114              		.loc 1 1126 7
 3115 0116 7B68     		ldr	r3, [r7, #4]
 3116 0118 1B68     		ldr	r3, [r3]
 3117 011a 1A68     		ldr	r2, [r3]
ARM GAS  /tmp//cc6kIlXX.s 			page 75


 3118 011c 7B68     		ldr	r3, [r7, #4]
 3119 011e 1B68     		ldr	r3, [r3]
 3120 0120 42F00102 		orr	r2, r2, #1
 3121 0124 1A60     		str	r2, [r3]
1124:Drivers/STM32F1xx_HAL_Driver/Src/stm32f1xx_hal_tim_ex.c ****     if (!IS_TIM_SLAVEMODE_TRIGGER_ENABLED(tmpsmcr))
 3122              		.loc 1 1124 8
 3123 0126 07E0     		b	.L200
 3124              	.L198:
1127:Drivers/STM32F1xx_HAL_Driver/Src/stm32f1xx_hal_tim_ex.c ****     }
1128:Drivers/STM32F1xx_HAL_Driver/Src/stm32f1xx_hal_tim_ex.c ****   }
1129:Drivers/STM32F1xx_HAL_Driver/Src/stm32f1xx_hal_tim_ex.c ****   else
1130:Drivers/STM32F1xx_HAL_Driver/Src/stm32f1xx_hal_tim_ex.c ****   {
1131:Drivers/STM32F1xx_HAL_Driver/Src/stm32f1xx_hal_tim_ex.c ****     __HAL_TIM_ENABLE(htim);
 3125              		.loc 1 1131 5
 3126 0128 7B68     		ldr	r3, [r7, #4]
 3127 012a 1B68     		ldr	r3, [r3]
 3128 012c 1A68     		ldr	r2, [r3]
 3129 012e 7B68     		ldr	r3, [r7, #4]
 3130 0130 1B68     		ldr	r3, [r3]
 3131 0132 42F00102 		orr	r2, r2, #1
 3132 0136 1A60     		str	r2, [r3]
 3133              	.L200:
1132:Drivers/STM32F1xx_HAL_Driver/Src/stm32f1xx_hal_tim_ex.c ****   }
1133:Drivers/STM32F1xx_HAL_Driver/Src/stm32f1xx_hal_tim_ex.c **** 
1134:Drivers/STM32F1xx_HAL_Driver/Src/stm32f1xx_hal_tim_ex.c ****   /* Return function status */
1135:Drivers/STM32F1xx_HAL_Driver/Src/stm32f1xx_hal_tim_ex.c ****   return HAL_OK;
 3134              		.loc 1 1135 10
 3135 0138 0023     		movs	r3, #0
 3136              	.L190:
1136:Drivers/STM32F1xx_HAL_Driver/Src/stm32f1xx_hal_tim_ex.c **** }
 3137              		.loc 1 1136 1
 3138 013a 1846     		mov	r0, r3
 3139 013c 1037     		adds	r7, r7, #16
 3140              	.LCFI85:
 3141              		.cfi_def_cfa_offset 8
 3142 013e BD46     		mov	sp, r7
 3143              	.LCFI86:
 3144              		.cfi_def_cfa_register 13
 3145              		@ sp needed
 3146 0140 80BD     		pop	{r7, pc}
 3147              	.L202:
 3148 0142 00BF     		.align	2
 3149              	.L201:
 3150 0144 002C0140 		.word	1073818624
 3151 0148 00340140 		.word	1073820672
 3152 014c 00040040 		.word	1073742848
 3153 0150 00080040 		.word	1073743872
 3154 0154 000C0040 		.word	1073744896
 3155              		.cfi_endproc
 3156              	.LFE81:
 3158              		.section	.text.HAL_TIMEx_PWMN_Stop,"ax",%progbits
 3159              		.align	1
 3160              		.global	HAL_TIMEx_PWMN_Stop
 3161              		.syntax unified
 3162              		.thumb
 3163              		.thumb_func
 3165              	HAL_TIMEx_PWMN_Stop:
ARM GAS  /tmp//cc6kIlXX.s 			page 76


 3166              	.LFB82:
1137:Drivers/STM32F1xx_HAL_Driver/Src/stm32f1xx_hal_tim_ex.c **** 
1138:Drivers/STM32F1xx_HAL_Driver/Src/stm32f1xx_hal_tim_ex.c **** /**
1139:Drivers/STM32F1xx_HAL_Driver/Src/stm32f1xx_hal_tim_ex.c ****   * @brief  Stops the PWM signal generation on the complementary output.
1140:Drivers/STM32F1xx_HAL_Driver/Src/stm32f1xx_hal_tim_ex.c ****   * @param  htim TIM handle
1141:Drivers/STM32F1xx_HAL_Driver/Src/stm32f1xx_hal_tim_ex.c ****   * @param  Channel TIM Channel to be disabled
1142:Drivers/STM32F1xx_HAL_Driver/Src/stm32f1xx_hal_tim_ex.c ****   *          This parameter can be one of the following values:
1143:Drivers/STM32F1xx_HAL_Driver/Src/stm32f1xx_hal_tim_ex.c ****   *            @arg TIM_CHANNEL_1: TIM Channel 1 selected
1144:Drivers/STM32F1xx_HAL_Driver/Src/stm32f1xx_hal_tim_ex.c ****   *            @arg TIM_CHANNEL_2: TIM Channel 2 selected
1145:Drivers/STM32F1xx_HAL_Driver/Src/stm32f1xx_hal_tim_ex.c ****   *            @arg TIM_CHANNEL_3: TIM Channel 3 selected
1146:Drivers/STM32F1xx_HAL_Driver/Src/stm32f1xx_hal_tim_ex.c ****   * @retval HAL status
1147:Drivers/STM32F1xx_HAL_Driver/Src/stm32f1xx_hal_tim_ex.c ****   */
1148:Drivers/STM32F1xx_HAL_Driver/Src/stm32f1xx_hal_tim_ex.c **** HAL_StatusTypeDef HAL_TIMEx_PWMN_Stop(TIM_HandleTypeDef *htim, uint32_t Channel)
1149:Drivers/STM32F1xx_HAL_Driver/Src/stm32f1xx_hal_tim_ex.c **** {
 3167              		.loc 1 1149 1
 3168              		.cfi_startproc
 3169              		@ args = 0, pretend = 0, frame = 8
 3170              		@ frame_needed = 1, uses_anonymous_args = 0
 3171 0000 80B5     		push	{r7, lr}
 3172              	.LCFI87:
 3173              		.cfi_def_cfa_offset 8
 3174              		.cfi_offset 7, -8
 3175              		.cfi_offset 14, -4
 3176 0002 82B0     		sub	sp, sp, #8
 3177              	.LCFI88:
 3178              		.cfi_def_cfa_offset 16
 3179 0004 00AF     		add	r7, sp, #0
 3180              	.LCFI89:
 3181              		.cfi_def_cfa_register 7
 3182 0006 7860     		str	r0, [r7, #4]
 3183 0008 3960     		str	r1, [r7]
1150:Drivers/STM32F1xx_HAL_Driver/Src/stm32f1xx_hal_tim_ex.c ****   /* Check the parameters */
1151:Drivers/STM32F1xx_HAL_Driver/Src/stm32f1xx_hal_tim_ex.c ****   assert_param(IS_TIM_CCXN_INSTANCE(htim->Instance, Channel));
1152:Drivers/STM32F1xx_HAL_Driver/Src/stm32f1xx_hal_tim_ex.c **** 
1153:Drivers/STM32F1xx_HAL_Driver/Src/stm32f1xx_hal_tim_ex.c ****   /* Disable the complementary PWM output  */
1154:Drivers/STM32F1xx_HAL_Driver/Src/stm32f1xx_hal_tim_ex.c ****   TIM_CCxNChannelCmd(htim->Instance, Channel, TIM_CCxN_DISABLE);
 3184              		.loc 1 1154 3
 3185 000a 7B68     		ldr	r3, [r7, #4]
 3186 000c 1B68     		ldr	r3, [r3]
 3187 000e 0022     		movs	r2, #0
 3188 0010 3968     		ldr	r1, [r7]
 3189 0012 1846     		mov	r0, r3
 3190 0014 FFF7FEFF 		bl	TIM_CCxNChannelCmd
1155:Drivers/STM32F1xx_HAL_Driver/Src/stm32f1xx_hal_tim_ex.c **** 
1156:Drivers/STM32F1xx_HAL_Driver/Src/stm32f1xx_hal_tim_ex.c ****   /* Disable the Main Output */
1157:Drivers/STM32F1xx_HAL_Driver/Src/stm32f1xx_hal_tim_ex.c ****   __HAL_TIM_MOE_DISABLE(htim);
 3191              		.loc 1 1157 3
 3192 0018 7B68     		ldr	r3, [r7, #4]
 3193 001a 1B68     		ldr	r3, [r3]
 3194 001c 1A6A     		ldr	r2, [r3, #32]
 3195 001e 41F21113 		movw	r3, #4369
 3196 0022 1340     		ands	r3, r3, r2
 3197 0024 002B     		cmp	r3, #0
 3198 0026 0FD1     		bne	.L204
 3199              		.loc 1 1157 3 is_stmt 0 discriminator 1
 3200 0028 7B68     		ldr	r3, [r7, #4]
 3201 002a 1B68     		ldr	r3, [r3]
ARM GAS  /tmp//cc6kIlXX.s 			page 77


 3202 002c 1A6A     		ldr	r2, [r3, #32]
 3203 002e 40F24443 		movw	r3, #1092
 3204 0032 1340     		ands	r3, r3, r2
 3205 0034 002B     		cmp	r3, #0
 3206 0036 07D1     		bne	.L204
 3207              		.loc 1 1157 3 discriminator 2
 3208 0038 7B68     		ldr	r3, [r7, #4]
 3209 003a 1B68     		ldr	r3, [r3]
 3210 003c 5A6C     		ldr	r2, [r3, #68]
 3211 003e 7B68     		ldr	r3, [r7, #4]
 3212 0040 1B68     		ldr	r3, [r3]
 3213 0042 22F40042 		bic	r2, r2, #32768
 3214 0046 5A64     		str	r2, [r3, #68]
 3215              	.L204:
1158:Drivers/STM32F1xx_HAL_Driver/Src/stm32f1xx_hal_tim_ex.c **** 
1159:Drivers/STM32F1xx_HAL_Driver/Src/stm32f1xx_hal_tim_ex.c ****   /* Disable the Peripheral */
1160:Drivers/STM32F1xx_HAL_Driver/Src/stm32f1xx_hal_tim_ex.c ****   __HAL_TIM_DISABLE(htim);
 3216              		.loc 1 1160 3 is_stmt 1
 3217 0048 7B68     		ldr	r3, [r7, #4]
 3218 004a 1B68     		ldr	r3, [r3]
 3219 004c 1A6A     		ldr	r2, [r3, #32]
 3220 004e 41F21113 		movw	r3, #4369
 3221 0052 1340     		ands	r3, r3, r2
 3222 0054 002B     		cmp	r3, #0
 3223 0056 0FD1     		bne	.L205
 3224              		.loc 1 1160 3 is_stmt 0 discriminator 1
 3225 0058 7B68     		ldr	r3, [r7, #4]
 3226 005a 1B68     		ldr	r3, [r3]
 3227 005c 1A6A     		ldr	r2, [r3, #32]
 3228 005e 40F24443 		movw	r3, #1092
 3229 0062 1340     		ands	r3, r3, r2
 3230 0064 002B     		cmp	r3, #0
 3231 0066 07D1     		bne	.L205
 3232              		.loc 1 1160 3 discriminator 2
 3233 0068 7B68     		ldr	r3, [r7, #4]
 3234 006a 1B68     		ldr	r3, [r3]
 3235 006c 1A68     		ldr	r2, [r3]
 3236 006e 7B68     		ldr	r3, [r7, #4]
 3237 0070 1B68     		ldr	r3, [r3]
 3238 0072 22F00102 		bic	r2, r2, #1
 3239 0076 1A60     		str	r2, [r3]
 3240              	.L205:
1161:Drivers/STM32F1xx_HAL_Driver/Src/stm32f1xx_hal_tim_ex.c **** 
1162:Drivers/STM32F1xx_HAL_Driver/Src/stm32f1xx_hal_tim_ex.c ****   /* Set the TIM complementary channel state */
1163:Drivers/STM32F1xx_HAL_Driver/Src/stm32f1xx_hal_tim_ex.c ****   TIM_CHANNEL_N_STATE_SET(htim, Channel, HAL_TIM_CHANNEL_STATE_READY);
 3241              		.loc 1 1163 3 is_stmt 1
 3242 0078 3B68     		ldr	r3, [r7]
 3243 007a 002B     		cmp	r3, #0
 3244 007c 04D1     		bne	.L206
 3245              		.loc 1 1163 3 is_stmt 0 discriminator 1
 3246 007e 7B68     		ldr	r3, [r7, #4]
 3247 0080 0122     		movs	r2, #1
 3248 0082 83F84220 		strb	r2, [r3, #66]
 3249 0086 13E0     		b	.L207
 3250              	.L206:
 3251              		.loc 1 1163 3 discriminator 2
 3252 0088 3B68     		ldr	r3, [r7]
ARM GAS  /tmp//cc6kIlXX.s 			page 78


 3253 008a 042B     		cmp	r3, #4
 3254 008c 04D1     		bne	.L208
 3255              		.loc 1 1163 3 discriminator 3
 3256 008e 7B68     		ldr	r3, [r7, #4]
 3257 0090 0122     		movs	r2, #1
 3258 0092 83F84320 		strb	r2, [r3, #67]
 3259 0096 0BE0     		b	.L207
 3260              	.L208:
 3261              		.loc 1 1163 3 discriminator 4
 3262 0098 3B68     		ldr	r3, [r7]
 3263 009a 082B     		cmp	r3, #8
 3264 009c 04D1     		bne	.L210
 3265              		.loc 1 1163 3 discriminator 6
 3266 009e 7B68     		ldr	r3, [r7, #4]
 3267 00a0 0122     		movs	r2, #1
 3268 00a2 83F84420 		strb	r2, [r3, #68]
 3269 00a6 03E0     		b	.L207
 3270              	.L210:
 3271              		.loc 1 1163 3 discriminator 7
 3272 00a8 7B68     		ldr	r3, [r7, #4]
 3273 00aa 0122     		movs	r2, #1
 3274 00ac 83F84520 		strb	r2, [r3, #69]
 3275              	.L207:
1164:Drivers/STM32F1xx_HAL_Driver/Src/stm32f1xx_hal_tim_ex.c **** 
1165:Drivers/STM32F1xx_HAL_Driver/Src/stm32f1xx_hal_tim_ex.c ****   /* Return function status */
1166:Drivers/STM32F1xx_HAL_Driver/Src/stm32f1xx_hal_tim_ex.c ****   return HAL_OK;
 3276              		.loc 1 1166 10 is_stmt 1
 3277 00b0 0023     		movs	r3, #0
1167:Drivers/STM32F1xx_HAL_Driver/Src/stm32f1xx_hal_tim_ex.c **** }
 3278              		.loc 1 1167 1
 3279 00b2 1846     		mov	r0, r3
 3280 00b4 0837     		adds	r7, r7, #8
 3281              	.LCFI90:
 3282              		.cfi_def_cfa_offset 8
 3283 00b6 BD46     		mov	sp, r7
 3284              	.LCFI91:
 3285              		.cfi_def_cfa_register 13
 3286              		@ sp needed
 3287 00b8 80BD     		pop	{r7, pc}
 3288              		.cfi_endproc
 3289              	.LFE82:
 3291              		.section	.text.HAL_TIMEx_PWMN_Start_IT,"ax",%progbits
 3292              		.align	1
 3293              		.global	HAL_TIMEx_PWMN_Start_IT
 3294              		.syntax unified
 3295              		.thumb
 3296              		.thumb_func
 3298              	HAL_TIMEx_PWMN_Start_IT:
 3299              	.LFB83:
1168:Drivers/STM32F1xx_HAL_Driver/Src/stm32f1xx_hal_tim_ex.c **** 
1169:Drivers/STM32F1xx_HAL_Driver/Src/stm32f1xx_hal_tim_ex.c **** /**
1170:Drivers/STM32F1xx_HAL_Driver/Src/stm32f1xx_hal_tim_ex.c ****   * @brief  Starts the PWM signal generation in interrupt mode on the
1171:Drivers/STM32F1xx_HAL_Driver/Src/stm32f1xx_hal_tim_ex.c ****   *         complementary output.
1172:Drivers/STM32F1xx_HAL_Driver/Src/stm32f1xx_hal_tim_ex.c ****   * @param  htim TIM handle
1173:Drivers/STM32F1xx_HAL_Driver/Src/stm32f1xx_hal_tim_ex.c ****   * @param  Channel TIM Channel to be disabled
1174:Drivers/STM32F1xx_HAL_Driver/Src/stm32f1xx_hal_tim_ex.c ****   *          This parameter can be one of the following values:
1175:Drivers/STM32F1xx_HAL_Driver/Src/stm32f1xx_hal_tim_ex.c ****   *            @arg TIM_CHANNEL_1: TIM Channel 1 selected
ARM GAS  /tmp//cc6kIlXX.s 			page 79


1176:Drivers/STM32F1xx_HAL_Driver/Src/stm32f1xx_hal_tim_ex.c ****   *            @arg TIM_CHANNEL_2: TIM Channel 2 selected
1177:Drivers/STM32F1xx_HAL_Driver/Src/stm32f1xx_hal_tim_ex.c ****   *            @arg TIM_CHANNEL_3: TIM Channel 3 selected
1178:Drivers/STM32F1xx_HAL_Driver/Src/stm32f1xx_hal_tim_ex.c ****   * @retval HAL status
1179:Drivers/STM32F1xx_HAL_Driver/Src/stm32f1xx_hal_tim_ex.c ****   */
1180:Drivers/STM32F1xx_HAL_Driver/Src/stm32f1xx_hal_tim_ex.c **** HAL_StatusTypeDef HAL_TIMEx_PWMN_Start_IT(TIM_HandleTypeDef *htim, uint32_t Channel)
1181:Drivers/STM32F1xx_HAL_Driver/Src/stm32f1xx_hal_tim_ex.c **** {
 3300              		.loc 1 1181 1
 3301              		.cfi_startproc
 3302              		@ args = 0, pretend = 0, frame = 16
 3303              		@ frame_needed = 1, uses_anonymous_args = 0
 3304 0000 80B5     		push	{r7, lr}
 3305              	.LCFI92:
 3306              		.cfi_def_cfa_offset 8
 3307              		.cfi_offset 7, -8
 3308              		.cfi_offset 14, -4
 3309 0002 84B0     		sub	sp, sp, #16
 3310              	.LCFI93:
 3311              		.cfi_def_cfa_offset 24
 3312 0004 00AF     		add	r7, sp, #0
 3313              	.LCFI94:
 3314              		.cfi_def_cfa_register 7
 3315 0006 7860     		str	r0, [r7, #4]
 3316 0008 3960     		str	r1, [r7]
1182:Drivers/STM32F1xx_HAL_Driver/Src/stm32f1xx_hal_tim_ex.c ****   HAL_StatusTypeDef status = HAL_OK;
 3317              		.loc 1 1182 21
 3318 000a 0023     		movs	r3, #0
 3319 000c FB73     		strb	r3, [r7, #15]
1183:Drivers/STM32F1xx_HAL_Driver/Src/stm32f1xx_hal_tim_ex.c ****   uint32_t tmpsmcr;
1184:Drivers/STM32F1xx_HAL_Driver/Src/stm32f1xx_hal_tim_ex.c **** 
1185:Drivers/STM32F1xx_HAL_Driver/Src/stm32f1xx_hal_tim_ex.c ****   /* Check the parameters */
1186:Drivers/STM32F1xx_HAL_Driver/Src/stm32f1xx_hal_tim_ex.c ****   assert_param(IS_TIM_CCXN_INSTANCE(htim->Instance, Channel));
1187:Drivers/STM32F1xx_HAL_Driver/Src/stm32f1xx_hal_tim_ex.c **** 
1188:Drivers/STM32F1xx_HAL_Driver/Src/stm32f1xx_hal_tim_ex.c ****   /* Check the TIM complementary channel state */
1189:Drivers/STM32F1xx_HAL_Driver/Src/stm32f1xx_hal_tim_ex.c ****   if (TIM_CHANNEL_N_STATE_GET(htim, Channel) != HAL_TIM_CHANNEL_STATE_READY)
 3320              		.loc 1 1189 46
 3321 000e 3B68     		ldr	r3, [r7]
 3322 0010 002B     		cmp	r3, #0
 3323 0012 09D1     		bne	.L214
 3324              		.loc 1 1189 7 discriminator 1
 3325 0014 7B68     		ldr	r3, [r7, #4]
 3326 0016 93F84230 		ldrb	r3, [r3, #66]
 3327 001a DBB2     		uxtb	r3, r3
 3328              		.loc 1 1189 46 discriminator 1
 3329 001c 012B     		cmp	r3, #1
 3330 001e 14BF     		ite	ne
 3331 0020 0123     		movne	r3, #1
 3332 0022 0023     		moveq	r3, #0
 3333 0024 DBB2     		uxtb	r3, r3
 3334 0026 22E0     		b	.L215
 3335              	.L214:
 3336              		.loc 1 1189 46 is_stmt 0 discriminator 2
 3337 0028 3B68     		ldr	r3, [r7]
 3338 002a 042B     		cmp	r3, #4
 3339 002c 09D1     		bne	.L216
 3340              		.loc 1 1189 7 is_stmt 1 discriminator 4
 3341 002e 7B68     		ldr	r3, [r7, #4]
 3342 0030 93F84330 		ldrb	r3, [r3, #67]
ARM GAS  /tmp//cc6kIlXX.s 			page 80


 3343 0034 DBB2     		uxtb	r3, r3
 3344              		.loc 1 1189 46 discriminator 4
 3345 0036 012B     		cmp	r3, #1
 3346 0038 14BF     		ite	ne
 3347 003a 0123     		movne	r3, #1
 3348 003c 0023     		moveq	r3, #0
 3349 003e DBB2     		uxtb	r3, r3
 3350 0040 15E0     		b	.L215
 3351              	.L216:
 3352              		.loc 1 1189 46 is_stmt 0 discriminator 5
 3353 0042 3B68     		ldr	r3, [r7]
 3354 0044 082B     		cmp	r3, #8
 3355 0046 09D1     		bne	.L218
 3356              		.loc 1 1189 7 is_stmt 1 discriminator 7
 3357 0048 7B68     		ldr	r3, [r7, #4]
 3358 004a 93F84430 		ldrb	r3, [r3, #68]
 3359 004e DBB2     		uxtb	r3, r3
 3360              		.loc 1 1189 46 discriminator 7
 3361 0050 012B     		cmp	r3, #1
 3362 0052 14BF     		ite	ne
 3363 0054 0123     		movne	r3, #1
 3364 0056 0023     		moveq	r3, #0
 3365 0058 DBB2     		uxtb	r3, r3
 3366 005a 08E0     		b	.L215
 3367              	.L218:
 3368              		.loc 1 1189 7 discriminator 8
 3369 005c 7B68     		ldr	r3, [r7, #4]
 3370 005e 93F84530 		ldrb	r3, [r3, #69]
 3371 0062 DBB2     		uxtb	r3, r3
 3372              		.loc 1 1189 46 discriminator 8
 3373 0064 012B     		cmp	r3, #1
 3374 0066 14BF     		ite	ne
 3375 0068 0123     		movne	r3, #1
 3376 006a 0023     		moveq	r3, #0
 3377 006c DBB2     		uxtb	r3, r3
 3378              	.L215:
 3379              		.loc 1 1189 6 discriminator 12
 3380 006e 002B     		cmp	r3, #0
 3381 0070 01D0     		beq	.L220
1190:Drivers/STM32F1xx_HAL_Driver/Src/stm32f1xx_hal_tim_ex.c ****   {
1191:Drivers/STM32F1xx_HAL_Driver/Src/stm32f1xx_hal_tim_ex.c ****     return HAL_ERROR;
 3382              		.loc 1 1191 12
 3383 0072 0123     		movs	r3, #1
 3384 0074 99E0     		b	.L221
 3385              	.L220:
1192:Drivers/STM32F1xx_HAL_Driver/Src/stm32f1xx_hal_tim_ex.c ****   }
1193:Drivers/STM32F1xx_HAL_Driver/Src/stm32f1xx_hal_tim_ex.c **** 
1194:Drivers/STM32F1xx_HAL_Driver/Src/stm32f1xx_hal_tim_ex.c ****   /* Set the TIM complementary channel state */
1195:Drivers/STM32F1xx_HAL_Driver/Src/stm32f1xx_hal_tim_ex.c ****   TIM_CHANNEL_N_STATE_SET(htim, Channel, HAL_TIM_CHANNEL_STATE_BUSY);
 3386              		.loc 1 1195 3
 3387 0076 3B68     		ldr	r3, [r7]
 3388 0078 002B     		cmp	r3, #0
 3389 007a 04D1     		bne	.L222
 3390              		.loc 1 1195 3 is_stmt 0 discriminator 1
 3391 007c 7B68     		ldr	r3, [r7, #4]
 3392 007e 0222     		movs	r2, #2
 3393 0080 83F84220 		strb	r2, [r3, #66]
ARM GAS  /tmp//cc6kIlXX.s 			page 81


 3394 0084 13E0     		b	.L223
 3395              	.L222:
 3396              		.loc 1 1195 3 discriminator 2
 3397 0086 3B68     		ldr	r3, [r7]
 3398 0088 042B     		cmp	r3, #4
 3399 008a 04D1     		bne	.L224
 3400              		.loc 1 1195 3 discriminator 3
 3401 008c 7B68     		ldr	r3, [r7, #4]
 3402 008e 0222     		movs	r2, #2
 3403 0090 83F84320 		strb	r2, [r3, #67]
 3404 0094 0BE0     		b	.L223
 3405              	.L224:
 3406              		.loc 1 1195 3 discriminator 4
 3407 0096 3B68     		ldr	r3, [r7]
 3408 0098 082B     		cmp	r3, #8
 3409 009a 04D1     		bne	.L226
 3410              		.loc 1 1195 3 discriminator 6
 3411 009c 7B68     		ldr	r3, [r7, #4]
 3412 009e 0222     		movs	r2, #2
 3413 00a0 83F84420 		strb	r2, [r3, #68]
 3414 00a4 03E0     		b	.L223
 3415              	.L226:
 3416              		.loc 1 1195 3 discriminator 7
 3417 00a6 7B68     		ldr	r3, [r7, #4]
 3418 00a8 0222     		movs	r2, #2
 3419 00aa 83F84520 		strb	r2, [r3, #69]
 3420              	.L223:
1196:Drivers/STM32F1xx_HAL_Driver/Src/stm32f1xx_hal_tim_ex.c **** 
1197:Drivers/STM32F1xx_HAL_Driver/Src/stm32f1xx_hal_tim_ex.c ****   switch (Channel)
 3421              		.loc 1 1197 3 is_stmt 1
 3422 00ae 3B68     		ldr	r3, [r7]
 3423 00b0 082B     		cmp	r3, #8
 3424 00b2 1BD0     		beq	.L228
 3425 00b4 3B68     		ldr	r3, [r7]
 3426 00b6 082B     		cmp	r3, #8
 3427 00b8 21D8     		bhi	.L229
 3428 00ba 3B68     		ldr	r3, [r7]
 3429 00bc 002B     		cmp	r3, #0
 3430 00be 03D0     		beq	.L230
 3431 00c0 3B68     		ldr	r3, [r7]
 3432 00c2 042B     		cmp	r3, #4
 3433 00c4 09D0     		beq	.L231
 3434 00c6 1AE0     		b	.L229
 3435              	.L230:
1198:Drivers/STM32F1xx_HAL_Driver/Src/stm32f1xx_hal_tim_ex.c ****   {
1199:Drivers/STM32F1xx_HAL_Driver/Src/stm32f1xx_hal_tim_ex.c ****     case TIM_CHANNEL_1:
1200:Drivers/STM32F1xx_HAL_Driver/Src/stm32f1xx_hal_tim_ex.c ****     {
1201:Drivers/STM32F1xx_HAL_Driver/Src/stm32f1xx_hal_tim_ex.c ****       /* Enable the TIM Capture/Compare 1 interrupt */
1202:Drivers/STM32F1xx_HAL_Driver/Src/stm32f1xx_hal_tim_ex.c ****       __HAL_TIM_ENABLE_IT(htim, TIM_IT_CC1);
 3436              		.loc 1 1202 7
 3437 00c8 7B68     		ldr	r3, [r7, #4]
 3438 00ca 1B68     		ldr	r3, [r3]
 3439 00cc DA68     		ldr	r2, [r3, #12]
 3440 00ce 7B68     		ldr	r3, [r7, #4]
 3441 00d0 1B68     		ldr	r3, [r3]
 3442 00d2 42F00202 		orr	r2, r2, #2
 3443 00d6 DA60     		str	r2, [r3, #12]
ARM GAS  /tmp//cc6kIlXX.s 			page 82


1203:Drivers/STM32F1xx_HAL_Driver/Src/stm32f1xx_hal_tim_ex.c ****       break;
 3444              		.loc 1 1203 7
 3445 00d8 14E0     		b	.L232
 3446              	.L231:
1204:Drivers/STM32F1xx_HAL_Driver/Src/stm32f1xx_hal_tim_ex.c ****     }
1205:Drivers/STM32F1xx_HAL_Driver/Src/stm32f1xx_hal_tim_ex.c **** 
1206:Drivers/STM32F1xx_HAL_Driver/Src/stm32f1xx_hal_tim_ex.c ****     case TIM_CHANNEL_2:
1207:Drivers/STM32F1xx_HAL_Driver/Src/stm32f1xx_hal_tim_ex.c ****     {
1208:Drivers/STM32F1xx_HAL_Driver/Src/stm32f1xx_hal_tim_ex.c ****       /* Enable the TIM Capture/Compare 2 interrupt */
