ARM GAS  /tmp//cc32eCGN.s 			page 1


   1              		.cpu cortex-m3
   2              		.arch armv7-m
   3              		.fpu softvfp
   4              		.eabi_attribute 20, 1
   5              		.eabi_attribute 21, 1
   6              		.eabi_attribute 23, 3
   7              		.eabi_attribute 24, 1
   8              		.eabi_attribute 25, 1
   9              		.eabi_attribute 26, 1
  10              		.eabi_attribute 30, 1
  11              		.eabi_attribute 34, 1
  12              		.eabi_attribute 18, 4
  13              		.file	"stm32f1xx_hal_dma.c"
  14              		.text
  15              	.Ltext0:
  16              		.cfi_sections	.debug_frame
  17              		.file 1 "Drivers/STM32F1xx_HAL_Driver/Src/stm32f1xx_hal_dma.c"
  18              		.section	.text.DMA_SetConfig,"ax",%progbits
  19              		.align	1
  20              		.syntax unified
  21              		.thumb
  22              		.thumb_func
  24              	DMA_SetConfig:
  25              	.LVL0:
  26              	.LFB77:
   1:Drivers/STM32F1xx_HAL_Driver/Src/stm32f1xx_hal_dma.c **** /**
   2:Drivers/STM32F1xx_HAL_Driver/Src/stm32f1xx_hal_dma.c ****   ******************************************************************************
   3:Drivers/STM32F1xx_HAL_Driver/Src/stm32f1xx_hal_dma.c ****   * @file    stm32f1xx_hal_dma.c
   4:Drivers/STM32F1xx_HAL_Driver/Src/stm32f1xx_hal_dma.c ****   * @author  MCD Application Team
   5:Drivers/STM32F1xx_HAL_Driver/Src/stm32f1xx_hal_dma.c ****   * @brief   DMA HAL module driver.
   6:Drivers/STM32F1xx_HAL_Driver/Src/stm32f1xx_hal_dma.c ****   *         This file provides firmware functions to manage the following
   7:Drivers/STM32F1xx_HAL_Driver/Src/stm32f1xx_hal_dma.c ****   *         functionalities of the Direct Memory Access (DMA) peripheral:
   8:Drivers/STM32F1xx_HAL_Driver/Src/stm32f1xx_hal_dma.c ****   *           + Initialization and de-initialization functions
   9:Drivers/STM32F1xx_HAL_Driver/Src/stm32f1xx_hal_dma.c ****   *           + IO operation functions
  10:Drivers/STM32F1xx_HAL_Driver/Src/stm32f1xx_hal_dma.c ****   *           + Peripheral State and errors functions
  11:Drivers/STM32F1xx_HAL_Driver/Src/stm32f1xx_hal_dma.c ****   @verbatim
  12:Drivers/STM32F1xx_HAL_Driver/Src/stm32f1xx_hal_dma.c ****   ==============================================================================
  13:Drivers/STM32F1xx_HAL_Driver/Src/stm32f1xx_hal_dma.c ****                         ##### How to use this driver #####
  14:Drivers/STM32F1xx_HAL_Driver/Src/stm32f1xx_hal_dma.c ****   ==============================================================================
  15:Drivers/STM32F1xx_HAL_Driver/Src/stm32f1xx_hal_dma.c ****   [..]
  16:Drivers/STM32F1xx_HAL_Driver/Src/stm32f1xx_hal_dma.c ****    (#) Enable and configure the peripheral to be connected to the DMA Channel
  17:Drivers/STM32F1xx_HAL_Driver/Src/stm32f1xx_hal_dma.c ****        (except for internal SRAM / FLASH memories: no initialization is 
  18:Drivers/STM32F1xx_HAL_Driver/Src/stm32f1xx_hal_dma.c ****        necessary). Please refer to the Reference manual for connection between peripherals
  19:Drivers/STM32F1xx_HAL_Driver/Src/stm32f1xx_hal_dma.c ****        and DMA requests.
  20:Drivers/STM32F1xx_HAL_Driver/Src/stm32f1xx_hal_dma.c **** 
  21:Drivers/STM32F1xx_HAL_Driver/Src/stm32f1xx_hal_dma.c ****    (#) For a given Channel, program the required configuration through the following parameters:
  22:Drivers/STM32F1xx_HAL_Driver/Src/stm32f1xx_hal_dma.c ****        Channel request, Transfer Direction, Source and Destination data formats,
  23:Drivers/STM32F1xx_HAL_Driver/Src/stm32f1xx_hal_dma.c ****        Circular or Normal mode, Channel Priority level, Source and Destination Increment mode
  24:Drivers/STM32F1xx_HAL_Driver/Src/stm32f1xx_hal_dma.c ****        using HAL_DMA_Init() function.
  25:Drivers/STM32F1xx_HAL_Driver/Src/stm32f1xx_hal_dma.c **** 
  26:Drivers/STM32F1xx_HAL_Driver/Src/stm32f1xx_hal_dma.c ****    (#) Use HAL_DMA_GetState() function to return the DMA state and HAL_DMA_GetError() in case of er
  27:Drivers/STM32F1xx_HAL_Driver/Src/stm32f1xx_hal_dma.c ****        detection.
  28:Drivers/STM32F1xx_HAL_Driver/Src/stm32f1xx_hal_dma.c ****                     
  29:Drivers/STM32F1xx_HAL_Driver/Src/stm32f1xx_hal_dma.c ****    (#) Use HAL_DMA_Abort() function to abort the current transfer
  30:Drivers/STM32F1xx_HAL_Driver/Src/stm32f1xx_hal_dma.c ****                    
  31:Drivers/STM32F1xx_HAL_Driver/Src/stm32f1xx_hal_dma.c ****      -@-   In Memory-to-Memory transfer mode, Circular mode is not allowed.
  32:Drivers/STM32F1xx_HAL_Driver/Src/stm32f1xx_hal_dma.c ****      *** Polling mode IO operation ***
ARM GAS  /tmp//cc32eCGN.s 			page 2


  33:Drivers/STM32F1xx_HAL_Driver/Src/stm32f1xx_hal_dma.c ****      =================================
  34:Drivers/STM32F1xx_HAL_Driver/Src/stm32f1xx_hal_dma.c ****     [..]
  35:Drivers/STM32F1xx_HAL_Driver/Src/stm32f1xx_hal_dma.c ****           (+) Use HAL_DMA_Start() to start DMA transfer after the configuration of Source
  36:Drivers/STM32F1xx_HAL_Driver/Src/stm32f1xx_hal_dma.c ****               address and destination address and the Length of data to be transferred
  37:Drivers/STM32F1xx_HAL_Driver/Src/stm32f1xx_hal_dma.c ****           (+) Use HAL_DMA_PollForTransfer() to poll for the end of current transfer, in this
  38:Drivers/STM32F1xx_HAL_Driver/Src/stm32f1xx_hal_dma.c ****               case a fixed Timeout can be configured by User depending from his application.
  39:Drivers/STM32F1xx_HAL_Driver/Src/stm32f1xx_hal_dma.c **** 
  40:Drivers/STM32F1xx_HAL_Driver/Src/stm32f1xx_hal_dma.c ****      *** Interrupt mode IO operation ***
  41:Drivers/STM32F1xx_HAL_Driver/Src/stm32f1xx_hal_dma.c ****      ===================================
  42:Drivers/STM32F1xx_HAL_Driver/Src/stm32f1xx_hal_dma.c ****     [..]
  43:Drivers/STM32F1xx_HAL_Driver/Src/stm32f1xx_hal_dma.c ****           (+) Configure the DMA interrupt priority using HAL_NVIC_SetPriority()
  44:Drivers/STM32F1xx_HAL_Driver/Src/stm32f1xx_hal_dma.c ****           (+) Enable the DMA IRQ handler using HAL_NVIC_EnableIRQ()
  45:Drivers/STM32F1xx_HAL_Driver/Src/stm32f1xx_hal_dma.c ****           (+) Use HAL_DMA_Start_IT() to start DMA transfer after the configuration of
  46:Drivers/STM32F1xx_HAL_Driver/Src/stm32f1xx_hal_dma.c ****               Source address and destination address and the Length of data to be transferred.
  47:Drivers/STM32F1xx_HAL_Driver/Src/stm32f1xx_hal_dma.c ****               In this case the DMA interrupt is configured
  48:Drivers/STM32F1xx_HAL_Driver/Src/stm32f1xx_hal_dma.c ****           (+) Use HAL_DMA_IRQHandler() called under DMA_IRQHandler() Interrupt subroutine
  49:Drivers/STM32F1xx_HAL_Driver/Src/stm32f1xx_hal_dma.c ****           (+) At the end of data transfer HAL_DMA_IRQHandler() function is executed and user can
  50:Drivers/STM32F1xx_HAL_Driver/Src/stm32f1xx_hal_dma.c ****               add his own function by customization of function pointer XferCpltCallback and
  51:Drivers/STM32F1xx_HAL_Driver/Src/stm32f1xx_hal_dma.c ****               XferErrorCallback (i.e. a member of DMA handle structure).
  52:Drivers/STM32F1xx_HAL_Driver/Src/stm32f1xx_hal_dma.c **** 
  53:Drivers/STM32F1xx_HAL_Driver/Src/stm32f1xx_hal_dma.c ****      *** DMA HAL driver macros list ***
  54:Drivers/STM32F1xx_HAL_Driver/Src/stm32f1xx_hal_dma.c ****      ============================================= 
  55:Drivers/STM32F1xx_HAL_Driver/Src/stm32f1xx_hal_dma.c ****       [..]
  56:Drivers/STM32F1xx_HAL_Driver/Src/stm32f1xx_hal_dma.c ****        Below the list of most used macros in DMA HAL driver.
  57:Drivers/STM32F1xx_HAL_Driver/Src/stm32f1xx_hal_dma.c **** 
  58:Drivers/STM32F1xx_HAL_Driver/Src/stm32f1xx_hal_dma.c ****        (+) __HAL_DMA_ENABLE: Enable the specified DMA Channel.
  59:Drivers/STM32F1xx_HAL_Driver/Src/stm32f1xx_hal_dma.c ****        (+) __HAL_DMA_DISABLE: Disable the specified DMA Channel.
  60:Drivers/STM32F1xx_HAL_Driver/Src/stm32f1xx_hal_dma.c ****        (+) __HAL_DMA_GET_FLAG: Get the DMA Channel pending flags.
  61:Drivers/STM32F1xx_HAL_Driver/Src/stm32f1xx_hal_dma.c ****        (+) __HAL_DMA_CLEAR_FLAG: Clear the DMA Channel pending flags.
  62:Drivers/STM32F1xx_HAL_Driver/Src/stm32f1xx_hal_dma.c ****        (+) __HAL_DMA_ENABLE_IT: Enable the specified DMA Channel interrupts.
  63:Drivers/STM32F1xx_HAL_Driver/Src/stm32f1xx_hal_dma.c ****        (+) __HAL_DMA_DISABLE_IT: Disable the specified DMA Channel interrupts.
  64:Drivers/STM32F1xx_HAL_Driver/Src/stm32f1xx_hal_dma.c ****        (+) __HAL_DMA_GET_IT_SOURCE: Check whether the specified DMA Channel interrupt has occurred 
  65:Drivers/STM32F1xx_HAL_Driver/Src/stm32f1xx_hal_dma.c **** 
  66:Drivers/STM32F1xx_HAL_Driver/Src/stm32f1xx_hal_dma.c ****      [..] 
  67:Drivers/STM32F1xx_HAL_Driver/Src/stm32f1xx_hal_dma.c ****       (@) You can refer to the DMA HAL driver header file for more useful macros  
  68:Drivers/STM32F1xx_HAL_Driver/Src/stm32f1xx_hal_dma.c **** 
  69:Drivers/STM32F1xx_HAL_Driver/Src/stm32f1xx_hal_dma.c ****   @endverbatim
  70:Drivers/STM32F1xx_HAL_Driver/Src/stm32f1xx_hal_dma.c ****   ******************************************************************************
  71:Drivers/STM32F1xx_HAL_Driver/Src/stm32f1xx_hal_dma.c ****   * @attention
  72:Drivers/STM32F1xx_HAL_Driver/Src/stm32f1xx_hal_dma.c ****   *
  73:Drivers/STM32F1xx_HAL_Driver/Src/stm32f1xx_hal_dma.c ****   * Copyright (c) 2016 STMicroelectronics.
  74:Drivers/STM32F1xx_HAL_Driver/Src/stm32f1xx_hal_dma.c ****   * All rights reserved.
  75:Drivers/STM32F1xx_HAL_Driver/Src/stm32f1xx_hal_dma.c ****   *
  76:Drivers/STM32F1xx_HAL_Driver/Src/stm32f1xx_hal_dma.c ****   * This software is licensed under terms that can be found in the LICENSE file in
  77:Drivers/STM32F1xx_HAL_Driver/Src/stm32f1xx_hal_dma.c ****   * the root directory of this software component.
  78:Drivers/STM32F1xx_HAL_Driver/Src/stm32f1xx_hal_dma.c ****   * If no LICENSE file comes with this software, it is provided AS-IS.
  79:Drivers/STM32F1xx_HAL_Driver/Src/stm32f1xx_hal_dma.c ****   *
  80:Drivers/STM32F1xx_HAL_Driver/Src/stm32f1xx_hal_dma.c ****   ******************************************************************************
  81:Drivers/STM32F1xx_HAL_Driver/Src/stm32f1xx_hal_dma.c ****   */
  82:Drivers/STM32F1xx_HAL_Driver/Src/stm32f1xx_hal_dma.c **** 
  83:Drivers/STM32F1xx_HAL_Driver/Src/stm32f1xx_hal_dma.c **** /* Includes ------------------------------------------------------------------*/
  84:Drivers/STM32F1xx_HAL_Driver/Src/stm32f1xx_hal_dma.c **** #include "stm32f1xx_hal.h"
  85:Drivers/STM32F1xx_HAL_Driver/Src/stm32f1xx_hal_dma.c **** 
  86:Drivers/STM32F1xx_HAL_Driver/Src/stm32f1xx_hal_dma.c **** /** @addtogroup STM32F1xx_HAL_Driver
  87:Drivers/STM32F1xx_HAL_Driver/Src/stm32f1xx_hal_dma.c ****   * @{
  88:Drivers/STM32F1xx_HAL_Driver/Src/stm32f1xx_hal_dma.c ****   */
  89:Drivers/STM32F1xx_HAL_Driver/Src/stm32f1xx_hal_dma.c **** 
ARM GAS  /tmp//cc32eCGN.s 			page 3


  90:Drivers/STM32F1xx_HAL_Driver/Src/stm32f1xx_hal_dma.c **** /** @defgroup DMA DMA
  91:Drivers/STM32F1xx_HAL_Driver/Src/stm32f1xx_hal_dma.c ****   * @brief DMA HAL module driver
  92:Drivers/STM32F1xx_HAL_Driver/Src/stm32f1xx_hal_dma.c ****   * @{
  93:Drivers/STM32F1xx_HAL_Driver/Src/stm32f1xx_hal_dma.c ****   */
  94:Drivers/STM32F1xx_HAL_Driver/Src/stm32f1xx_hal_dma.c **** 
  95:Drivers/STM32F1xx_HAL_Driver/Src/stm32f1xx_hal_dma.c **** #ifdef HAL_DMA_MODULE_ENABLED
  96:Drivers/STM32F1xx_HAL_Driver/Src/stm32f1xx_hal_dma.c **** 
  97:Drivers/STM32F1xx_HAL_Driver/Src/stm32f1xx_hal_dma.c **** /* Private typedef -----------------------------------------------------------*/
  98:Drivers/STM32F1xx_HAL_Driver/Src/stm32f1xx_hal_dma.c **** /* Private define ------------------------------------------------------------*/
  99:Drivers/STM32F1xx_HAL_Driver/Src/stm32f1xx_hal_dma.c **** /* Private macro -------------------------------------------------------------*/
 100:Drivers/STM32F1xx_HAL_Driver/Src/stm32f1xx_hal_dma.c **** /* Private variables ---------------------------------------------------------*/
 101:Drivers/STM32F1xx_HAL_Driver/Src/stm32f1xx_hal_dma.c **** /* Private function prototypes -----------------------------------------------*/
 102:Drivers/STM32F1xx_HAL_Driver/Src/stm32f1xx_hal_dma.c **** /** @defgroup DMA_Private_Functions DMA Private Functions
 103:Drivers/STM32F1xx_HAL_Driver/Src/stm32f1xx_hal_dma.c ****   * @{
 104:Drivers/STM32F1xx_HAL_Driver/Src/stm32f1xx_hal_dma.c ****   */
 105:Drivers/STM32F1xx_HAL_Driver/Src/stm32f1xx_hal_dma.c **** static void DMA_SetConfig(DMA_HandleTypeDef *hdma, uint32_t SrcAddress, uint32_t DstAddress, uint32
 106:Drivers/STM32F1xx_HAL_Driver/Src/stm32f1xx_hal_dma.c **** /**
 107:Drivers/STM32F1xx_HAL_Driver/Src/stm32f1xx_hal_dma.c ****   * @}
 108:Drivers/STM32F1xx_HAL_Driver/Src/stm32f1xx_hal_dma.c ****   */
 109:Drivers/STM32F1xx_HAL_Driver/Src/stm32f1xx_hal_dma.c **** 
 110:Drivers/STM32F1xx_HAL_Driver/Src/stm32f1xx_hal_dma.c **** /* Exported functions ---------------------------------------------------------*/
 111:Drivers/STM32F1xx_HAL_Driver/Src/stm32f1xx_hal_dma.c **** 
 112:Drivers/STM32F1xx_HAL_Driver/Src/stm32f1xx_hal_dma.c **** /** @defgroup DMA_Exported_Functions DMA Exported Functions
 113:Drivers/STM32F1xx_HAL_Driver/Src/stm32f1xx_hal_dma.c ****   * @{
 114:Drivers/STM32F1xx_HAL_Driver/Src/stm32f1xx_hal_dma.c ****   */
 115:Drivers/STM32F1xx_HAL_Driver/Src/stm32f1xx_hal_dma.c **** 
 116:Drivers/STM32F1xx_HAL_Driver/Src/stm32f1xx_hal_dma.c **** /** @defgroup DMA_Exported_Functions_Group1 Initialization and de-initialization functions
 117:Drivers/STM32F1xx_HAL_Driver/Src/stm32f1xx_hal_dma.c ****   *  @brief   Initialization and de-initialization functions 
 118:Drivers/STM32F1xx_HAL_Driver/Src/stm32f1xx_hal_dma.c ****   *
 119:Drivers/STM32F1xx_HAL_Driver/Src/stm32f1xx_hal_dma.c **** @verbatim
 120:Drivers/STM32F1xx_HAL_Driver/Src/stm32f1xx_hal_dma.c ****  ===============================================================================
 121:Drivers/STM32F1xx_HAL_Driver/Src/stm32f1xx_hal_dma.c ****              ##### Initialization and de-initialization functions  #####
 122:Drivers/STM32F1xx_HAL_Driver/Src/stm32f1xx_hal_dma.c ****  ===============================================================================
 123:Drivers/STM32F1xx_HAL_Driver/Src/stm32f1xx_hal_dma.c ****     [..]
 124:Drivers/STM32F1xx_HAL_Driver/Src/stm32f1xx_hal_dma.c ****     This section provides functions allowing to initialize the DMA Channel source
 125:Drivers/STM32F1xx_HAL_Driver/Src/stm32f1xx_hal_dma.c ****     and destination addresses, incrementation and data sizes, transfer direction, 
 126:Drivers/STM32F1xx_HAL_Driver/Src/stm32f1xx_hal_dma.c ****     circular/normal mode selection, memory-to-memory mode selection and Channel priority value.
 127:Drivers/STM32F1xx_HAL_Driver/Src/stm32f1xx_hal_dma.c ****     [..]
 128:Drivers/STM32F1xx_HAL_Driver/Src/stm32f1xx_hal_dma.c ****     The HAL_DMA_Init() function follows the DMA configuration procedures as described in
 129:Drivers/STM32F1xx_HAL_Driver/Src/stm32f1xx_hal_dma.c ****     reference manual.  
 130:Drivers/STM32F1xx_HAL_Driver/Src/stm32f1xx_hal_dma.c **** 
 131:Drivers/STM32F1xx_HAL_Driver/Src/stm32f1xx_hal_dma.c **** @endverbatim
 132:Drivers/STM32F1xx_HAL_Driver/Src/stm32f1xx_hal_dma.c ****   * @{
 133:Drivers/STM32F1xx_HAL_Driver/Src/stm32f1xx_hal_dma.c ****   */
 134:Drivers/STM32F1xx_HAL_Driver/Src/stm32f1xx_hal_dma.c **** 
 135:Drivers/STM32F1xx_HAL_Driver/Src/stm32f1xx_hal_dma.c **** /**
 136:Drivers/STM32F1xx_HAL_Driver/Src/stm32f1xx_hal_dma.c ****   * @brief  Initialize the DMA according to the specified
 137:Drivers/STM32F1xx_HAL_Driver/Src/stm32f1xx_hal_dma.c ****   *         parameters in the DMA_InitTypeDef and initialize the associated handle.
 138:Drivers/STM32F1xx_HAL_Driver/Src/stm32f1xx_hal_dma.c ****   * @param  hdma: Pointer to a DMA_HandleTypeDef structure that contains
 139:Drivers/STM32F1xx_HAL_Driver/Src/stm32f1xx_hal_dma.c ****   *               the configuration information for the specified DMA Channel.
 140:Drivers/STM32F1xx_HAL_Driver/Src/stm32f1xx_hal_dma.c ****   * @retval HAL status
 141:Drivers/STM32F1xx_HAL_Driver/Src/stm32f1xx_hal_dma.c ****   */
 142:Drivers/STM32F1xx_HAL_Driver/Src/stm32f1xx_hal_dma.c **** HAL_StatusTypeDef HAL_DMA_Init(DMA_HandleTypeDef *hdma)
 143:Drivers/STM32F1xx_HAL_Driver/Src/stm32f1xx_hal_dma.c **** {
 144:Drivers/STM32F1xx_HAL_Driver/Src/stm32f1xx_hal_dma.c ****   uint32_t tmp = 0U;
 145:Drivers/STM32F1xx_HAL_Driver/Src/stm32f1xx_hal_dma.c **** 
 146:Drivers/STM32F1xx_HAL_Driver/Src/stm32f1xx_hal_dma.c ****   /* Check the DMA handle allocation */
ARM GAS  /tmp//cc32eCGN.s 			page 4


 147:Drivers/STM32F1xx_HAL_Driver/Src/stm32f1xx_hal_dma.c ****   if(hdma == NULL)
 148:Drivers/STM32F1xx_HAL_Driver/Src/stm32f1xx_hal_dma.c ****   {
 149:Drivers/STM32F1xx_HAL_Driver/Src/stm32f1xx_hal_dma.c ****     return HAL_ERROR;
 150:Drivers/STM32F1xx_HAL_Driver/Src/stm32f1xx_hal_dma.c ****   }
 151:Drivers/STM32F1xx_HAL_Driver/Src/stm32f1xx_hal_dma.c **** 
 152:Drivers/STM32F1xx_HAL_Driver/Src/stm32f1xx_hal_dma.c ****   /* Check the parameters */
 153:Drivers/STM32F1xx_HAL_Driver/Src/stm32f1xx_hal_dma.c ****   assert_param(IS_DMA_ALL_INSTANCE(hdma->Instance));
 154:Drivers/STM32F1xx_HAL_Driver/Src/stm32f1xx_hal_dma.c ****   assert_param(IS_DMA_DIRECTION(hdma->Init.Direction));
 155:Drivers/STM32F1xx_HAL_Driver/Src/stm32f1xx_hal_dma.c ****   assert_param(IS_DMA_PERIPHERAL_INC_STATE(hdma->Init.PeriphInc));
 156:Drivers/STM32F1xx_HAL_Driver/Src/stm32f1xx_hal_dma.c ****   assert_param(IS_DMA_MEMORY_INC_STATE(hdma->Init.MemInc));
 157:Drivers/STM32F1xx_HAL_Driver/Src/stm32f1xx_hal_dma.c ****   assert_param(IS_DMA_PERIPHERAL_DATA_SIZE(hdma->Init.PeriphDataAlignment));
 158:Drivers/STM32F1xx_HAL_Driver/Src/stm32f1xx_hal_dma.c ****   assert_param(IS_DMA_MEMORY_DATA_SIZE(hdma->Init.MemDataAlignment));
 159:Drivers/STM32F1xx_HAL_Driver/Src/stm32f1xx_hal_dma.c ****   assert_param(IS_DMA_MODE(hdma->Init.Mode));
 160:Drivers/STM32F1xx_HAL_Driver/Src/stm32f1xx_hal_dma.c ****   assert_param(IS_DMA_PRIORITY(hdma->Init.Priority));
 161:Drivers/STM32F1xx_HAL_Driver/Src/stm32f1xx_hal_dma.c **** 
 162:Drivers/STM32F1xx_HAL_Driver/Src/stm32f1xx_hal_dma.c **** #if defined (DMA2)
 163:Drivers/STM32F1xx_HAL_Driver/Src/stm32f1xx_hal_dma.c ****   /* calculation of the channel index */
 164:Drivers/STM32F1xx_HAL_Driver/Src/stm32f1xx_hal_dma.c ****   if ((uint32_t)(hdma->Instance) < (uint32_t)(DMA2_Channel1))
 165:Drivers/STM32F1xx_HAL_Driver/Src/stm32f1xx_hal_dma.c ****   {
 166:Drivers/STM32F1xx_HAL_Driver/Src/stm32f1xx_hal_dma.c ****     /* DMA1 */
 167:Drivers/STM32F1xx_HAL_Driver/Src/stm32f1xx_hal_dma.c ****     hdma->ChannelIndex = (((uint32_t)hdma->Instance - (uint32_t)DMA1_Channel1) / ((uint32_t)DMA1_Ch
 168:Drivers/STM32F1xx_HAL_Driver/Src/stm32f1xx_hal_dma.c ****     hdma->DmaBaseAddress = DMA1;
 169:Drivers/STM32F1xx_HAL_Driver/Src/stm32f1xx_hal_dma.c ****   }
 170:Drivers/STM32F1xx_HAL_Driver/Src/stm32f1xx_hal_dma.c ****   else 
 171:Drivers/STM32F1xx_HAL_Driver/Src/stm32f1xx_hal_dma.c ****   {
 172:Drivers/STM32F1xx_HAL_Driver/Src/stm32f1xx_hal_dma.c ****     /* DMA2 */
 173:Drivers/STM32F1xx_HAL_Driver/Src/stm32f1xx_hal_dma.c ****     hdma->ChannelIndex = (((uint32_t)hdma->Instance - (uint32_t)DMA2_Channel1) / ((uint32_t)DMA2_Ch
 174:Drivers/STM32F1xx_HAL_Driver/Src/stm32f1xx_hal_dma.c ****     hdma->DmaBaseAddress = DMA2;
 175:Drivers/STM32F1xx_HAL_Driver/Src/stm32f1xx_hal_dma.c ****   }
 176:Drivers/STM32F1xx_HAL_Driver/Src/stm32f1xx_hal_dma.c **** #else
 177:Drivers/STM32F1xx_HAL_Driver/Src/stm32f1xx_hal_dma.c ****   /* DMA1 */
 178:Drivers/STM32F1xx_HAL_Driver/Src/stm32f1xx_hal_dma.c ****   hdma->ChannelIndex = (((uint32_t)hdma->Instance - (uint32_t)DMA1_Channel1) / ((uint32_t)DMA1_Chan
 179:Drivers/STM32F1xx_HAL_Driver/Src/stm32f1xx_hal_dma.c ****   hdma->DmaBaseAddress = DMA1;
 180:Drivers/STM32F1xx_HAL_Driver/Src/stm32f1xx_hal_dma.c **** #endif /* DMA2 */
 181:Drivers/STM32F1xx_HAL_Driver/Src/stm32f1xx_hal_dma.c **** 
 182:Drivers/STM32F1xx_HAL_Driver/Src/stm32f1xx_hal_dma.c ****   /* Change DMA peripheral state */
 183:Drivers/STM32F1xx_HAL_Driver/Src/stm32f1xx_hal_dma.c ****   hdma->State = HAL_DMA_STATE_BUSY;
 184:Drivers/STM32F1xx_HAL_Driver/Src/stm32f1xx_hal_dma.c **** 
 185:Drivers/STM32F1xx_HAL_Driver/Src/stm32f1xx_hal_dma.c ****   /* Get the CR register value */
 186:Drivers/STM32F1xx_HAL_Driver/Src/stm32f1xx_hal_dma.c ****   tmp = hdma->Instance->CCR;
 187:Drivers/STM32F1xx_HAL_Driver/Src/stm32f1xx_hal_dma.c **** 
 188:Drivers/STM32F1xx_HAL_Driver/Src/stm32f1xx_hal_dma.c ****   /* Clear PL, MSIZE, PSIZE, MINC, PINC, CIRC and DIR bits */
 189:Drivers/STM32F1xx_HAL_Driver/Src/stm32f1xx_hal_dma.c ****   tmp &= ((uint32_t)~(DMA_CCR_PL    | DMA_CCR_MSIZE  | DMA_CCR_PSIZE  | \
 190:Drivers/STM32F1xx_HAL_Driver/Src/stm32f1xx_hal_dma.c ****                       DMA_CCR_MINC  | DMA_CCR_PINC   | DMA_CCR_CIRC   | \
 191:Drivers/STM32F1xx_HAL_Driver/Src/stm32f1xx_hal_dma.c ****                       DMA_CCR_DIR));
 192:Drivers/STM32F1xx_HAL_Driver/Src/stm32f1xx_hal_dma.c **** 
 193:Drivers/STM32F1xx_HAL_Driver/Src/stm32f1xx_hal_dma.c ****   /* Prepare the DMA Channel configuration */
 194:Drivers/STM32F1xx_HAL_Driver/Src/stm32f1xx_hal_dma.c ****   tmp |=  hdma->Init.Direction        |
 195:Drivers/STM32F1xx_HAL_Driver/Src/stm32f1xx_hal_dma.c ****           hdma->Init.PeriphInc           | hdma->Init.MemInc           |
 196:Drivers/STM32F1xx_HAL_Driver/Src/stm32f1xx_hal_dma.c ****           hdma->Init.PeriphDataAlignment | hdma->Init.MemDataAlignment |
 197:Drivers/STM32F1xx_HAL_Driver/Src/stm32f1xx_hal_dma.c ****           hdma->Init.Mode                | hdma->Init.Priority;
 198:Drivers/STM32F1xx_HAL_Driver/Src/stm32f1xx_hal_dma.c **** 
 199:Drivers/STM32F1xx_HAL_Driver/Src/stm32f1xx_hal_dma.c ****   /* Write to DMA Channel CR register */
 200:Drivers/STM32F1xx_HAL_Driver/Src/stm32f1xx_hal_dma.c ****   hdma->Instance->CCR = tmp;
 201:Drivers/STM32F1xx_HAL_Driver/Src/stm32f1xx_hal_dma.c **** 
 202:Drivers/STM32F1xx_HAL_Driver/Src/stm32f1xx_hal_dma.c ****   /* Initialise the error code */
 203:Drivers/STM32F1xx_HAL_Driver/Src/stm32f1xx_hal_dma.c ****   hdma->ErrorCode = HAL_DMA_ERROR_NONE;
ARM GAS  /tmp//cc32eCGN.s 			page 5


 204:Drivers/STM32F1xx_HAL_Driver/Src/stm32f1xx_hal_dma.c **** 
 205:Drivers/STM32F1xx_HAL_Driver/Src/stm32f1xx_hal_dma.c ****   /* Initialize the DMA state*/
 206:Drivers/STM32F1xx_HAL_Driver/Src/stm32f1xx_hal_dma.c ****   hdma->State = HAL_DMA_STATE_READY;
 207:Drivers/STM32F1xx_HAL_Driver/Src/stm32f1xx_hal_dma.c ****   /* Allocate lock resource and initialize it */
 208:Drivers/STM32F1xx_HAL_Driver/Src/stm32f1xx_hal_dma.c ****   hdma->Lock = HAL_UNLOCKED;
 209:Drivers/STM32F1xx_HAL_Driver/Src/stm32f1xx_hal_dma.c **** 
 210:Drivers/STM32F1xx_HAL_Driver/Src/stm32f1xx_hal_dma.c ****   return HAL_OK;
 211:Drivers/STM32F1xx_HAL_Driver/Src/stm32f1xx_hal_dma.c **** }
 212:Drivers/STM32F1xx_HAL_Driver/Src/stm32f1xx_hal_dma.c **** 
 213:Drivers/STM32F1xx_HAL_Driver/Src/stm32f1xx_hal_dma.c **** /**
 214:Drivers/STM32F1xx_HAL_Driver/Src/stm32f1xx_hal_dma.c ****   * @brief  DeInitialize the DMA peripheral.
 215:Drivers/STM32F1xx_HAL_Driver/Src/stm32f1xx_hal_dma.c ****   * @param  hdma: pointer to a DMA_HandleTypeDef structure that contains
 216:Drivers/STM32F1xx_HAL_Driver/Src/stm32f1xx_hal_dma.c ****   *               the configuration information for the specified DMA Channel.
 217:Drivers/STM32F1xx_HAL_Driver/Src/stm32f1xx_hal_dma.c ****   * @retval HAL status
 218:Drivers/STM32F1xx_HAL_Driver/Src/stm32f1xx_hal_dma.c ****   */
 219:Drivers/STM32F1xx_HAL_Driver/Src/stm32f1xx_hal_dma.c **** HAL_StatusTypeDef HAL_DMA_DeInit(DMA_HandleTypeDef *hdma)
 220:Drivers/STM32F1xx_HAL_Driver/Src/stm32f1xx_hal_dma.c **** {
 221:Drivers/STM32F1xx_HAL_Driver/Src/stm32f1xx_hal_dma.c ****   /* Check the DMA handle allocation */
 222:Drivers/STM32F1xx_HAL_Driver/Src/stm32f1xx_hal_dma.c ****   if(hdma == NULL)
 223:Drivers/STM32F1xx_HAL_Driver/Src/stm32f1xx_hal_dma.c ****   {
 224:Drivers/STM32F1xx_HAL_Driver/Src/stm32f1xx_hal_dma.c ****     return HAL_ERROR;
 225:Drivers/STM32F1xx_HAL_Driver/Src/stm32f1xx_hal_dma.c ****   }
 226:Drivers/STM32F1xx_HAL_Driver/Src/stm32f1xx_hal_dma.c **** 
 227:Drivers/STM32F1xx_HAL_Driver/Src/stm32f1xx_hal_dma.c ****   /* Check the parameters */
 228:Drivers/STM32F1xx_HAL_Driver/Src/stm32f1xx_hal_dma.c ****   assert_param(IS_DMA_ALL_INSTANCE(hdma->Instance));
 229:Drivers/STM32F1xx_HAL_Driver/Src/stm32f1xx_hal_dma.c **** 
 230:Drivers/STM32F1xx_HAL_Driver/Src/stm32f1xx_hal_dma.c ****   /* Disable the selected DMA Channelx */
 231:Drivers/STM32F1xx_HAL_Driver/Src/stm32f1xx_hal_dma.c ****   __HAL_DMA_DISABLE(hdma);
 232:Drivers/STM32F1xx_HAL_Driver/Src/stm32f1xx_hal_dma.c **** 
 233:Drivers/STM32F1xx_HAL_Driver/Src/stm32f1xx_hal_dma.c ****   /* Reset DMA Channel control register */
 234:Drivers/STM32F1xx_HAL_Driver/Src/stm32f1xx_hal_dma.c ****   hdma->Instance->CCR  = 0U;
 235:Drivers/STM32F1xx_HAL_Driver/Src/stm32f1xx_hal_dma.c **** 
 236:Drivers/STM32F1xx_HAL_Driver/Src/stm32f1xx_hal_dma.c ****   /* Reset DMA Channel Number of Data to Transfer register */
 237:Drivers/STM32F1xx_HAL_Driver/Src/stm32f1xx_hal_dma.c ****   hdma->Instance->CNDTR = 0U;
 238:Drivers/STM32F1xx_HAL_Driver/Src/stm32f1xx_hal_dma.c **** 
 239:Drivers/STM32F1xx_HAL_Driver/Src/stm32f1xx_hal_dma.c ****   /* Reset DMA Channel peripheral address register */
 240:Drivers/STM32F1xx_HAL_Driver/Src/stm32f1xx_hal_dma.c ****   hdma->Instance->CPAR  = 0U;
 241:Drivers/STM32F1xx_HAL_Driver/Src/stm32f1xx_hal_dma.c **** 
 242:Drivers/STM32F1xx_HAL_Driver/Src/stm32f1xx_hal_dma.c ****   /* Reset DMA Channel memory address register */
 243:Drivers/STM32F1xx_HAL_Driver/Src/stm32f1xx_hal_dma.c ****   hdma->Instance->CMAR = 0U;
 244:Drivers/STM32F1xx_HAL_Driver/Src/stm32f1xx_hal_dma.c **** 
 245:Drivers/STM32F1xx_HAL_Driver/Src/stm32f1xx_hal_dma.c **** #if defined (DMA2)
 246:Drivers/STM32F1xx_HAL_Driver/Src/stm32f1xx_hal_dma.c ****   /* calculation of the channel index */
 247:Drivers/STM32F1xx_HAL_Driver/Src/stm32f1xx_hal_dma.c ****   if ((uint32_t)(hdma->Instance) < (uint32_t)(DMA2_Channel1))
 248:Drivers/STM32F1xx_HAL_Driver/Src/stm32f1xx_hal_dma.c ****   {
 249:Drivers/STM32F1xx_HAL_Driver/Src/stm32f1xx_hal_dma.c ****     /* DMA1 */
 250:Drivers/STM32F1xx_HAL_Driver/Src/stm32f1xx_hal_dma.c ****     hdma->ChannelIndex = (((uint32_t)hdma->Instance - (uint32_t)DMA1_Channel1) / ((uint32_t)DMA1_Ch
 251:Drivers/STM32F1xx_HAL_Driver/Src/stm32f1xx_hal_dma.c ****     hdma->DmaBaseAddress = DMA1;
 252:Drivers/STM32F1xx_HAL_Driver/Src/stm32f1xx_hal_dma.c ****   }
 253:Drivers/STM32F1xx_HAL_Driver/Src/stm32f1xx_hal_dma.c ****   else
 254:Drivers/STM32F1xx_HAL_Driver/Src/stm32f1xx_hal_dma.c ****   {
 255:Drivers/STM32F1xx_HAL_Driver/Src/stm32f1xx_hal_dma.c ****     /* DMA2 */
 256:Drivers/STM32F1xx_HAL_Driver/Src/stm32f1xx_hal_dma.c ****     hdma->ChannelIndex = (((uint32_t)hdma->Instance - (uint32_t)DMA2_Channel1) / ((uint32_t)DMA2_Ch
 257:Drivers/STM32F1xx_HAL_Driver/Src/stm32f1xx_hal_dma.c ****     hdma->DmaBaseAddress = DMA2;
 258:Drivers/STM32F1xx_HAL_Driver/Src/stm32f1xx_hal_dma.c ****   }
 259:Drivers/STM32F1xx_HAL_Driver/Src/stm32f1xx_hal_dma.c **** #else
 260:Drivers/STM32F1xx_HAL_Driver/Src/stm32f1xx_hal_dma.c ****   /* DMA1 */
ARM GAS  /tmp//cc32eCGN.s 			page 6


 261:Drivers/STM32F1xx_HAL_Driver/Src/stm32f1xx_hal_dma.c ****   hdma->ChannelIndex = (((uint32_t)hdma->Instance - (uint32_t)DMA1_Channel1) / ((uint32_t)DMA1_Chan
 262:Drivers/STM32F1xx_HAL_Driver/Src/stm32f1xx_hal_dma.c ****   hdma->DmaBaseAddress = DMA1;
 263:Drivers/STM32F1xx_HAL_Driver/Src/stm32f1xx_hal_dma.c **** #endif /* DMA2 */
 264:Drivers/STM32F1xx_HAL_Driver/Src/stm32f1xx_hal_dma.c **** 
 265:Drivers/STM32F1xx_HAL_Driver/Src/stm32f1xx_hal_dma.c ****   /* Clear all flags */
 266:Drivers/STM32F1xx_HAL_Driver/Src/stm32f1xx_hal_dma.c ****   hdma->DmaBaseAddress->IFCR = (DMA_ISR_GIF1 << (hdma->ChannelIndex));
 267:Drivers/STM32F1xx_HAL_Driver/Src/stm32f1xx_hal_dma.c **** 
 268:Drivers/STM32F1xx_HAL_Driver/Src/stm32f1xx_hal_dma.c ****   /* Clean all callbacks */
 269:Drivers/STM32F1xx_HAL_Driver/Src/stm32f1xx_hal_dma.c ****   hdma->XferCpltCallback = NULL;
 270:Drivers/STM32F1xx_HAL_Driver/Src/stm32f1xx_hal_dma.c ****   hdma->XferHalfCpltCallback = NULL;
 271:Drivers/STM32F1xx_HAL_Driver/Src/stm32f1xx_hal_dma.c ****   hdma->XferErrorCallback = NULL;
 272:Drivers/STM32F1xx_HAL_Driver/Src/stm32f1xx_hal_dma.c ****   hdma->XferAbortCallback = NULL;
 273:Drivers/STM32F1xx_HAL_Driver/Src/stm32f1xx_hal_dma.c **** 
 274:Drivers/STM32F1xx_HAL_Driver/Src/stm32f1xx_hal_dma.c ****   /* Reset the error code */
 275:Drivers/STM32F1xx_HAL_Driver/Src/stm32f1xx_hal_dma.c ****   hdma->ErrorCode = HAL_DMA_ERROR_NONE;
 276:Drivers/STM32F1xx_HAL_Driver/Src/stm32f1xx_hal_dma.c **** 
 277:Drivers/STM32F1xx_HAL_Driver/Src/stm32f1xx_hal_dma.c ****   /* Reset the DMA state */
 278:Drivers/STM32F1xx_HAL_Driver/Src/stm32f1xx_hal_dma.c ****   hdma->State = HAL_DMA_STATE_RESET;
 279:Drivers/STM32F1xx_HAL_Driver/Src/stm32f1xx_hal_dma.c **** 
 280:Drivers/STM32F1xx_HAL_Driver/Src/stm32f1xx_hal_dma.c ****   /* Release Lock */
 281:Drivers/STM32F1xx_HAL_Driver/Src/stm32f1xx_hal_dma.c ****   __HAL_UNLOCK(hdma);
 282:Drivers/STM32F1xx_HAL_Driver/Src/stm32f1xx_hal_dma.c **** 
 283:Drivers/STM32F1xx_HAL_Driver/Src/stm32f1xx_hal_dma.c ****   return HAL_OK;
 284:Drivers/STM32F1xx_HAL_Driver/Src/stm32f1xx_hal_dma.c **** }
 285:Drivers/STM32F1xx_HAL_Driver/Src/stm32f1xx_hal_dma.c **** 
 286:Drivers/STM32F1xx_HAL_Driver/Src/stm32f1xx_hal_dma.c **** /**
 287:Drivers/STM32F1xx_HAL_Driver/Src/stm32f1xx_hal_dma.c ****   * @}
 288:Drivers/STM32F1xx_HAL_Driver/Src/stm32f1xx_hal_dma.c ****   */
 289:Drivers/STM32F1xx_HAL_Driver/Src/stm32f1xx_hal_dma.c **** 
 290:Drivers/STM32F1xx_HAL_Driver/Src/stm32f1xx_hal_dma.c **** /** @defgroup DMA_Exported_Functions_Group2 Input and Output operation functions
 291:Drivers/STM32F1xx_HAL_Driver/Src/stm32f1xx_hal_dma.c ****   *  @brief   Input and Output operation functions
 292:Drivers/STM32F1xx_HAL_Driver/Src/stm32f1xx_hal_dma.c ****   *
 293:Drivers/STM32F1xx_HAL_Driver/Src/stm32f1xx_hal_dma.c **** @verbatim
 294:Drivers/STM32F1xx_HAL_Driver/Src/stm32f1xx_hal_dma.c ****  ===============================================================================
 295:Drivers/STM32F1xx_HAL_Driver/Src/stm32f1xx_hal_dma.c ****                       #####  IO operation functions  #####
 296:Drivers/STM32F1xx_HAL_Driver/Src/stm32f1xx_hal_dma.c ****  ===============================================================================
 297:Drivers/STM32F1xx_HAL_Driver/Src/stm32f1xx_hal_dma.c ****     [..]  This section provides functions allowing to:
 298:Drivers/STM32F1xx_HAL_Driver/Src/stm32f1xx_hal_dma.c ****       (+) Configure the source, destination address and data length and Start DMA transfer
 299:Drivers/STM32F1xx_HAL_Driver/Src/stm32f1xx_hal_dma.c ****       (+) Configure the source, destination address and data length and
 300:Drivers/STM32F1xx_HAL_Driver/Src/stm32f1xx_hal_dma.c ****           Start DMA transfer with interrupt
 301:Drivers/STM32F1xx_HAL_Driver/Src/stm32f1xx_hal_dma.c ****       (+) Abort DMA transfer
 302:Drivers/STM32F1xx_HAL_Driver/Src/stm32f1xx_hal_dma.c ****       (+) Poll for transfer complete
 303:Drivers/STM32F1xx_HAL_Driver/Src/stm32f1xx_hal_dma.c ****       (+) Handle DMA interrupt request
 304:Drivers/STM32F1xx_HAL_Driver/Src/stm32f1xx_hal_dma.c **** 
 305:Drivers/STM32F1xx_HAL_Driver/Src/stm32f1xx_hal_dma.c **** @endverbatim
 306:Drivers/STM32F1xx_HAL_Driver/Src/stm32f1xx_hal_dma.c ****   * @{
 307:Drivers/STM32F1xx_HAL_Driver/Src/stm32f1xx_hal_dma.c ****   */
 308:Drivers/STM32F1xx_HAL_Driver/Src/stm32f1xx_hal_dma.c **** 
 309:Drivers/STM32F1xx_HAL_Driver/Src/stm32f1xx_hal_dma.c **** /**
 310:Drivers/STM32F1xx_HAL_Driver/Src/stm32f1xx_hal_dma.c ****   * @brief  Start the DMA Transfer.
 311:Drivers/STM32F1xx_HAL_Driver/Src/stm32f1xx_hal_dma.c ****   * @param  hdma: pointer to a DMA_HandleTypeDef structure that contains
 312:Drivers/STM32F1xx_HAL_Driver/Src/stm32f1xx_hal_dma.c ****   *               the configuration information for the specified DMA Channel.
 313:Drivers/STM32F1xx_HAL_Driver/Src/stm32f1xx_hal_dma.c ****   * @param  SrcAddress: The source memory Buffer address
 314:Drivers/STM32F1xx_HAL_Driver/Src/stm32f1xx_hal_dma.c ****   * @param  DstAddress: The destination memory Buffer address
 315:Drivers/STM32F1xx_HAL_Driver/Src/stm32f1xx_hal_dma.c ****   * @param  DataLength: The length of data to be transferred from source to destination
 316:Drivers/STM32F1xx_HAL_Driver/Src/stm32f1xx_hal_dma.c ****   * @retval HAL status
 317:Drivers/STM32F1xx_HAL_Driver/Src/stm32f1xx_hal_dma.c ****   */
ARM GAS  /tmp//cc32eCGN.s 			page 7


 318:Drivers/STM32F1xx_HAL_Driver/Src/stm32f1xx_hal_dma.c **** HAL_StatusTypeDef HAL_DMA_Start(DMA_HandleTypeDef *hdma, uint32_t SrcAddress, uint32_t DstAddress, 
 319:Drivers/STM32F1xx_HAL_Driver/Src/stm32f1xx_hal_dma.c **** {
 320:Drivers/STM32F1xx_HAL_Driver/Src/stm32f1xx_hal_dma.c ****   HAL_StatusTypeDef status = HAL_OK;
 321:Drivers/STM32F1xx_HAL_Driver/Src/stm32f1xx_hal_dma.c **** 
 322:Drivers/STM32F1xx_HAL_Driver/Src/stm32f1xx_hal_dma.c ****   /* Check the parameters */
 323:Drivers/STM32F1xx_HAL_Driver/Src/stm32f1xx_hal_dma.c ****   assert_param(IS_DMA_BUFFER_SIZE(DataLength));
 324:Drivers/STM32F1xx_HAL_Driver/Src/stm32f1xx_hal_dma.c **** 
 325:Drivers/STM32F1xx_HAL_Driver/Src/stm32f1xx_hal_dma.c ****   /* Process locked */
 326:Drivers/STM32F1xx_HAL_Driver/Src/stm32f1xx_hal_dma.c ****   __HAL_LOCK(hdma);
 327:Drivers/STM32F1xx_HAL_Driver/Src/stm32f1xx_hal_dma.c **** 
 328:Drivers/STM32F1xx_HAL_Driver/Src/stm32f1xx_hal_dma.c ****   if(HAL_DMA_STATE_READY == hdma->State)
 329:Drivers/STM32F1xx_HAL_Driver/Src/stm32f1xx_hal_dma.c ****   {
 330:Drivers/STM32F1xx_HAL_Driver/Src/stm32f1xx_hal_dma.c ****     /* Change DMA peripheral state */
 331:Drivers/STM32F1xx_HAL_Driver/Src/stm32f1xx_hal_dma.c ****     hdma->State = HAL_DMA_STATE_BUSY;
 332:Drivers/STM32F1xx_HAL_Driver/Src/stm32f1xx_hal_dma.c ****     hdma->ErrorCode = HAL_DMA_ERROR_NONE;
 333:Drivers/STM32F1xx_HAL_Driver/Src/stm32f1xx_hal_dma.c ****             
 334:Drivers/STM32F1xx_HAL_Driver/Src/stm32f1xx_hal_dma.c ****     /* Disable the peripheral */
 335:Drivers/STM32F1xx_HAL_Driver/Src/stm32f1xx_hal_dma.c ****     __HAL_DMA_DISABLE(hdma);
 336:Drivers/STM32F1xx_HAL_Driver/Src/stm32f1xx_hal_dma.c ****     
 337:Drivers/STM32F1xx_HAL_Driver/Src/stm32f1xx_hal_dma.c ****     /* Configure the source, destination address and the data length & clear flags*/
 338:Drivers/STM32F1xx_HAL_Driver/Src/stm32f1xx_hal_dma.c ****     DMA_SetConfig(hdma, SrcAddress, DstAddress, DataLength);
 339:Drivers/STM32F1xx_HAL_Driver/Src/stm32f1xx_hal_dma.c ****     
 340:Drivers/STM32F1xx_HAL_Driver/Src/stm32f1xx_hal_dma.c ****     /* Enable the Peripheral */
 341:Drivers/STM32F1xx_HAL_Driver/Src/stm32f1xx_hal_dma.c ****     __HAL_DMA_ENABLE(hdma);
 342:Drivers/STM32F1xx_HAL_Driver/Src/stm32f1xx_hal_dma.c ****   }
 343:Drivers/STM32F1xx_HAL_Driver/Src/stm32f1xx_hal_dma.c ****   else
 344:Drivers/STM32F1xx_HAL_Driver/Src/stm32f1xx_hal_dma.c ****   {
 345:Drivers/STM32F1xx_HAL_Driver/Src/stm32f1xx_hal_dma.c ****    /* Process Unlocked */
 346:Drivers/STM32F1xx_HAL_Driver/Src/stm32f1xx_hal_dma.c ****    __HAL_UNLOCK(hdma);  
 347:Drivers/STM32F1xx_HAL_Driver/Src/stm32f1xx_hal_dma.c ****    status = HAL_BUSY;
 348:Drivers/STM32F1xx_HAL_Driver/Src/stm32f1xx_hal_dma.c ****   }  
 349:Drivers/STM32F1xx_HAL_Driver/Src/stm32f1xx_hal_dma.c ****   return status;
 350:Drivers/STM32F1xx_HAL_Driver/Src/stm32f1xx_hal_dma.c **** }
 351:Drivers/STM32F1xx_HAL_Driver/Src/stm32f1xx_hal_dma.c **** 
 352:Drivers/STM32F1xx_HAL_Driver/Src/stm32f1xx_hal_dma.c **** /**
 353:Drivers/STM32F1xx_HAL_Driver/Src/stm32f1xx_hal_dma.c ****   * @brief  Start the DMA Transfer with interrupt enabled.
 354:Drivers/STM32F1xx_HAL_Driver/Src/stm32f1xx_hal_dma.c ****   * @param  hdma: pointer to a DMA_HandleTypeDef structure that contains
 355:Drivers/STM32F1xx_HAL_Driver/Src/stm32f1xx_hal_dma.c ****   *               the configuration information for the specified DMA Channel.
 356:Drivers/STM32F1xx_HAL_Driver/Src/stm32f1xx_hal_dma.c ****   * @param  SrcAddress: The source memory Buffer address
 357:Drivers/STM32F1xx_HAL_Driver/Src/stm32f1xx_hal_dma.c ****   * @param  DstAddress: The destination memory Buffer address
 358:Drivers/STM32F1xx_HAL_Driver/Src/stm32f1xx_hal_dma.c ****   * @param  DataLength: The length of data to be transferred from source to destination
 359:Drivers/STM32F1xx_HAL_Driver/Src/stm32f1xx_hal_dma.c ****   * @retval HAL status
 360:Drivers/STM32F1xx_HAL_Driver/Src/stm32f1xx_hal_dma.c ****   */
 361:Drivers/STM32F1xx_HAL_Driver/Src/stm32f1xx_hal_dma.c **** HAL_StatusTypeDef HAL_DMA_Start_IT(DMA_HandleTypeDef *hdma, uint32_t SrcAddress, uint32_t DstAddres
 362:Drivers/STM32F1xx_HAL_Driver/Src/stm32f1xx_hal_dma.c **** {
 363:Drivers/STM32F1xx_HAL_Driver/Src/stm32f1xx_hal_dma.c ****   HAL_StatusTypeDef status = HAL_OK;
 364:Drivers/STM32F1xx_HAL_Driver/Src/stm32f1xx_hal_dma.c **** 
 365:Drivers/STM32F1xx_HAL_Driver/Src/stm32f1xx_hal_dma.c ****   /* Check the parameters */
 366:Drivers/STM32F1xx_HAL_Driver/Src/stm32f1xx_hal_dma.c ****   assert_param(IS_DMA_BUFFER_SIZE(DataLength));
 367:Drivers/STM32F1xx_HAL_Driver/Src/stm32f1xx_hal_dma.c **** 
 368:Drivers/STM32F1xx_HAL_Driver/Src/stm32f1xx_hal_dma.c ****   /* Process locked */
 369:Drivers/STM32F1xx_HAL_Driver/Src/stm32f1xx_hal_dma.c ****   __HAL_LOCK(hdma);
 370:Drivers/STM32F1xx_HAL_Driver/Src/stm32f1xx_hal_dma.c ****   
 371:Drivers/STM32F1xx_HAL_Driver/Src/stm32f1xx_hal_dma.c ****   if(HAL_DMA_STATE_READY == hdma->State)
 372:Drivers/STM32F1xx_HAL_Driver/Src/stm32f1xx_hal_dma.c ****   {
 373:Drivers/STM32F1xx_HAL_Driver/Src/stm32f1xx_hal_dma.c ****     /* Change DMA peripheral state */
 374:Drivers/STM32F1xx_HAL_Driver/Src/stm32f1xx_hal_dma.c ****     hdma->State = HAL_DMA_STATE_BUSY;
ARM GAS  /tmp//cc32eCGN.s 			page 8


 375:Drivers/STM32F1xx_HAL_Driver/Src/stm32f1xx_hal_dma.c ****     hdma->ErrorCode = HAL_DMA_ERROR_NONE;
 376:Drivers/STM32F1xx_HAL_Driver/Src/stm32f1xx_hal_dma.c ****     
 377:Drivers/STM32F1xx_HAL_Driver/Src/stm32f1xx_hal_dma.c ****     /* Disable the peripheral */
 378:Drivers/STM32F1xx_HAL_Driver/Src/stm32f1xx_hal_dma.c ****     __HAL_DMA_DISABLE(hdma);
 379:Drivers/STM32F1xx_HAL_Driver/Src/stm32f1xx_hal_dma.c ****     
 380:Drivers/STM32F1xx_HAL_Driver/Src/stm32f1xx_hal_dma.c ****     /* Configure the source, destination address and the data length & clear flags*/
 381:Drivers/STM32F1xx_HAL_Driver/Src/stm32f1xx_hal_dma.c ****     DMA_SetConfig(hdma, SrcAddress, DstAddress, DataLength);
 382:Drivers/STM32F1xx_HAL_Driver/Src/stm32f1xx_hal_dma.c ****     
 383:Drivers/STM32F1xx_HAL_Driver/Src/stm32f1xx_hal_dma.c ****     /* Enable the transfer complete interrupt */
 384:Drivers/STM32F1xx_HAL_Driver/Src/stm32f1xx_hal_dma.c ****     /* Enable the transfer Error interrupt */
 385:Drivers/STM32F1xx_HAL_Driver/Src/stm32f1xx_hal_dma.c ****     if(NULL != hdma->XferHalfCpltCallback)
 386:Drivers/STM32F1xx_HAL_Driver/Src/stm32f1xx_hal_dma.c ****     {
 387:Drivers/STM32F1xx_HAL_Driver/Src/stm32f1xx_hal_dma.c ****       /* Enable the Half transfer complete interrupt as well */
 388:Drivers/STM32F1xx_HAL_Driver/Src/stm32f1xx_hal_dma.c ****       __HAL_DMA_ENABLE_IT(hdma, (DMA_IT_TC | DMA_IT_HT | DMA_IT_TE));
 389:Drivers/STM32F1xx_HAL_Driver/Src/stm32f1xx_hal_dma.c ****     }
 390:Drivers/STM32F1xx_HAL_Driver/Src/stm32f1xx_hal_dma.c ****     else
 391:Drivers/STM32F1xx_HAL_Driver/Src/stm32f1xx_hal_dma.c ****     {
 392:Drivers/STM32F1xx_HAL_Driver/Src/stm32f1xx_hal_dma.c ****       __HAL_DMA_DISABLE_IT(hdma, DMA_IT_HT);
 393:Drivers/STM32F1xx_HAL_Driver/Src/stm32f1xx_hal_dma.c ****       __HAL_DMA_ENABLE_IT(hdma, (DMA_IT_TC | DMA_IT_TE));
 394:Drivers/STM32F1xx_HAL_Driver/Src/stm32f1xx_hal_dma.c ****     }
 395:Drivers/STM32F1xx_HAL_Driver/Src/stm32f1xx_hal_dma.c ****     /* Enable the Peripheral */
 396:Drivers/STM32F1xx_HAL_Driver/Src/stm32f1xx_hal_dma.c ****     __HAL_DMA_ENABLE(hdma);
 397:Drivers/STM32F1xx_HAL_Driver/Src/stm32f1xx_hal_dma.c ****   }
 398:Drivers/STM32F1xx_HAL_Driver/Src/stm32f1xx_hal_dma.c ****   else
 399:Drivers/STM32F1xx_HAL_Driver/Src/stm32f1xx_hal_dma.c ****   {      
 400:Drivers/STM32F1xx_HAL_Driver/Src/stm32f1xx_hal_dma.c ****     /* Process Unlocked */
 401:Drivers/STM32F1xx_HAL_Driver/Src/stm32f1xx_hal_dma.c ****     __HAL_UNLOCK(hdma); 
 402:Drivers/STM32F1xx_HAL_Driver/Src/stm32f1xx_hal_dma.c **** 
 403:Drivers/STM32F1xx_HAL_Driver/Src/stm32f1xx_hal_dma.c ****     /* Remain BUSY */
 404:Drivers/STM32F1xx_HAL_Driver/Src/stm32f1xx_hal_dma.c ****     status = HAL_BUSY;
 405:Drivers/STM32F1xx_HAL_Driver/Src/stm32f1xx_hal_dma.c ****   }    
 406:Drivers/STM32F1xx_HAL_Driver/Src/stm32f1xx_hal_dma.c ****   return status;
 407:Drivers/STM32F1xx_HAL_Driver/Src/stm32f1xx_hal_dma.c **** }
 408:Drivers/STM32F1xx_HAL_Driver/Src/stm32f1xx_hal_dma.c **** 
 409:Drivers/STM32F1xx_HAL_Driver/Src/stm32f1xx_hal_dma.c **** /**
 410:Drivers/STM32F1xx_HAL_Driver/Src/stm32f1xx_hal_dma.c ****   * @brief  Abort the DMA Transfer.
 411:Drivers/STM32F1xx_HAL_Driver/Src/stm32f1xx_hal_dma.c ****   * @param  hdma: pointer to a DMA_HandleTypeDef structure that contains
 412:Drivers/STM32F1xx_HAL_Driver/Src/stm32f1xx_hal_dma.c ****   *               the configuration information for the specified DMA Channel.
 413:Drivers/STM32F1xx_HAL_Driver/Src/stm32f1xx_hal_dma.c ****   * @retval HAL status
 414:Drivers/STM32F1xx_HAL_Driver/Src/stm32f1xx_hal_dma.c ****   */
 415:Drivers/STM32F1xx_HAL_Driver/Src/stm32f1xx_hal_dma.c **** HAL_StatusTypeDef HAL_DMA_Abort(DMA_HandleTypeDef *hdma)
 416:Drivers/STM32F1xx_HAL_Driver/Src/stm32f1xx_hal_dma.c **** {
 417:Drivers/STM32F1xx_HAL_Driver/Src/stm32f1xx_hal_dma.c ****   HAL_StatusTypeDef status = HAL_OK;
 418:Drivers/STM32F1xx_HAL_Driver/Src/stm32f1xx_hal_dma.c ****   
 419:Drivers/STM32F1xx_HAL_Driver/Src/stm32f1xx_hal_dma.c ****   if(hdma->State != HAL_DMA_STATE_BUSY)
 420:Drivers/STM32F1xx_HAL_Driver/Src/stm32f1xx_hal_dma.c ****   {
 421:Drivers/STM32F1xx_HAL_Driver/Src/stm32f1xx_hal_dma.c ****     /* no transfer ongoing */
 422:Drivers/STM32F1xx_HAL_Driver/Src/stm32f1xx_hal_dma.c ****     hdma->ErrorCode = HAL_DMA_ERROR_NO_XFER;
 423:Drivers/STM32F1xx_HAL_Driver/Src/stm32f1xx_hal_dma.c ****     
 424:Drivers/STM32F1xx_HAL_Driver/Src/stm32f1xx_hal_dma.c ****     /* Process Unlocked */
 425:Drivers/STM32F1xx_HAL_Driver/Src/stm32f1xx_hal_dma.c ****     __HAL_UNLOCK(hdma);
 426:Drivers/STM32F1xx_HAL_Driver/Src/stm32f1xx_hal_dma.c ****     
 427:Drivers/STM32F1xx_HAL_Driver/Src/stm32f1xx_hal_dma.c ****     return HAL_ERROR;
 428:Drivers/STM32F1xx_HAL_Driver/Src/stm32f1xx_hal_dma.c ****   }
 429:Drivers/STM32F1xx_HAL_Driver/Src/stm32f1xx_hal_dma.c ****   else
 430:Drivers/STM32F1xx_HAL_Driver/Src/stm32f1xx_hal_dma.c **** 
 431:Drivers/STM32F1xx_HAL_Driver/Src/stm32f1xx_hal_dma.c ****   {
ARM GAS  /tmp//cc32eCGN.s 			page 9


 432:Drivers/STM32F1xx_HAL_Driver/Src/stm32f1xx_hal_dma.c ****     /* Disable DMA IT */
 433:Drivers/STM32F1xx_HAL_Driver/Src/stm32f1xx_hal_dma.c ****     __HAL_DMA_DISABLE_IT(hdma, (DMA_IT_TC | DMA_IT_HT | DMA_IT_TE));
 434:Drivers/STM32F1xx_HAL_Driver/Src/stm32f1xx_hal_dma.c ****       
 435:Drivers/STM32F1xx_HAL_Driver/Src/stm32f1xx_hal_dma.c ****     /* Disable the channel */
 436:Drivers/STM32F1xx_HAL_Driver/Src/stm32f1xx_hal_dma.c ****     __HAL_DMA_DISABLE(hdma);
 437:Drivers/STM32F1xx_HAL_Driver/Src/stm32f1xx_hal_dma.c ****       
 438:Drivers/STM32F1xx_HAL_Driver/Src/stm32f1xx_hal_dma.c ****     /* Clear all flags */
 439:Drivers/STM32F1xx_HAL_Driver/Src/stm32f1xx_hal_dma.c ****     hdma->DmaBaseAddress->IFCR = (DMA_ISR_GIF1 << hdma->ChannelIndex);
 440:Drivers/STM32F1xx_HAL_Driver/Src/stm32f1xx_hal_dma.c ****   }
 441:Drivers/STM32F1xx_HAL_Driver/Src/stm32f1xx_hal_dma.c ****   /* Change the DMA state */
 442:Drivers/STM32F1xx_HAL_Driver/Src/stm32f1xx_hal_dma.c ****   hdma->State = HAL_DMA_STATE_READY;
 443:Drivers/STM32F1xx_HAL_Driver/Src/stm32f1xx_hal_dma.c **** 
 444:Drivers/STM32F1xx_HAL_Driver/Src/stm32f1xx_hal_dma.c ****   /* Process Unlocked */
 445:Drivers/STM32F1xx_HAL_Driver/Src/stm32f1xx_hal_dma.c ****   __HAL_UNLOCK(hdma);      
 446:Drivers/STM32F1xx_HAL_Driver/Src/stm32f1xx_hal_dma.c ****   
 447:Drivers/STM32F1xx_HAL_Driver/Src/stm32f1xx_hal_dma.c ****   return status; 
 448:Drivers/STM32F1xx_HAL_Driver/Src/stm32f1xx_hal_dma.c **** }
 449:Drivers/STM32F1xx_HAL_Driver/Src/stm32f1xx_hal_dma.c **** 
 450:Drivers/STM32F1xx_HAL_Driver/Src/stm32f1xx_hal_dma.c **** /**
 451:Drivers/STM32F1xx_HAL_Driver/Src/stm32f1xx_hal_dma.c ****   * @brief  Aborts the DMA Transfer in Interrupt mode.
 452:Drivers/STM32F1xx_HAL_Driver/Src/stm32f1xx_hal_dma.c ****   * @param  hdma  : pointer to a DMA_HandleTypeDef structure that contains
 453:Drivers/STM32F1xx_HAL_Driver/Src/stm32f1xx_hal_dma.c ****   *                 the configuration information for the specified DMA Channel.
 454:Drivers/STM32F1xx_HAL_Driver/Src/stm32f1xx_hal_dma.c ****   * @retval HAL status
 455:Drivers/STM32F1xx_HAL_Driver/Src/stm32f1xx_hal_dma.c ****   */
 456:Drivers/STM32F1xx_HAL_Driver/Src/stm32f1xx_hal_dma.c **** HAL_StatusTypeDef HAL_DMA_Abort_IT(DMA_HandleTypeDef *hdma)
 457:Drivers/STM32F1xx_HAL_Driver/Src/stm32f1xx_hal_dma.c **** {  
 458:Drivers/STM32F1xx_HAL_Driver/Src/stm32f1xx_hal_dma.c ****   HAL_StatusTypeDef status = HAL_OK;
 459:Drivers/STM32F1xx_HAL_Driver/Src/stm32f1xx_hal_dma.c ****   
 460:Drivers/STM32F1xx_HAL_Driver/Src/stm32f1xx_hal_dma.c ****   if(HAL_DMA_STATE_BUSY != hdma->State)
 461:Drivers/STM32F1xx_HAL_Driver/Src/stm32f1xx_hal_dma.c ****   {
 462:Drivers/STM32F1xx_HAL_Driver/Src/stm32f1xx_hal_dma.c ****     /* no transfer ongoing */
 463:Drivers/STM32F1xx_HAL_Driver/Src/stm32f1xx_hal_dma.c ****     hdma->ErrorCode = HAL_DMA_ERROR_NO_XFER;
 464:Drivers/STM32F1xx_HAL_Driver/Src/stm32f1xx_hal_dma.c ****         
 465:Drivers/STM32F1xx_HAL_Driver/Src/stm32f1xx_hal_dma.c ****     status = HAL_ERROR;
 466:Drivers/STM32F1xx_HAL_Driver/Src/stm32f1xx_hal_dma.c ****   }
 467:Drivers/STM32F1xx_HAL_Driver/Src/stm32f1xx_hal_dma.c ****   else
 468:Drivers/STM32F1xx_HAL_Driver/Src/stm32f1xx_hal_dma.c ****   { 
 469:Drivers/STM32F1xx_HAL_Driver/Src/stm32f1xx_hal_dma.c ****     /* Disable DMA IT */
 470:Drivers/STM32F1xx_HAL_Driver/Src/stm32f1xx_hal_dma.c ****     __HAL_DMA_DISABLE_IT(hdma, (DMA_IT_TC | DMA_IT_HT | DMA_IT_TE));
 471:Drivers/STM32F1xx_HAL_Driver/Src/stm32f1xx_hal_dma.c **** 
 472:Drivers/STM32F1xx_HAL_Driver/Src/stm32f1xx_hal_dma.c ****     /* Disable the channel */
 473:Drivers/STM32F1xx_HAL_Driver/Src/stm32f1xx_hal_dma.c ****     __HAL_DMA_DISABLE(hdma);
 474:Drivers/STM32F1xx_HAL_Driver/Src/stm32f1xx_hal_dma.c **** 
 475:Drivers/STM32F1xx_HAL_Driver/Src/stm32f1xx_hal_dma.c ****     /* Clear all flags */
 476:Drivers/STM32F1xx_HAL_Driver/Src/stm32f1xx_hal_dma.c ****     __HAL_DMA_CLEAR_FLAG(hdma, __HAL_DMA_GET_GI_FLAG_INDEX(hdma));
 477:Drivers/STM32F1xx_HAL_Driver/Src/stm32f1xx_hal_dma.c **** 
 478:Drivers/STM32F1xx_HAL_Driver/Src/stm32f1xx_hal_dma.c ****     /* Change the DMA state */
 479:Drivers/STM32F1xx_HAL_Driver/Src/stm32f1xx_hal_dma.c ****     hdma->State = HAL_DMA_STATE_READY;
 480:Drivers/STM32F1xx_HAL_Driver/Src/stm32f1xx_hal_dma.c **** 
 481:Drivers/STM32F1xx_HAL_Driver/Src/stm32f1xx_hal_dma.c ****     /* Process Unlocked */
 482:Drivers/STM32F1xx_HAL_Driver/Src/stm32f1xx_hal_dma.c ****     __HAL_UNLOCK(hdma);
 483:Drivers/STM32F1xx_HAL_Driver/Src/stm32f1xx_hal_dma.c **** 
 484:Drivers/STM32F1xx_HAL_Driver/Src/stm32f1xx_hal_dma.c ****     /* Call User Abort callback */
 485:Drivers/STM32F1xx_HAL_Driver/Src/stm32f1xx_hal_dma.c ****     if(hdma->XferAbortCallback != NULL)
 486:Drivers/STM32F1xx_HAL_Driver/Src/stm32f1xx_hal_dma.c ****     {
 487:Drivers/STM32F1xx_HAL_Driver/Src/stm32f1xx_hal_dma.c ****       hdma->XferAbortCallback(hdma);
 488:Drivers/STM32F1xx_HAL_Driver/Src/stm32f1xx_hal_dma.c ****     } 
ARM GAS  /tmp//cc32eCGN.s 			page 10


 489:Drivers/STM32F1xx_HAL_Driver/Src/stm32f1xx_hal_dma.c ****   }
 490:Drivers/STM32F1xx_HAL_Driver/Src/stm32f1xx_hal_dma.c ****   return status;
 491:Drivers/STM32F1xx_HAL_Driver/Src/stm32f1xx_hal_dma.c **** }
 492:Drivers/STM32F1xx_HAL_Driver/Src/stm32f1xx_hal_dma.c **** 
 493:Drivers/STM32F1xx_HAL_Driver/Src/stm32f1xx_hal_dma.c **** /**
 494:Drivers/STM32F1xx_HAL_Driver/Src/stm32f1xx_hal_dma.c ****   * @brief  Polling for transfer complete.
 495:Drivers/STM32F1xx_HAL_Driver/Src/stm32f1xx_hal_dma.c ****   * @param  hdma:    pointer to a DMA_HandleTypeDef structure that contains
 496:Drivers/STM32F1xx_HAL_Driver/Src/stm32f1xx_hal_dma.c ****   *                  the configuration information for the specified DMA Channel.
 497:Drivers/STM32F1xx_HAL_Driver/Src/stm32f1xx_hal_dma.c ****   * @param  CompleteLevel: Specifies the DMA level complete.
 498:Drivers/STM32F1xx_HAL_Driver/Src/stm32f1xx_hal_dma.c ****   * @param  Timeout:       Timeout duration.
 499:Drivers/STM32F1xx_HAL_Driver/Src/stm32f1xx_hal_dma.c ****   * @retval HAL status
 500:Drivers/STM32F1xx_HAL_Driver/Src/stm32f1xx_hal_dma.c ****   */
 501:Drivers/STM32F1xx_HAL_Driver/Src/stm32f1xx_hal_dma.c **** HAL_StatusTypeDef HAL_DMA_PollForTransfer(DMA_HandleTypeDef *hdma, uint32_t CompleteLevel, uint32_t
 502:Drivers/STM32F1xx_HAL_Driver/Src/stm32f1xx_hal_dma.c **** {
 503:Drivers/STM32F1xx_HAL_Driver/Src/stm32f1xx_hal_dma.c ****   uint32_t temp;
 504:Drivers/STM32F1xx_HAL_Driver/Src/stm32f1xx_hal_dma.c ****   uint32_t tickstart = 0U;
 505:Drivers/STM32F1xx_HAL_Driver/Src/stm32f1xx_hal_dma.c **** 
 506:Drivers/STM32F1xx_HAL_Driver/Src/stm32f1xx_hal_dma.c ****   if(HAL_DMA_STATE_BUSY != hdma->State)
 507:Drivers/STM32F1xx_HAL_Driver/Src/stm32f1xx_hal_dma.c ****   {
 508:Drivers/STM32F1xx_HAL_Driver/Src/stm32f1xx_hal_dma.c ****     /* no transfer ongoing */
 509:Drivers/STM32F1xx_HAL_Driver/Src/stm32f1xx_hal_dma.c ****     hdma->ErrorCode = HAL_DMA_ERROR_NO_XFER;
 510:Drivers/STM32F1xx_HAL_Driver/Src/stm32f1xx_hal_dma.c ****     __HAL_UNLOCK(hdma);
 511:Drivers/STM32F1xx_HAL_Driver/Src/stm32f1xx_hal_dma.c ****     return HAL_ERROR;
 512:Drivers/STM32F1xx_HAL_Driver/Src/stm32f1xx_hal_dma.c ****   }
 513:Drivers/STM32F1xx_HAL_Driver/Src/stm32f1xx_hal_dma.c **** 
 514:Drivers/STM32F1xx_HAL_Driver/Src/stm32f1xx_hal_dma.c ****   /* Polling mode not supported in circular mode */
 515:Drivers/STM32F1xx_HAL_Driver/Src/stm32f1xx_hal_dma.c ****   if (RESET != (hdma->Instance->CCR & DMA_CCR_CIRC))
 516:Drivers/STM32F1xx_HAL_Driver/Src/stm32f1xx_hal_dma.c ****   {
 517:Drivers/STM32F1xx_HAL_Driver/Src/stm32f1xx_hal_dma.c ****     hdma->ErrorCode = HAL_DMA_ERROR_NOT_SUPPORTED;
 518:Drivers/STM32F1xx_HAL_Driver/Src/stm32f1xx_hal_dma.c ****     return HAL_ERROR;
 519:Drivers/STM32F1xx_HAL_Driver/Src/stm32f1xx_hal_dma.c ****   }
 520:Drivers/STM32F1xx_HAL_Driver/Src/stm32f1xx_hal_dma.c ****   
 521:Drivers/STM32F1xx_HAL_Driver/Src/stm32f1xx_hal_dma.c ****   /* Get the level transfer complete flag */
 522:Drivers/STM32F1xx_HAL_Driver/Src/stm32f1xx_hal_dma.c ****   if(CompleteLevel == HAL_DMA_FULL_TRANSFER)
 523:Drivers/STM32F1xx_HAL_Driver/Src/stm32f1xx_hal_dma.c ****   {
 524:Drivers/STM32F1xx_HAL_Driver/Src/stm32f1xx_hal_dma.c ****     /* Transfer Complete flag */
 525:Drivers/STM32F1xx_HAL_Driver/Src/stm32f1xx_hal_dma.c ****     temp = __HAL_DMA_GET_TC_FLAG_INDEX(hdma);
 526:Drivers/STM32F1xx_HAL_Driver/Src/stm32f1xx_hal_dma.c ****   }
 527:Drivers/STM32F1xx_HAL_Driver/Src/stm32f1xx_hal_dma.c ****   else
 528:Drivers/STM32F1xx_HAL_Driver/Src/stm32f1xx_hal_dma.c ****   {
 529:Drivers/STM32F1xx_HAL_Driver/Src/stm32f1xx_hal_dma.c ****     /* Half Transfer Complete flag */
 530:Drivers/STM32F1xx_HAL_Driver/Src/stm32f1xx_hal_dma.c ****     temp = __HAL_DMA_GET_HT_FLAG_INDEX(hdma);
 531:Drivers/STM32F1xx_HAL_Driver/Src/stm32f1xx_hal_dma.c ****   }
 532:Drivers/STM32F1xx_HAL_Driver/Src/stm32f1xx_hal_dma.c **** 
 533:Drivers/STM32F1xx_HAL_Driver/Src/stm32f1xx_hal_dma.c ****   /* Get tick */
 534:Drivers/STM32F1xx_HAL_Driver/Src/stm32f1xx_hal_dma.c ****   tickstart = HAL_GetTick();
 535:Drivers/STM32F1xx_HAL_Driver/Src/stm32f1xx_hal_dma.c **** 
 536:Drivers/STM32F1xx_HAL_Driver/Src/stm32f1xx_hal_dma.c ****   while(__HAL_DMA_GET_FLAG(hdma, temp) == RESET)
 537:Drivers/STM32F1xx_HAL_Driver/Src/stm32f1xx_hal_dma.c ****   {
 538:Drivers/STM32F1xx_HAL_Driver/Src/stm32f1xx_hal_dma.c ****     if((__HAL_DMA_GET_FLAG(hdma, __HAL_DMA_GET_TE_FLAG_INDEX(hdma)) != RESET))
 539:Drivers/STM32F1xx_HAL_Driver/Src/stm32f1xx_hal_dma.c ****     {
 540:Drivers/STM32F1xx_HAL_Driver/Src/stm32f1xx_hal_dma.c ****       /* When a DMA transfer error occurs */
 541:Drivers/STM32F1xx_HAL_Driver/Src/stm32f1xx_hal_dma.c ****       /* A hardware clear of its EN bits is performed */
 542:Drivers/STM32F1xx_HAL_Driver/Src/stm32f1xx_hal_dma.c ****       /* Clear all flags */
 543:Drivers/STM32F1xx_HAL_Driver/Src/stm32f1xx_hal_dma.c ****       hdma->DmaBaseAddress->IFCR = (DMA_ISR_GIF1 << hdma->ChannelIndex);
 544:Drivers/STM32F1xx_HAL_Driver/Src/stm32f1xx_hal_dma.c **** 
 545:Drivers/STM32F1xx_HAL_Driver/Src/stm32f1xx_hal_dma.c ****       /* Update error code */
ARM GAS  /tmp//cc32eCGN.s 			page 11


 546:Drivers/STM32F1xx_HAL_Driver/Src/stm32f1xx_hal_dma.c ****       SET_BIT(hdma->ErrorCode, HAL_DMA_ERROR_TE);
 547:Drivers/STM32F1xx_HAL_Driver/Src/stm32f1xx_hal_dma.c **** 
 548:Drivers/STM32F1xx_HAL_Driver/Src/stm32f1xx_hal_dma.c ****       /* Change the DMA state */
 549:Drivers/STM32F1xx_HAL_Driver/Src/stm32f1xx_hal_dma.c ****       hdma->State= HAL_DMA_STATE_READY;
 550:Drivers/STM32F1xx_HAL_Driver/Src/stm32f1xx_hal_dma.c **** 
 551:Drivers/STM32F1xx_HAL_Driver/Src/stm32f1xx_hal_dma.c ****       /* Process Unlocked */
 552:Drivers/STM32F1xx_HAL_Driver/Src/stm32f1xx_hal_dma.c ****       __HAL_UNLOCK(hdma);
 553:Drivers/STM32F1xx_HAL_Driver/Src/stm32f1xx_hal_dma.c **** 
 554:Drivers/STM32F1xx_HAL_Driver/Src/stm32f1xx_hal_dma.c ****       return HAL_ERROR;
 555:Drivers/STM32F1xx_HAL_Driver/Src/stm32f1xx_hal_dma.c ****     }
 556:Drivers/STM32F1xx_HAL_Driver/Src/stm32f1xx_hal_dma.c ****     /* Check for the Timeout */
 557:Drivers/STM32F1xx_HAL_Driver/Src/stm32f1xx_hal_dma.c ****     if(Timeout != HAL_MAX_DELAY)
 558:Drivers/STM32F1xx_HAL_Driver/Src/stm32f1xx_hal_dma.c ****     {
 559:Drivers/STM32F1xx_HAL_Driver/Src/stm32f1xx_hal_dma.c ****       if((Timeout == 0U) || ((HAL_GetTick() - tickstart) > Timeout))
 560:Drivers/STM32F1xx_HAL_Driver/Src/stm32f1xx_hal_dma.c ****       {
 561:Drivers/STM32F1xx_HAL_Driver/Src/stm32f1xx_hal_dma.c ****         /* Update error code */
 562:Drivers/STM32F1xx_HAL_Driver/Src/stm32f1xx_hal_dma.c ****         SET_BIT(hdma->ErrorCode, HAL_DMA_ERROR_TIMEOUT);
 563:Drivers/STM32F1xx_HAL_Driver/Src/stm32f1xx_hal_dma.c **** 
 564:Drivers/STM32F1xx_HAL_Driver/Src/stm32f1xx_hal_dma.c ****         /* Change the DMA state */
 565:Drivers/STM32F1xx_HAL_Driver/Src/stm32f1xx_hal_dma.c ****         hdma->State = HAL_DMA_STATE_READY;
 566:Drivers/STM32F1xx_HAL_Driver/Src/stm32f1xx_hal_dma.c **** 
 567:Drivers/STM32F1xx_HAL_Driver/Src/stm32f1xx_hal_dma.c ****         /* Process Unlocked */
 568:Drivers/STM32F1xx_HAL_Driver/Src/stm32f1xx_hal_dma.c ****         __HAL_UNLOCK(hdma);
 569:Drivers/STM32F1xx_HAL_Driver/Src/stm32f1xx_hal_dma.c **** 
 570:Drivers/STM32F1xx_HAL_Driver/Src/stm32f1xx_hal_dma.c ****         return HAL_ERROR;
 571:Drivers/STM32F1xx_HAL_Driver/Src/stm32f1xx_hal_dma.c ****       }
 572:Drivers/STM32F1xx_HAL_Driver/Src/stm32f1xx_hal_dma.c ****     }
 573:Drivers/STM32F1xx_HAL_Driver/Src/stm32f1xx_hal_dma.c ****   }
 574:Drivers/STM32F1xx_HAL_Driver/Src/stm32f1xx_hal_dma.c **** 
 575:Drivers/STM32F1xx_HAL_Driver/Src/stm32f1xx_hal_dma.c ****   if(CompleteLevel == HAL_DMA_FULL_TRANSFER)
 576:Drivers/STM32F1xx_HAL_Driver/Src/stm32f1xx_hal_dma.c ****   {
 577:Drivers/STM32F1xx_HAL_Driver/Src/stm32f1xx_hal_dma.c ****     /* Clear the transfer complete flag */
 578:Drivers/STM32F1xx_HAL_Driver/Src/stm32f1xx_hal_dma.c ****     __HAL_DMA_CLEAR_FLAG(hdma, __HAL_DMA_GET_TC_FLAG_INDEX(hdma));
 579:Drivers/STM32F1xx_HAL_Driver/Src/stm32f1xx_hal_dma.c **** 
 580:Drivers/STM32F1xx_HAL_Driver/Src/stm32f1xx_hal_dma.c ****     /* The selected Channelx EN bit is cleared (DMA is disabled and
 581:Drivers/STM32F1xx_HAL_Driver/Src/stm32f1xx_hal_dma.c ****     all transfers are complete) */
 582:Drivers/STM32F1xx_HAL_Driver/Src/stm32f1xx_hal_dma.c ****     hdma->State = HAL_DMA_STATE_READY;
 583:Drivers/STM32F1xx_HAL_Driver/Src/stm32f1xx_hal_dma.c ****   }
 584:Drivers/STM32F1xx_HAL_Driver/Src/stm32f1xx_hal_dma.c ****   else
 585:Drivers/STM32F1xx_HAL_Driver/Src/stm32f1xx_hal_dma.c ****   {
 586:Drivers/STM32F1xx_HAL_Driver/Src/stm32f1xx_hal_dma.c ****     /* Clear the half transfer complete flag */
 587:Drivers/STM32F1xx_HAL_Driver/Src/stm32f1xx_hal_dma.c ****     __HAL_DMA_CLEAR_FLAG(hdma, __HAL_DMA_GET_HT_FLAG_INDEX(hdma));
 588:Drivers/STM32F1xx_HAL_Driver/Src/stm32f1xx_hal_dma.c ****   }
 589:Drivers/STM32F1xx_HAL_Driver/Src/stm32f1xx_hal_dma.c ****   
 590:Drivers/STM32F1xx_HAL_Driver/Src/stm32f1xx_hal_dma.c ****   /* Process unlocked */
 591:Drivers/STM32F1xx_HAL_Driver/Src/stm32f1xx_hal_dma.c ****   __HAL_UNLOCK(hdma);
 592:Drivers/STM32F1xx_HAL_Driver/Src/stm32f1xx_hal_dma.c **** 
 593:Drivers/STM32F1xx_HAL_Driver/Src/stm32f1xx_hal_dma.c ****   return HAL_OK;
 594:Drivers/STM32F1xx_HAL_Driver/Src/stm32f1xx_hal_dma.c **** }
 595:Drivers/STM32F1xx_HAL_Driver/Src/stm32f1xx_hal_dma.c **** 
 596:Drivers/STM32F1xx_HAL_Driver/Src/stm32f1xx_hal_dma.c **** /**
 597:Drivers/STM32F1xx_HAL_Driver/Src/stm32f1xx_hal_dma.c ****   * @brief  Handles DMA interrupt request.
 598:Drivers/STM32F1xx_HAL_Driver/Src/stm32f1xx_hal_dma.c ****   * @param  hdma: pointer to a DMA_HandleTypeDef structure that contains
 599:Drivers/STM32F1xx_HAL_Driver/Src/stm32f1xx_hal_dma.c ****   *               the configuration information for the specified DMA Channel.  
 600:Drivers/STM32F1xx_HAL_Driver/Src/stm32f1xx_hal_dma.c ****   * @retval None
 601:Drivers/STM32F1xx_HAL_Driver/Src/stm32f1xx_hal_dma.c ****   */
 602:Drivers/STM32F1xx_HAL_Driver/Src/stm32f1xx_hal_dma.c **** void HAL_DMA_IRQHandler(DMA_HandleTypeDef *hdma)
ARM GAS  /tmp//cc32eCGN.s 			page 12


 603:Drivers/STM32F1xx_HAL_Driver/Src/stm32f1xx_hal_dma.c **** {
 604:Drivers/STM32F1xx_HAL_Driver/Src/stm32f1xx_hal_dma.c ****   uint32_t flag_it = hdma->DmaBaseAddress->ISR;
 605:Drivers/STM32F1xx_HAL_Driver/Src/stm32f1xx_hal_dma.c ****   uint32_t source_it = hdma->Instance->CCR;
 606:Drivers/STM32F1xx_HAL_Driver/Src/stm32f1xx_hal_dma.c ****   
 607:Drivers/STM32F1xx_HAL_Driver/Src/stm32f1xx_hal_dma.c ****   /* Half Transfer Complete Interrupt management ******************************/
 608:Drivers/STM32F1xx_HAL_Driver/Src/stm32f1xx_hal_dma.c ****   if (((flag_it & (DMA_FLAG_HT1 << hdma->ChannelIndex)) != RESET) && ((source_it & DMA_IT_HT) != RE
 609:Drivers/STM32F1xx_HAL_Driver/Src/stm32f1xx_hal_dma.c ****   {
 610:Drivers/STM32F1xx_HAL_Driver/Src/stm32f1xx_hal_dma.c ****     /* Disable the half transfer interrupt if the DMA mode is not CIRCULAR */
 611:Drivers/STM32F1xx_HAL_Driver/Src/stm32f1xx_hal_dma.c ****     if((hdma->Instance->CCR & DMA_CCR_CIRC) == 0U)
 612:Drivers/STM32F1xx_HAL_Driver/Src/stm32f1xx_hal_dma.c ****     {
 613:Drivers/STM32F1xx_HAL_Driver/Src/stm32f1xx_hal_dma.c ****       /* Disable the half transfer interrupt */
 614:Drivers/STM32F1xx_HAL_Driver/Src/stm32f1xx_hal_dma.c ****       __HAL_DMA_DISABLE_IT(hdma, DMA_IT_HT);
 615:Drivers/STM32F1xx_HAL_Driver/Src/stm32f1xx_hal_dma.c ****     }
 616:Drivers/STM32F1xx_HAL_Driver/Src/stm32f1xx_hal_dma.c ****     /* Clear the half transfer complete flag */
 617:Drivers/STM32F1xx_HAL_Driver/Src/stm32f1xx_hal_dma.c ****     __HAL_DMA_CLEAR_FLAG(hdma, __HAL_DMA_GET_HT_FLAG_INDEX(hdma));
 618:Drivers/STM32F1xx_HAL_Driver/Src/stm32f1xx_hal_dma.c **** 
 619:Drivers/STM32F1xx_HAL_Driver/Src/stm32f1xx_hal_dma.c ****     /* DMA peripheral state is not updated in Half Transfer */
 620:Drivers/STM32F1xx_HAL_Driver/Src/stm32f1xx_hal_dma.c ****     /* but in Transfer Complete case */
 621:Drivers/STM32F1xx_HAL_Driver/Src/stm32f1xx_hal_dma.c **** 
 622:Drivers/STM32F1xx_HAL_Driver/Src/stm32f1xx_hal_dma.c ****     if(hdma->XferHalfCpltCallback != NULL)
 623:Drivers/STM32F1xx_HAL_Driver/Src/stm32f1xx_hal_dma.c ****     {
 624:Drivers/STM32F1xx_HAL_Driver/Src/stm32f1xx_hal_dma.c ****       /* Half transfer callback */
 625:Drivers/STM32F1xx_HAL_Driver/Src/stm32f1xx_hal_dma.c ****       hdma->XferHalfCpltCallback(hdma);
 626:Drivers/STM32F1xx_HAL_Driver/Src/stm32f1xx_hal_dma.c ****     }
 627:Drivers/STM32F1xx_HAL_Driver/Src/stm32f1xx_hal_dma.c ****   }
 628:Drivers/STM32F1xx_HAL_Driver/Src/stm32f1xx_hal_dma.c **** 
 629:Drivers/STM32F1xx_HAL_Driver/Src/stm32f1xx_hal_dma.c ****   /* Transfer Complete Interrupt management ***********************************/
 630:Drivers/STM32F1xx_HAL_Driver/Src/stm32f1xx_hal_dma.c ****   else if (((flag_it & (DMA_FLAG_TC1 << hdma->ChannelIndex)) != RESET) && ((source_it & DMA_IT_TC) 
 631:Drivers/STM32F1xx_HAL_Driver/Src/stm32f1xx_hal_dma.c ****   {
 632:Drivers/STM32F1xx_HAL_Driver/Src/stm32f1xx_hal_dma.c ****     if((hdma->Instance->CCR & DMA_CCR_CIRC) == 0U)
 633:Drivers/STM32F1xx_HAL_Driver/Src/stm32f1xx_hal_dma.c ****     {
 634:Drivers/STM32F1xx_HAL_Driver/Src/stm32f1xx_hal_dma.c ****       /* Disable the transfer complete and error interrupt */
 635:Drivers/STM32F1xx_HAL_Driver/Src/stm32f1xx_hal_dma.c ****       __HAL_DMA_DISABLE_IT(hdma, DMA_IT_TE | DMA_IT_TC);  
 636:Drivers/STM32F1xx_HAL_Driver/Src/stm32f1xx_hal_dma.c **** 
 637:Drivers/STM32F1xx_HAL_Driver/Src/stm32f1xx_hal_dma.c ****       /* Change the DMA state */
 638:Drivers/STM32F1xx_HAL_Driver/Src/stm32f1xx_hal_dma.c ****       hdma->State = HAL_DMA_STATE_READY;
 639:Drivers/STM32F1xx_HAL_Driver/Src/stm32f1xx_hal_dma.c ****     }
 640:Drivers/STM32F1xx_HAL_Driver/Src/stm32f1xx_hal_dma.c ****     /* Clear the transfer complete flag */
 641:Drivers/STM32F1xx_HAL_Driver/Src/stm32f1xx_hal_dma.c ****       __HAL_DMA_CLEAR_FLAG(hdma, __HAL_DMA_GET_TC_FLAG_INDEX(hdma));
 642:Drivers/STM32F1xx_HAL_Driver/Src/stm32f1xx_hal_dma.c **** 
 643:Drivers/STM32F1xx_HAL_Driver/Src/stm32f1xx_hal_dma.c ****     /* Process Unlocked */
 644:Drivers/STM32F1xx_HAL_Driver/Src/stm32f1xx_hal_dma.c ****     __HAL_UNLOCK(hdma);
 645:Drivers/STM32F1xx_HAL_Driver/Src/stm32f1xx_hal_dma.c **** 
 646:Drivers/STM32F1xx_HAL_Driver/Src/stm32f1xx_hal_dma.c ****     if(hdma->XferCpltCallback != NULL)
 647:Drivers/STM32F1xx_HAL_Driver/Src/stm32f1xx_hal_dma.c ****     {
 648:Drivers/STM32F1xx_HAL_Driver/Src/stm32f1xx_hal_dma.c ****       /* Transfer complete callback */
 649:Drivers/STM32F1xx_HAL_Driver/Src/stm32f1xx_hal_dma.c ****       hdma->XferCpltCallback(hdma);
 650:Drivers/STM32F1xx_HAL_Driver/Src/stm32f1xx_hal_dma.c ****     }
 651:Drivers/STM32F1xx_HAL_Driver/Src/stm32f1xx_hal_dma.c ****   }
 652:Drivers/STM32F1xx_HAL_Driver/Src/stm32f1xx_hal_dma.c **** 
 653:Drivers/STM32F1xx_HAL_Driver/Src/stm32f1xx_hal_dma.c ****   /* Transfer Error Interrupt management **************************************/
 654:Drivers/STM32F1xx_HAL_Driver/Src/stm32f1xx_hal_dma.c ****   else if (( RESET != (flag_it & (DMA_FLAG_TE1 << hdma->ChannelIndex))) && (RESET != (source_it & D
 655:Drivers/STM32F1xx_HAL_Driver/Src/stm32f1xx_hal_dma.c ****   {
 656:Drivers/STM32F1xx_HAL_Driver/Src/stm32f1xx_hal_dma.c ****     /* When a DMA transfer error occurs */
 657:Drivers/STM32F1xx_HAL_Driver/Src/stm32f1xx_hal_dma.c ****     /* A hardware clear of its EN bits is performed */
 658:Drivers/STM32F1xx_HAL_Driver/Src/stm32f1xx_hal_dma.c ****     /* Disable ALL DMA IT */
 659:Drivers/STM32F1xx_HAL_Driver/Src/stm32f1xx_hal_dma.c ****     __HAL_DMA_DISABLE_IT(hdma, (DMA_IT_TC | DMA_IT_HT | DMA_IT_TE));
ARM GAS  /tmp//cc32eCGN.s 			page 13


 660:Drivers/STM32F1xx_HAL_Driver/Src/stm32f1xx_hal_dma.c **** 
 661:Drivers/STM32F1xx_HAL_Driver/Src/stm32f1xx_hal_dma.c ****     /* Clear all flags */
 662:Drivers/STM32F1xx_HAL_Driver/Src/stm32f1xx_hal_dma.c ****     hdma->DmaBaseAddress->IFCR = (DMA_ISR_GIF1 << hdma->ChannelIndex);
 663:Drivers/STM32F1xx_HAL_Driver/Src/stm32f1xx_hal_dma.c **** 
 664:Drivers/STM32F1xx_HAL_Driver/Src/stm32f1xx_hal_dma.c ****     /* Update error code */
 665:Drivers/STM32F1xx_HAL_Driver/Src/stm32f1xx_hal_dma.c ****     hdma->ErrorCode = HAL_DMA_ERROR_TE;
 666:Drivers/STM32F1xx_HAL_Driver/Src/stm32f1xx_hal_dma.c **** 
 667:Drivers/STM32F1xx_HAL_Driver/Src/stm32f1xx_hal_dma.c ****     /* Change the DMA state */
 668:Drivers/STM32F1xx_HAL_Driver/Src/stm32f1xx_hal_dma.c ****     hdma->State = HAL_DMA_STATE_READY;
 669:Drivers/STM32F1xx_HAL_Driver/Src/stm32f1xx_hal_dma.c **** 
 670:Drivers/STM32F1xx_HAL_Driver/Src/stm32f1xx_hal_dma.c ****     /* Process Unlocked */
 671:Drivers/STM32F1xx_HAL_Driver/Src/stm32f1xx_hal_dma.c ****     __HAL_UNLOCK(hdma);
 672:Drivers/STM32F1xx_HAL_Driver/Src/stm32f1xx_hal_dma.c **** 
 673:Drivers/STM32F1xx_HAL_Driver/Src/stm32f1xx_hal_dma.c ****     if (hdma->XferErrorCallback != NULL)
 674:Drivers/STM32F1xx_HAL_Driver/Src/stm32f1xx_hal_dma.c ****     {
 675:Drivers/STM32F1xx_HAL_Driver/Src/stm32f1xx_hal_dma.c ****       /* Transfer error callback */
 676:Drivers/STM32F1xx_HAL_Driver/Src/stm32f1xx_hal_dma.c ****       hdma->XferErrorCallback(hdma);
 677:Drivers/STM32F1xx_HAL_Driver/Src/stm32f1xx_hal_dma.c ****     }
 678:Drivers/STM32F1xx_HAL_Driver/Src/stm32f1xx_hal_dma.c ****   }
 679:Drivers/STM32F1xx_HAL_Driver/Src/stm32f1xx_hal_dma.c ****   return;
 680:Drivers/STM32F1xx_HAL_Driver/Src/stm32f1xx_hal_dma.c **** }
 681:Drivers/STM32F1xx_HAL_Driver/Src/stm32f1xx_hal_dma.c **** 
 682:Drivers/STM32F1xx_HAL_Driver/Src/stm32f1xx_hal_dma.c **** /**
 683:Drivers/STM32F1xx_HAL_Driver/Src/stm32f1xx_hal_dma.c ****   * @brief Register callbacks
 684:Drivers/STM32F1xx_HAL_Driver/Src/stm32f1xx_hal_dma.c ****   * @param hdma: pointer to a DMA_HandleTypeDef structure that contains
 685:Drivers/STM32F1xx_HAL_Driver/Src/stm32f1xx_hal_dma.c ****   *              the configuration information for the specified DMA Channel.
 686:Drivers/STM32F1xx_HAL_Driver/Src/stm32f1xx_hal_dma.c ****   * @param CallbackID: User Callback identifier
 687:Drivers/STM32F1xx_HAL_Driver/Src/stm32f1xx_hal_dma.c ****   *                    a HAL_DMA_CallbackIDTypeDef ENUM as parameter.
 688:Drivers/STM32F1xx_HAL_Driver/Src/stm32f1xx_hal_dma.c ****   * @param pCallback: pointer to private callback function which has pointer to 
 689:Drivers/STM32F1xx_HAL_Driver/Src/stm32f1xx_hal_dma.c ****   *                   a DMA_HandleTypeDef structure as parameter.
 690:Drivers/STM32F1xx_HAL_Driver/Src/stm32f1xx_hal_dma.c ****   * @retval HAL status
 691:Drivers/STM32F1xx_HAL_Driver/Src/stm32f1xx_hal_dma.c ****   */                          
 692:Drivers/STM32F1xx_HAL_Driver/Src/stm32f1xx_hal_dma.c **** HAL_StatusTypeDef HAL_DMA_RegisterCallback(DMA_HandleTypeDef *hdma, HAL_DMA_CallbackIDTypeDef Callb
 693:Drivers/STM32F1xx_HAL_Driver/Src/stm32f1xx_hal_dma.c **** {
 694:Drivers/STM32F1xx_HAL_Driver/Src/stm32f1xx_hal_dma.c ****   HAL_StatusTypeDef status = HAL_OK;
 695:Drivers/STM32F1xx_HAL_Driver/Src/stm32f1xx_hal_dma.c ****   
 696:Drivers/STM32F1xx_HAL_Driver/Src/stm32f1xx_hal_dma.c ****   /* Process locked */
 697:Drivers/STM32F1xx_HAL_Driver/Src/stm32f1xx_hal_dma.c ****   __HAL_LOCK(hdma);
 698:Drivers/STM32F1xx_HAL_Driver/Src/stm32f1xx_hal_dma.c ****   
 699:Drivers/STM32F1xx_HAL_Driver/Src/stm32f1xx_hal_dma.c ****   if(HAL_DMA_STATE_READY == hdma->State)
 700:Drivers/STM32F1xx_HAL_Driver/Src/stm32f1xx_hal_dma.c ****   {
 701:Drivers/STM32F1xx_HAL_Driver/Src/stm32f1xx_hal_dma.c ****     switch (CallbackID)
 702:Drivers/STM32F1xx_HAL_Driver/Src/stm32f1xx_hal_dma.c ****     {
 703:Drivers/STM32F1xx_HAL_Driver/Src/stm32f1xx_hal_dma.c ****     case  HAL_DMA_XFER_CPLT_CB_ID:
 704:Drivers/STM32F1xx_HAL_Driver/Src/stm32f1xx_hal_dma.c ****       hdma->XferCpltCallback = pCallback;
 705:Drivers/STM32F1xx_HAL_Driver/Src/stm32f1xx_hal_dma.c ****       break;
 706:Drivers/STM32F1xx_HAL_Driver/Src/stm32f1xx_hal_dma.c ****       
 707:Drivers/STM32F1xx_HAL_Driver/Src/stm32f1xx_hal_dma.c ****     case  HAL_DMA_XFER_HALFCPLT_CB_ID:
 708:Drivers/STM32F1xx_HAL_Driver/Src/stm32f1xx_hal_dma.c ****       hdma->XferHalfCpltCallback = pCallback;
 709:Drivers/STM32F1xx_HAL_Driver/Src/stm32f1xx_hal_dma.c ****       break;         
 710:Drivers/STM32F1xx_HAL_Driver/Src/stm32f1xx_hal_dma.c **** 
 711:Drivers/STM32F1xx_HAL_Driver/Src/stm32f1xx_hal_dma.c ****     case  HAL_DMA_XFER_ERROR_CB_ID:
 712:Drivers/STM32F1xx_HAL_Driver/Src/stm32f1xx_hal_dma.c ****       hdma->XferErrorCallback = pCallback;
 713:Drivers/STM32F1xx_HAL_Driver/Src/stm32f1xx_hal_dma.c ****       break;         
 714:Drivers/STM32F1xx_HAL_Driver/Src/stm32f1xx_hal_dma.c ****       
 715:Drivers/STM32F1xx_HAL_Driver/Src/stm32f1xx_hal_dma.c ****     case  HAL_DMA_XFER_ABORT_CB_ID:
 716:Drivers/STM32F1xx_HAL_Driver/Src/stm32f1xx_hal_dma.c ****       hdma->XferAbortCallback = pCallback;
ARM GAS  /tmp//cc32eCGN.s 			page 14


 717:Drivers/STM32F1xx_HAL_Driver/Src/stm32f1xx_hal_dma.c ****       break; 
 718:Drivers/STM32F1xx_HAL_Driver/Src/stm32f1xx_hal_dma.c ****       
 719:Drivers/STM32F1xx_HAL_Driver/Src/stm32f1xx_hal_dma.c ****     default:
 720:Drivers/STM32F1xx_HAL_Driver/Src/stm32f1xx_hal_dma.c ****       status = HAL_ERROR;
 721:Drivers/STM32F1xx_HAL_Driver/Src/stm32f1xx_hal_dma.c ****       break;                                                            
 722:Drivers/STM32F1xx_HAL_Driver/Src/stm32f1xx_hal_dma.c ****     }
 723:Drivers/STM32F1xx_HAL_Driver/Src/stm32f1xx_hal_dma.c ****   }
 724:Drivers/STM32F1xx_HAL_Driver/Src/stm32f1xx_hal_dma.c ****   else
 725:Drivers/STM32F1xx_HAL_Driver/Src/stm32f1xx_hal_dma.c ****   {
 726:Drivers/STM32F1xx_HAL_Driver/Src/stm32f1xx_hal_dma.c ****     status = HAL_ERROR;
 727:Drivers/STM32F1xx_HAL_Driver/Src/stm32f1xx_hal_dma.c ****   } 
 728:Drivers/STM32F1xx_HAL_Driver/Src/stm32f1xx_hal_dma.c ****   
 729:Drivers/STM32F1xx_HAL_Driver/Src/stm32f1xx_hal_dma.c ****   /* Release Lock */
 730:Drivers/STM32F1xx_HAL_Driver/Src/stm32f1xx_hal_dma.c ****   __HAL_UNLOCK(hdma);
 731:Drivers/STM32F1xx_HAL_Driver/Src/stm32f1xx_hal_dma.c ****   
 732:Drivers/STM32F1xx_HAL_Driver/Src/stm32f1xx_hal_dma.c ****   return status;
 733:Drivers/STM32F1xx_HAL_Driver/Src/stm32f1xx_hal_dma.c **** }
 734:Drivers/STM32F1xx_HAL_Driver/Src/stm32f1xx_hal_dma.c **** 
 735:Drivers/STM32F1xx_HAL_Driver/Src/stm32f1xx_hal_dma.c **** /**
 736:Drivers/STM32F1xx_HAL_Driver/Src/stm32f1xx_hal_dma.c ****   * @brief UnRegister callbacks
 737:Drivers/STM32F1xx_HAL_Driver/Src/stm32f1xx_hal_dma.c ****   * @param hdma: pointer to a DMA_HandleTypeDef structure that contains
 738:Drivers/STM32F1xx_HAL_Driver/Src/stm32f1xx_hal_dma.c ****   *              the configuration information for the specified DMA Channel.
 739:Drivers/STM32F1xx_HAL_Driver/Src/stm32f1xx_hal_dma.c ****   * @param CallbackID: User Callback identifier
 740:Drivers/STM32F1xx_HAL_Driver/Src/stm32f1xx_hal_dma.c ****   *                    a HAL_DMA_CallbackIDTypeDef ENUM as parameter.
 741:Drivers/STM32F1xx_HAL_Driver/Src/stm32f1xx_hal_dma.c ****   * @retval HAL status
 742:Drivers/STM32F1xx_HAL_Driver/Src/stm32f1xx_hal_dma.c ****   */              
 743:Drivers/STM32F1xx_HAL_Driver/Src/stm32f1xx_hal_dma.c **** HAL_StatusTypeDef HAL_DMA_UnRegisterCallback(DMA_HandleTypeDef *hdma, HAL_DMA_CallbackIDTypeDef Cal
 744:Drivers/STM32F1xx_HAL_Driver/Src/stm32f1xx_hal_dma.c **** {
 745:Drivers/STM32F1xx_HAL_Driver/Src/stm32f1xx_hal_dma.c ****   HAL_StatusTypeDef status = HAL_OK;
 746:Drivers/STM32F1xx_HAL_Driver/Src/stm32f1xx_hal_dma.c **** 
 747:Drivers/STM32F1xx_HAL_Driver/Src/stm32f1xx_hal_dma.c ****   /* Process locked */
 748:Drivers/STM32F1xx_HAL_Driver/Src/stm32f1xx_hal_dma.c ****   __HAL_LOCK(hdma);
 749:Drivers/STM32F1xx_HAL_Driver/Src/stm32f1xx_hal_dma.c ****   
 750:Drivers/STM32F1xx_HAL_Driver/Src/stm32f1xx_hal_dma.c ****   if(HAL_DMA_STATE_READY == hdma->State)
 751:Drivers/STM32F1xx_HAL_Driver/Src/stm32f1xx_hal_dma.c ****   {
 752:Drivers/STM32F1xx_HAL_Driver/Src/stm32f1xx_hal_dma.c ****     switch (CallbackID)
 753:Drivers/STM32F1xx_HAL_Driver/Src/stm32f1xx_hal_dma.c ****     {
 754:Drivers/STM32F1xx_HAL_Driver/Src/stm32f1xx_hal_dma.c ****     case  HAL_DMA_XFER_CPLT_CB_ID:
 755:Drivers/STM32F1xx_HAL_Driver/Src/stm32f1xx_hal_dma.c ****       hdma->XferCpltCallback = NULL;
 756:Drivers/STM32F1xx_HAL_Driver/Src/stm32f1xx_hal_dma.c ****       break;
 757:Drivers/STM32F1xx_HAL_Driver/Src/stm32f1xx_hal_dma.c **** 
 758:Drivers/STM32F1xx_HAL_Driver/Src/stm32f1xx_hal_dma.c ****     case  HAL_DMA_XFER_HALFCPLT_CB_ID:
 759:Drivers/STM32F1xx_HAL_Driver/Src/stm32f1xx_hal_dma.c ****       hdma->XferHalfCpltCallback = NULL;
 760:Drivers/STM32F1xx_HAL_Driver/Src/stm32f1xx_hal_dma.c ****       break;         
 761:Drivers/STM32F1xx_HAL_Driver/Src/stm32f1xx_hal_dma.c **** 
 762:Drivers/STM32F1xx_HAL_Driver/Src/stm32f1xx_hal_dma.c ****     case  HAL_DMA_XFER_ERROR_CB_ID:
 763:Drivers/STM32F1xx_HAL_Driver/Src/stm32f1xx_hal_dma.c ****       hdma->XferErrorCallback = NULL;
 764:Drivers/STM32F1xx_HAL_Driver/Src/stm32f1xx_hal_dma.c ****       break;         
 765:Drivers/STM32F1xx_HAL_Driver/Src/stm32f1xx_hal_dma.c **** 
 766:Drivers/STM32F1xx_HAL_Driver/Src/stm32f1xx_hal_dma.c ****     case  HAL_DMA_XFER_ABORT_CB_ID:
 767:Drivers/STM32F1xx_HAL_Driver/Src/stm32f1xx_hal_dma.c ****       hdma->XferAbortCallback = NULL;
 768:Drivers/STM32F1xx_HAL_Driver/Src/stm32f1xx_hal_dma.c ****       break; 
 769:Drivers/STM32F1xx_HAL_Driver/Src/stm32f1xx_hal_dma.c **** 
 770:Drivers/STM32F1xx_HAL_Driver/Src/stm32f1xx_hal_dma.c ****     case   HAL_DMA_XFER_ALL_CB_ID:
 771:Drivers/STM32F1xx_HAL_Driver/Src/stm32f1xx_hal_dma.c ****       hdma->XferCpltCallback = NULL;
 772:Drivers/STM32F1xx_HAL_Driver/Src/stm32f1xx_hal_dma.c ****       hdma->XferHalfCpltCallback = NULL;
 773:Drivers/STM32F1xx_HAL_Driver/Src/stm32f1xx_hal_dma.c ****       hdma->XferErrorCallback = NULL;
ARM GAS  /tmp//cc32eCGN.s 			page 15


 774:Drivers/STM32F1xx_HAL_Driver/Src/stm32f1xx_hal_dma.c ****       hdma->XferAbortCallback = NULL;
 775:Drivers/STM32F1xx_HAL_Driver/Src/stm32f1xx_hal_dma.c ****       break; 
 776:Drivers/STM32F1xx_HAL_Driver/Src/stm32f1xx_hal_dma.c **** 
 777:Drivers/STM32F1xx_HAL_Driver/Src/stm32f1xx_hal_dma.c ****     default:
 778:Drivers/STM32F1xx_HAL_Driver/Src/stm32f1xx_hal_dma.c ****       status = HAL_ERROR;
 779:Drivers/STM32F1xx_HAL_Driver/Src/stm32f1xx_hal_dma.c ****       break;
 780:Drivers/STM32F1xx_HAL_Driver/Src/stm32f1xx_hal_dma.c ****     }
 781:Drivers/STM32F1xx_HAL_Driver/Src/stm32f1xx_hal_dma.c ****   }
 782:Drivers/STM32F1xx_HAL_Driver/Src/stm32f1xx_hal_dma.c ****   else
 783:Drivers/STM32F1xx_HAL_Driver/Src/stm32f1xx_hal_dma.c ****   {
 784:Drivers/STM32F1xx_HAL_Driver/Src/stm32f1xx_hal_dma.c ****     status = HAL_ERROR;
 785:Drivers/STM32F1xx_HAL_Driver/Src/stm32f1xx_hal_dma.c ****   } 
 786:Drivers/STM32F1xx_HAL_Driver/Src/stm32f1xx_hal_dma.c ****   
 787:Drivers/STM32F1xx_HAL_Driver/Src/stm32f1xx_hal_dma.c ****   /* Release Lock */
 788:Drivers/STM32F1xx_HAL_Driver/Src/stm32f1xx_hal_dma.c ****   __HAL_UNLOCK(hdma);
 789:Drivers/STM32F1xx_HAL_Driver/Src/stm32f1xx_hal_dma.c ****   
 790:Drivers/STM32F1xx_HAL_Driver/Src/stm32f1xx_hal_dma.c ****   return status;
 791:Drivers/STM32F1xx_HAL_Driver/Src/stm32f1xx_hal_dma.c **** }
 792:Drivers/STM32F1xx_HAL_Driver/Src/stm32f1xx_hal_dma.c ****   
 793:Drivers/STM32F1xx_HAL_Driver/Src/stm32f1xx_hal_dma.c **** /**
 794:Drivers/STM32F1xx_HAL_Driver/Src/stm32f1xx_hal_dma.c ****   * @}
 795:Drivers/STM32F1xx_HAL_Driver/Src/stm32f1xx_hal_dma.c ****   */
 796:Drivers/STM32F1xx_HAL_Driver/Src/stm32f1xx_hal_dma.c **** 
 797:Drivers/STM32F1xx_HAL_Driver/Src/stm32f1xx_hal_dma.c **** /** @defgroup DMA_Exported_Functions_Group3 Peripheral State and Errors functions
 798:Drivers/STM32F1xx_HAL_Driver/Src/stm32f1xx_hal_dma.c ****   *  @brief    Peripheral State and Errors functions
 799:Drivers/STM32F1xx_HAL_Driver/Src/stm32f1xx_hal_dma.c ****   *
 800:Drivers/STM32F1xx_HAL_Driver/Src/stm32f1xx_hal_dma.c **** @verbatim
 801:Drivers/STM32F1xx_HAL_Driver/Src/stm32f1xx_hal_dma.c ****  ===============================================================================
 802:Drivers/STM32F1xx_HAL_Driver/Src/stm32f1xx_hal_dma.c ****             ##### Peripheral State and Errors functions #####
 803:Drivers/STM32F1xx_HAL_Driver/Src/stm32f1xx_hal_dma.c ****  ===============================================================================  
 804:Drivers/STM32F1xx_HAL_Driver/Src/stm32f1xx_hal_dma.c ****     [..]
 805:Drivers/STM32F1xx_HAL_Driver/Src/stm32f1xx_hal_dma.c ****     This subsection provides functions allowing to
 806:Drivers/STM32F1xx_HAL_Driver/Src/stm32f1xx_hal_dma.c ****       (+) Check the DMA state
 807:Drivers/STM32F1xx_HAL_Driver/Src/stm32f1xx_hal_dma.c ****       (+) Get error code
 808:Drivers/STM32F1xx_HAL_Driver/Src/stm32f1xx_hal_dma.c **** 
 809:Drivers/STM32F1xx_HAL_Driver/Src/stm32f1xx_hal_dma.c **** @endverbatim
 810:Drivers/STM32F1xx_HAL_Driver/Src/stm32f1xx_hal_dma.c ****   * @{
 811:Drivers/STM32F1xx_HAL_Driver/Src/stm32f1xx_hal_dma.c ****   */
 812:Drivers/STM32F1xx_HAL_Driver/Src/stm32f1xx_hal_dma.c **** 
 813:Drivers/STM32F1xx_HAL_Driver/Src/stm32f1xx_hal_dma.c **** /**
 814:Drivers/STM32F1xx_HAL_Driver/Src/stm32f1xx_hal_dma.c ****   * @brief  Return the DMA handle state.
 815:Drivers/STM32F1xx_HAL_Driver/Src/stm32f1xx_hal_dma.c ****   * @param  hdma: pointer to a DMA_HandleTypeDef structure that contains
 816:Drivers/STM32F1xx_HAL_Driver/Src/stm32f1xx_hal_dma.c ****   *               the configuration information for the specified DMA Channel.
 817:Drivers/STM32F1xx_HAL_Driver/Src/stm32f1xx_hal_dma.c ****   * @retval HAL state
 818:Drivers/STM32F1xx_HAL_Driver/Src/stm32f1xx_hal_dma.c ****   */
 819:Drivers/STM32F1xx_HAL_Driver/Src/stm32f1xx_hal_dma.c **** HAL_DMA_StateTypeDef HAL_DMA_GetState(DMA_HandleTypeDef *hdma)
 820:Drivers/STM32F1xx_HAL_Driver/Src/stm32f1xx_hal_dma.c **** {
 821:Drivers/STM32F1xx_HAL_Driver/Src/stm32f1xx_hal_dma.c ****   /* Return DMA handle state */
 822:Drivers/STM32F1xx_HAL_Driver/Src/stm32f1xx_hal_dma.c ****   return hdma->State;
 823:Drivers/STM32F1xx_HAL_Driver/Src/stm32f1xx_hal_dma.c **** }
 824:Drivers/STM32F1xx_HAL_Driver/Src/stm32f1xx_hal_dma.c **** 
 825:Drivers/STM32F1xx_HAL_Driver/Src/stm32f1xx_hal_dma.c **** /**
 826:Drivers/STM32F1xx_HAL_Driver/Src/stm32f1xx_hal_dma.c ****   * @brief  Return the DMA error code.
 827:Drivers/STM32F1xx_HAL_Driver/Src/stm32f1xx_hal_dma.c ****   * @param  hdma : pointer to a DMA_HandleTypeDef structure that contains
 828:Drivers/STM32F1xx_HAL_Driver/Src/stm32f1xx_hal_dma.c ****   *              the configuration information for the specified DMA Channel.
 829:Drivers/STM32F1xx_HAL_Driver/Src/stm32f1xx_hal_dma.c ****   * @retval DMA Error Code
 830:Drivers/STM32F1xx_HAL_Driver/Src/stm32f1xx_hal_dma.c ****   */
ARM GAS  /tmp//cc32eCGN.s 			page 16


 831:Drivers/STM32F1xx_HAL_Driver/Src/stm32f1xx_hal_dma.c **** uint32_t HAL_DMA_GetError(DMA_HandleTypeDef *hdma)
 832:Drivers/STM32F1xx_HAL_Driver/Src/stm32f1xx_hal_dma.c **** {
 833:Drivers/STM32F1xx_HAL_Driver/Src/stm32f1xx_hal_dma.c ****   return hdma->ErrorCode;
 834:Drivers/STM32F1xx_HAL_Driver/Src/stm32f1xx_hal_dma.c **** }
 835:Drivers/STM32F1xx_HAL_Driver/Src/stm32f1xx_hal_dma.c **** 
 836:Drivers/STM32F1xx_HAL_Driver/Src/stm32f1xx_hal_dma.c **** /**
 837:Drivers/STM32F1xx_HAL_Driver/Src/stm32f1xx_hal_dma.c ****   * @}
 838:Drivers/STM32F1xx_HAL_Driver/Src/stm32f1xx_hal_dma.c ****   */
 839:Drivers/STM32F1xx_HAL_Driver/Src/stm32f1xx_hal_dma.c **** 
 840:Drivers/STM32F1xx_HAL_Driver/Src/stm32f1xx_hal_dma.c **** /**
 841:Drivers/STM32F1xx_HAL_Driver/Src/stm32f1xx_hal_dma.c ****   * @}
 842:Drivers/STM32F1xx_HAL_Driver/Src/stm32f1xx_hal_dma.c ****   */
 843:Drivers/STM32F1xx_HAL_Driver/Src/stm32f1xx_hal_dma.c **** 
 844:Drivers/STM32F1xx_HAL_Driver/Src/stm32f1xx_hal_dma.c **** /** @addtogroup DMA_Private_Functions
 845:Drivers/STM32F1xx_HAL_Driver/Src/stm32f1xx_hal_dma.c ****   * @{
 846:Drivers/STM32F1xx_HAL_Driver/Src/stm32f1xx_hal_dma.c ****   */
 847:Drivers/STM32F1xx_HAL_Driver/Src/stm32f1xx_hal_dma.c **** 
 848:Drivers/STM32F1xx_HAL_Driver/Src/stm32f1xx_hal_dma.c **** /**
 849:Drivers/STM32F1xx_HAL_Driver/Src/stm32f1xx_hal_dma.c ****   * @brief  Sets the DMA Transfer parameter.
 850:Drivers/STM32F1xx_HAL_Driver/Src/stm32f1xx_hal_dma.c ****   * @param  hdma:       pointer to a DMA_HandleTypeDef structure that contains
 851:Drivers/STM32F1xx_HAL_Driver/Src/stm32f1xx_hal_dma.c ****   *                     the configuration information for the specified DMA Channel.
 852:Drivers/STM32F1xx_HAL_Driver/Src/stm32f1xx_hal_dma.c ****   * @param  SrcAddress: The source memory Buffer address
 853:Drivers/STM32F1xx_HAL_Driver/Src/stm32f1xx_hal_dma.c ****   * @param  DstAddress: The destination memory Buffer address
 854:Drivers/STM32F1xx_HAL_Driver/Src/stm32f1xx_hal_dma.c ****   * @param  DataLength: The length of data to be transferred from source to destination
 855:Drivers/STM32F1xx_HAL_Driver/Src/stm32f1xx_hal_dma.c ****   * @retval HAL status
 856:Drivers/STM32F1xx_HAL_Driver/Src/stm32f1xx_hal_dma.c ****   */
 857:Drivers/STM32F1xx_HAL_Driver/Src/stm32f1xx_hal_dma.c **** static void DMA_SetConfig(DMA_HandleTypeDef *hdma, uint32_t SrcAddress, uint32_t DstAddress, uint32
 858:Drivers/STM32F1xx_HAL_Driver/Src/stm32f1xx_hal_dma.c **** {
  27              		.loc 1 858 1 view -0
  28              		.cfi_startproc
  29              		@ args = 0, pretend = 0, frame = 0
  30              		@ frame_needed = 0, uses_anonymous_args = 0
  31              		@ link register save eliminated.
  32              		.loc 1 858 1 is_stmt 0 view .LVU1
  33 0000 30B4     		push	{r4, r5}
  34              	.LCFI0:
  35              		.cfi_def_cfa_offset 8
  36              		.cfi_offset 4, -8
  37              		.cfi_offset 5, -4
 859:Drivers/STM32F1xx_HAL_Driver/Src/stm32f1xx_hal_dma.c ****   /* Clear all flags */
 860:Drivers/STM32F1xx_HAL_Driver/Src/stm32f1xx_hal_dma.c ****   hdma->DmaBaseAddress->IFCR = (DMA_ISR_GIF1 << hdma->ChannelIndex);
  38              		.loc 1 860 3 is_stmt 1 view .LVU2
  39              		.loc 1 860 46 is_stmt 0 view .LVU3
  40 0002 0124     		movs	r4, #1
  41 0004 056C     		ldr	r5, [r0, #64]
  42 0006 AC40     		lsls	r4, r4, r5
  43              		.loc 1 860 30 view .LVU4
  44 0008 C56B     		ldr	r5, [r0, #60]
  45 000a 6C60     		str	r4, [r5, #4]
 861:Drivers/STM32F1xx_HAL_Driver/Src/stm32f1xx_hal_dma.c **** 
 862:Drivers/STM32F1xx_HAL_Driver/Src/stm32f1xx_hal_dma.c ****   /* Configure DMA Channel data length */
 863:Drivers/STM32F1xx_HAL_Driver/Src/stm32f1xx_hal_dma.c ****   hdma->Instance->CNDTR = DataLength;
  46              		.loc 1 863 3 is_stmt 1 view .LVU5
  47              		.loc 1 863 7 is_stmt 0 view .LVU6
  48 000c 0468     		ldr	r4, [r0]
  49              		.loc 1 863 25 view .LVU7
  50 000e 6360     		str	r3, [r4, #4]
ARM GAS  /tmp//cc32eCGN.s 			page 17


 864:Drivers/STM32F1xx_HAL_Driver/Src/stm32f1xx_hal_dma.c **** 
 865:Drivers/STM32F1xx_HAL_Driver/Src/stm32f1xx_hal_dma.c ****   /* Memory to Peripheral */
 866:Drivers/STM32F1xx_HAL_Driver/Src/stm32f1xx_hal_dma.c ****   if((hdma->Init.Direction) == DMA_MEMORY_TO_PERIPH)
  51              		.loc 1 866 3 is_stmt 1 view .LVU8
  52              		.loc 1 866 17 is_stmt 0 view .LVU9
  53 0010 4368     		ldr	r3, [r0, #4]
  54              	.LVL1:
  55              		.loc 1 866 5 view .LVU10
  56 0012 102B     		cmp	r3, #16
  57 0014 05D0     		beq	.L5
 867:Drivers/STM32F1xx_HAL_Driver/Src/stm32f1xx_hal_dma.c ****   {
 868:Drivers/STM32F1xx_HAL_Driver/Src/stm32f1xx_hal_dma.c ****     /* Configure DMA Channel destination address */
 869:Drivers/STM32F1xx_HAL_Driver/Src/stm32f1xx_hal_dma.c ****     hdma->Instance->CPAR = DstAddress;
 870:Drivers/STM32F1xx_HAL_Driver/Src/stm32f1xx_hal_dma.c **** 
 871:Drivers/STM32F1xx_HAL_Driver/Src/stm32f1xx_hal_dma.c ****     /* Configure DMA Channel source address */
 872:Drivers/STM32F1xx_HAL_Driver/Src/stm32f1xx_hal_dma.c ****     hdma->Instance->CMAR = SrcAddress;
 873:Drivers/STM32F1xx_HAL_Driver/Src/stm32f1xx_hal_dma.c ****   }
 874:Drivers/STM32F1xx_HAL_Driver/Src/stm32f1xx_hal_dma.c ****   /* Peripheral to Memory */
 875:Drivers/STM32F1xx_HAL_Driver/Src/stm32f1xx_hal_dma.c ****   else
 876:Drivers/STM32F1xx_HAL_Driver/Src/stm32f1xx_hal_dma.c ****   {
 877:Drivers/STM32F1xx_HAL_Driver/Src/stm32f1xx_hal_dma.c ****     /* Configure DMA Channel source address */
 878:Drivers/STM32F1xx_HAL_Driver/Src/stm32f1xx_hal_dma.c ****     hdma->Instance->CPAR = SrcAddress;
  58              		.loc 1 878 5 is_stmt 1 view .LVU11
  59              		.loc 1 878 9 is_stmt 0 view .LVU12
  60 0016 0368     		ldr	r3, [r0]
  61              		.loc 1 878 26 view .LVU13
  62 0018 9960     		str	r1, [r3, #8]
  63              	.LVL2:
 879:Drivers/STM32F1xx_HAL_Driver/Src/stm32f1xx_hal_dma.c **** 
 880:Drivers/STM32F1xx_HAL_Driver/Src/stm32f1xx_hal_dma.c ****     /* Configure DMA Channel destination address */
 881:Drivers/STM32F1xx_HAL_Driver/Src/stm32f1xx_hal_dma.c ****     hdma->Instance->CMAR = DstAddress;
  64              		.loc 1 881 5 is_stmt 1 view .LVU14
  65              		.loc 1 881 9 is_stmt 0 view .LVU15
  66 001a 0368     		ldr	r3, [r0]
  67              		.loc 1 881 26 view .LVU16
  68 001c DA60     		str	r2, [r3, #12]
  69              	.L1:
 882:Drivers/STM32F1xx_HAL_Driver/Src/stm32f1xx_hal_dma.c ****   }
 883:Drivers/STM32F1xx_HAL_Driver/Src/stm32f1xx_hal_dma.c **** }
  70              		.loc 1 883 1 view .LVU17
  71 001e 30BC     		pop	{r4, r5}
  72              	.LCFI1:
  73              		.cfi_remember_state
  74              		.cfi_restore 5
  75              		.cfi_restore 4
  76              		.cfi_def_cfa_offset 0
  77 0020 7047     		bx	lr
  78              	.LVL3:
  79              	.L5:
  80              	.LCFI2:
  81              		.cfi_restore_state
 869:Drivers/STM32F1xx_HAL_Driver/Src/stm32f1xx_hal_dma.c **** 
  82              		.loc 1 869 5 is_stmt 1 view .LVU18
 869:Drivers/STM32F1xx_HAL_Driver/Src/stm32f1xx_hal_dma.c **** 
  83              		.loc 1 869 9 is_stmt 0 view .LVU19
  84 0022 0368     		ldr	r3, [r0]
 869:Drivers/STM32F1xx_HAL_Driver/Src/stm32f1xx_hal_dma.c **** 
ARM GAS  /tmp//cc32eCGN.s 			page 18


  85              		.loc 1 869 26 view .LVU20
  86 0024 9A60     		str	r2, [r3, #8]
  87              	.LVL4:
 872:Drivers/STM32F1xx_HAL_Driver/Src/stm32f1xx_hal_dma.c ****   }
  88              		.loc 1 872 5 is_stmt 1 view .LVU21
 872:Drivers/STM32F1xx_HAL_Driver/Src/stm32f1xx_hal_dma.c ****   }
  89              		.loc 1 872 9 is_stmt 0 view .LVU22
  90 0026 0368     		ldr	r3, [r0]
 872:Drivers/STM32F1xx_HAL_Driver/Src/stm32f1xx_hal_dma.c ****   }
  91              		.loc 1 872 26 view .LVU23
  92 0028 D960     		str	r1, [r3, #12]
  93 002a F8E7     		b	.L1
  94              		.cfi_endproc
  95              	.LFE77:
  97              		.section	.text.HAL_DMA_Init,"ax",%progbits
  98              		.align	1
  99              		.global	HAL_DMA_Init
 100              		.syntax unified
 101              		.thumb
 102              		.thumb_func
 104              	HAL_DMA_Init:
 105              	.LVL5:
 106              	.LFB65:
 143:Drivers/STM32F1xx_HAL_Driver/Src/stm32f1xx_hal_dma.c ****   uint32_t tmp = 0U;
 107              		.loc 1 143 1 is_stmt 1 view -0
 108              		.cfi_startproc
 109              		@ args = 0, pretend = 0, frame = 0
 110              		@ frame_needed = 0, uses_anonymous_args = 0
 111              		@ link register save eliminated.
 144:Drivers/STM32F1xx_HAL_Driver/Src/stm32f1xx_hal_dma.c **** 
 112              		.loc 1 144 3 view .LVU25
 147:Drivers/STM32F1xx_HAL_Driver/Src/stm32f1xx_hal_dma.c ****   {
 113              		.loc 1 147 3 view .LVU26
 147:Drivers/STM32F1xx_HAL_Driver/Src/stm32f1xx_hal_dma.c ****   {
 114              		.loc 1 147 5 is_stmt 0 view .LVU27
 115 0000 0028     		cmp	r0, #0
 116 0002 38D0     		beq	.L10
 143:Drivers/STM32F1xx_HAL_Driver/Src/stm32f1xx_hal_dma.c ****   uint32_t tmp = 0U;
 117              		.loc 1 143 1 view .LVU28
 118 0004 10B4     		push	{r4}
 119              	.LCFI3:
 120              		.cfi_def_cfa_offset 4
 121              		.cfi_offset 4, -4
 122 0006 0246     		mov	r2, r0
 153:Drivers/STM32F1xx_HAL_Driver/Src/stm32f1xx_hal_dma.c ****   assert_param(IS_DMA_DIRECTION(hdma->Init.Direction));
 123              		.loc 1 153 3 is_stmt 1 view .LVU29
 154:Drivers/STM32F1xx_HAL_Driver/Src/stm32f1xx_hal_dma.c ****   assert_param(IS_DMA_PERIPHERAL_INC_STATE(hdma->Init.PeriphInc));
 124              		.loc 1 154 3 view .LVU30
 155:Drivers/STM32F1xx_HAL_Driver/Src/stm32f1xx_hal_dma.c ****   assert_param(IS_DMA_MEMORY_INC_STATE(hdma->Init.MemInc));
 125              		.loc 1 155 3 view .LVU31
 156:Drivers/STM32F1xx_HAL_Driver/Src/stm32f1xx_hal_dma.c ****   assert_param(IS_DMA_PERIPHERAL_DATA_SIZE(hdma->Init.PeriphDataAlignment));
 126              		.loc 1 156 3 view .LVU32
 157:Drivers/STM32F1xx_HAL_Driver/Src/stm32f1xx_hal_dma.c ****   assert_param(IS_DMA_MEMORY_DATA_SIZE(hdma->Init.MemDataAlignment));
 127              		.loc 1 157 3 view .LVU33
 158:Drivers/STM32F1xx_HAL_Driver/Src/stm32f1xx_hal_dma.c ****   assert_param(IS_DMA_MODE(hdma->Init.Mode));
 128              		.loc 1 158 3 view .LVU34
 159:Drivers/STM32F1xx_HAL_Driver/Src/stm32f1xx_hal_dma.c ****   assert_param(IS_DMA_PRIORITY(hdma->Init.Priority));
ARM GAS  /tmp//cc32eCGN.s 			page 19


 129              		.loc 1 159 3 view .LVU35
 160:Drivers/STM32F1xx_HAL_Driver/Src/stm32f1xx_hal_dma.c **** 
 130              		.loc 1 160 3 view .LVU36
 164:Drivers/STM32F1xx_HAL_Driver/Src/stm32f1xx_hal_dma.c ****   {
 131              		.loc 1 164 3 view .LVU37
 164:Drivers/STM32F1xx_HAL_Driver/Src/stm32f1xx_hal_dma.c ****   {
 132              		.loc 1 164 22 is_stmt 0 view .LVU38
 133 0008 0168     		ldr	r1, [r0]
 164:Drivers/STM32F1xx_HAL_Driver/Src/stm32f1xx_hal_dma.c ****   {
 134              		.loc 1 164 6 view .LVU39
 135 000a 1C4B     		ldr	r3, .L15
 136 000c 9942     		cmp	r1, r3
 137 000e 27D8     		bhi	.L8
 167:Drivers/STM32F1xx_HAL_Driver/Src/stm32f1xx_hal_dma.c ****     hdma->DmaBaseAddress = DMA1;
 138              		.loc 1 167 5 is_stmt 1 view .LVU40
 167:Drivers/STM32F1xx_HAL_Driver/Src/stm32f1xx_hal_dma.c ****     hdma->DmaBaseAddress = DMA1;
 139              		.loc 1 167 53 is_stmt 0 view .LVU41
 140 0010 1B4B     		ldr	r3, .L15+4
 141 0012 0B44     		add	r3, r3, r1
 167:Drivers/STM32F1xx_HAL_Driver/Src/stm32f1xx_hal_dma.c ****     hdma->DmaBaseAddress = DMA1;
 142              		.loc 1 167 80 view .LVU42
 143 0014 1B48     		ldr	r0, .L15+8
 144              	.LVL6:
 167:Drivers/STM32F1xx_HAL_Driver/Src/stm32f1xx_hal_dma.c ****     hdma->DmaBaseAddress = DMA1;
 145              		.loc 1 167 80 view .LVU43
 146 0016 A0FB0303 		umull	r0, r3, r0, r3
 147 001a 1B09     		lsrs	r3, r3, #4
 167:Drivers/STM32F1xx_HAL_Driver/Src/stm32f1xx_hal_dma.c ****     hdma->DmaBaseAddress = DMA1;
 148              		.loc 1 167 135 view .LVU44
 149 001c 9B00     		lsls	r3, r3, #2
 167:Drivers/STM32F1xx_HAL_Driver/Src/stm32f1xx_hal_dma.c ****     hdma->DmaBaseAddress = DMA1;
 150              		.loc 1 167 24 view .LVU45
 151 001e 1364     		str	r3, [r2, #64]
 168:Drivers/STM32F1xx_HAL_Driver/Src/stm32f1xx_hal_dma.c ****   }
 152              		.loc 1 168 5 is_stmt 1 view .LVU46
 168:Drivers/STM32F1xx_HAL_Driver/Src/stm32f1xx_hal_dma.c ****   }
 153              		.loc 1 168 26 is_stmt 0 view .LVU47
 154 0020 194B     		ldr	r3, .L15+12
 155 0022 D363     		str	r3, [r2, #60]
 156              	.L9:
 183:Drivers/STM32F1xx_HAL_Driver/Src/stm32f1xx_hal_dma.c **** 
 157              		.loc 1 183 3 is_stmt 1 view .LVU48
 183:Drivers/STM32F1xx_HAL_Driver/Src/stm32f1xx_hal_dma.c **** 
 158              		.loc 1 183 15 is_stmt 0 view .LVU49
 159 0024 0223     		movs	r3, #2
 160 0026 82F82130 		strb	r3, [r2, #33]
 186:Drivers/STM32F1xx_HAL_Driver/Src/stm32f1xx_hal_dma.c **** 
 161              		.loc 1 186 3 is_stmt 1 view .LVU50
 186:Drivers/STM32F1xx_HAL_Driver/Src/stm32f1xx_hal_dma.c **** 
 162              		.loc 1 186 7 is_stmt 0 view .LVU51
 163 002a 0868     		ldr	r0, [r1]
 164              	.LVL7:
 189:Drivers/STM32F1xx_HAL_Driver/Src/stm32f1xx_hal_dma.c ****                       DMA_CCR_MINC  | DMA_CCR_PINC   | DMA_CCR_CIRC   | \
 165              		.loc 1 189 3 is_stmt 1 view .LVU52
 189:Drivers/STM32F1xx_HAL_Driver/Src/stm32f1xx_hal_dma.c ****                       DMA_CCR_MINC  | DMA_CCR_PINC   | DMA_CCR_CIRC   | \
 166              		.loc 1 189 7 is_stmt 0 view .LVU53
 167 002c 6FF30D10 		bfc	r0, #4, #10
ARM GAS  /tmp//cc32eCGN.s 			page 20


 168              	.LVL8:
 194:Drivers/STM32F1xx_HAL_Driver/Src/stm32f1xx_hal_dma.c ****           hdma->Init.PeriphInc           | hdma->Init.MemInc           |
 169              		.loc 1 194 3 is_stmt 1 view .LVU54
 194:Drivers/STM32F1xx_HAL_Driver/Src/stm32f1xx_hal_dma.c ****           hdma->Init.PeriphInc           | hdma->Init.MemInc           |
 170              		.loc 1 194 21 is_stmt 0 view .LVU55
 171 0030 5368     		ldr	r3, [r2, #4]
 194:Drivers/STM32F1xx_HAL_Driver/Src/stm32f1xx_hal_dma.c ****           hdma->Init.PeriphInc           | hdma->Init.MemInc           |
 172              		.loc 1 194 39 view .LVU56
 173 0032 9468     		ldr	r4, [r2, #8]
 174 0034 2343     		orrs	r3, r3, r4
 195:Drivers/STM32F1xx_HAL_Driver/Src/stm32f1xx_hal_dma.c ****           hdma->Init.PeriphDataAlignment | hdma->Init.MemDataAlignment |
 175              		.loc 1 195 42 view .LVU57
 176 0036 D468     		ldr	r4, [r2, #12]
 177 0038 2343     		orrs	r3, r3, r4
 195:Drivers/STM32F1xx_HAL_Driver/Src/stm32f1xx_hal_dma.c ****           hdma->Init.PeriphDataAlignment | hdma->Init.MemDataAlignment |
 178              		.loc 1 195 72 view .LVU58
 179 003a 1469     		ldr	r4, [r2, #16]
 180 003c 2343     		orrs	r3, r3, r4
 196:Drivers/STM32F1xx_HAL_Driver/Src/stm32f1xx_hal_dma.c ****           hdma->Init.Mode                | hdma->Init.Priority;
 181              		.loc 1 196 42 view .LVU59
 182 003e 5469     		ldr	r4, [r2, #20]
 183 0040 2343     		orrs	r3, r3, r4
 196:Drivers/STM32F1xx_HAL_Driver/Src/stm32f1xx_hal_dma.c ****           hdma->Init.Mode                | hdma->Init.Priority;
 184              		.loc 1 196 72 view .LVU60
 185 0042 9469     		ldr	r4, [r2, #24]
 186 0044 2343     		orrs	r3, r3, r4
 197:Drivers/STM32F1xx_HAL_Driver/Src/stm32f1xx_hal_dma.c **** 
 187              		.loc 1 197 42 view .LVU61
 188 0046 D469     		ldr	r4, [r2, #28]
 189 0048 2343     		orrs	r3, r3, r4
 194:Drivers/STM32F1xx_HAL_Driver/Src/stm32f1xx_hal_dma.c ****           hdma->Init.PeriphInc           | hdma->Init.MemInc           |
 190              		.loc 1 194 7 view .LVU62
 191 004a 0343     		orrs	r3, r3, r0
 192              	.LVL9:
 200:Drivers/STM32F1xx_HAL_Driver/Src/stm32f1xx_hal_dma.c **** 
 193              		.loc 1 200 3 is_stmt 1 view .LVU63
 200:Drivers/STM32F1xx_HAL_Driver/Src/stm32f1xx_hal_dma.c **** 
 194              		.loc 1 200 23 is_stmt 0 view .LVU64
 195 004c 0B60     		str	r3, [r1]
 203:Drivers/STM32F1xx_HAL_Driver/Src/stm32f1xx_hal_dma.c **** 
 196              		.loc 1 203 3 is_stmt 1 view .LVU65
 203:Drivers/STM32F1xx_HAL_Driver/Src/stm32f1xx_hal_dma.c **** 
 197              		.loc 1 203 19 is_stmt 0 view .LVU66
 198 004e 0020     		movs	r0, #0
 199 0050 9063     		str	r0, [r2, #56]
 206:Drivers/STM32F1xx_HAL_Driver/Src/stm32f1xx_hal_dma.c ****   /* Allocate lock resource and initialize it */
 200              		.loc 1 206 3 is_stmt 1 view .LVU67
 206:Drivers/STM32F1xx_HAL_Driver/Src/stm32f1xx_hal_dma.c ****   /* Allocate lock resource and initialize it */
 201              		.loc 1 206 15 is_stmt 0 view .LVU68
 202 0052 0123     		movs	r3, #1
 203              	.LVL10:
 206:Drivers/STM32F1xx_HAL_Driver/Src/stm32f1xx_hal_dma.c ****   /* Allocate lock resource and initialize it */
 204              		.loc 1 206 15 view .LVU69
 205 0054 82F82130 		strb	r3, [r2, #33]
 208:Drivers/STM32F1xx_HAL_Driver/Src/stm32f1xx_hal_dma.c **** 
 206              		.loc 1 208 3 is_stmt 1 view .LVU70
 208:Drivers/STM32F1xx_HAL_Driver/Src/stm32f1xx_hal_dma.c **** 
ARM GAS  /tmp//cc32eCGN.s 			page 21


 207              		.loc 1 208 14 is_stmt 0 view .LVU71
 208 0058 82F82000 		strb	r0, [r2, #32]
 210:Drivers/STM32F1xx_HAL_Driver/Src/stm32f1xx_hal_dma.c **** }
 209              		.loc 1 210 3 is_stmt 1 view .LVU72
 211:Drivers/STM32F1xx_HAL_Driver/Src/stm32f1xx_hal_dma.c **** 
 210              		.loc 1 211 1 is_stmt 0 view .LVU73
 211 005c 10BC     		pop	{r4}
 212              	.LCFI4:
 213              		.cfi_remember_state
 214              		.cfi_restore 4
 215              		.cfi_def_cfa_offset 0
 216 005e 7047     		bx	lr
 217              	.LVL11:
 218              	.L8:
 219              	.LCFI5:
 220              		.cfi_restore_state
 173:Drivers/STM32F1xx_HAL_Driver/Src/stm32f1xx_hal_dma.c ****     hdma->DmaBaseAddress = DMA2;
 221              		.loc 1 173 5 is_stmt 1 view .LVU74
 173:Drivers/STM32F1xx_HAL_Driver/Src/stm32f1xx_hal_dma.c ****     hdma->DmaBaseAddress = DMA2;
 222              		.loc 1 173 53 is_stmt 0 view .LVU75
 223 0060 0A4B     		ldr	r3, .L15+16
 224 0062 0B44     		add	r3, r3, r1
 173:Drivers/STM32F1xx_HAL_Driver/Src/stm32f1xx_hal_dma.c ****     hdma->DmaBaseAddress = DMA2;
 225              		.loc 1 173 80 view .LVU76
 226 0064 0748     		ldr	r0, .L15+8
 227              	.LVL12:
 173:Drivers/STM32F1xx_HAL_Driver/Src/stm32f1xx_hal_dma.c ****     hdma->DmaBaseAddress = DMA2;
 228              		.loc 1 173 80 view .LVU77
 229 0066 A0FB0303 		umull	r0, r3, r0, r3
 230 006a 1B09     		lsrs	r3, r3, #4
 173:Drivers/STM32F1xx_HAL_Driver/Src/stm32f1xx_hal_dma.c ****     hdma->DmaBaseAddress = DMA2;
 231              		.loc 1 173 135 view .LVU78
 232 006c 9B00     		lsls	r3, r3, #2
 173:Drivers/STM32F1xx_HAL_Driver/Src/stm32f1xx_hal_dma.c ****     hdma->DmaBaseAddress = DMA2;
 233              		.loc 1 173 24 view .LVU79
 234 006e 1364     		str	r3, [r2, #64]
 174:Drivers/STM32F1xx_HAL_Driver/Src/stm32f1xx_hal_dma.c ****   }
 235              		.loc 1 174 5 is_stmt 1 view .LVU80
 174:Drivers/STM32F1xx_HAL_Driver/Src/stm32f1xx_hal_dma.c ****   }
 236              		.loc 1 174 26 is_stmt 0 view .LVU81
 237 0070 074B     		ldr	r3, .L15+20
 238 0072 D363     		str	r3, [r2, #60]
 239 0074 D6E7     		b	.L9
 240              	.LVL13:
 241              	.L10:
 242              	.LCFI6:
 243              		.cfi_def_cfa_offset 0
 244              		.cfi_restore 4
 149:Drivers/STM32F1xx_HAL_Driver/Src/stm32f1xx_hal_dma.c ****   }
 245              		.loc 1 149 12 view .LVU82
 246 0076 0120     		movs	r0, #1
 247              	.LVL14:
 211:Drivers/STM32F1xx_HAL_Driver/Src/stm32f1xx_hal_dma.c **** 
 248              		.loc 1 211 1 view .LVU83
 249 0078 7047     		bx	lr
 250              	.L16:
 251 007a 00BF     		.align	2
ARM GAS  /tmp//cc32eCGN.s 			page 22


 252              	.L15:
 253 007c 07040240 		.word	1073873927
 254 0080 F8FFFDBF 		.word	-1073872904
 255 0084 CDCCCCCC 		.word	-858993459
 256 0088 00000240 		.word	1073872896
 257 008c F8FBFDBF 		.word	-1073873928
 258 0090 00040240 		.word	1073873920
 259              		.cfi_endproc
 260              	.LFE65:
 262              		.section	.text.HAL_DMA_DeInit,"ax",%progbits
 263              		.align	1
 264              		.global	HAL_DMA_DeInit
 265              		.syntax unified
 266              		.thumb
 267              		.thumb_func
 269              	HAL_DMA_DeInit:
 270              	.LVL15:
 271              	.LFB66:
 220:Drivers/STM32F1xx_HAL_Driver/Src/stm32f1xx_hal_dma.c ****   /* Check the DMA handle allocation */
 272              		.loc 1 220 1 is_stmt 1 view -0
 273              		.cfi_startproc
 274              		@ args = 0, pretend = 0, frame = 0
 275              		@ frame_needed = 0, uses_anonymous_args = 0
 276              		@ link register save eliminated.
 222:Drivers/STM32F1xx_HAL_Driver/Src/stm32f1xx_hal_dma.c ****   {
 277              		.loc 1 222 3 view .LVU85
 222:Drivers/STM32F1xx_HAL_Driver/Src/stm32f1xx_hal_dma.c ****   {
 278              		.loc 1 222 5 is_stmt 0 view .LVU86
 279 0000 0346     		mov	r3, r0
 280 0002 0028     		cmp	r0, #0
 281 0004 36D0     		beq	.L21
 228:Drivers/STM32F1xx_HAL_Driver/Src/stm32f1xx_hal_dma.c **** 
 282              		.loc 1 228 3 is_stmt 1 view .LVU87
 231:Drivers/STM32F1xx_HAL_Driver/Src/stm32f1xx_hal_dma.c **** 
 283              		.loc 1 231 3 view .LVU88
 284 0006 0168     		ldr	r1, [r0]
 285 0008 0A68     		ldr	r2, [r1]
 286 000a 22F00102 		bic	r2, r2, #1
 287 000e 0A60     		str	r2, [r1]
 234:Drivers/STM32F1xx_HAL_Driver/Src/stm32f1xx_hal_dma.c **** 
 288              		.loc 1 234 3 view .LVU89
 234:Drivers/STM32F1xx_HAL_Driver/Src/stm32f1xx_hal_dma.c **** 
 289              		.loc 1 234 7 is_stmt 0 view .LVU90
 290 0010 0168     		ldr	r1, [r0]
 234:Drivers/STM32F1xx_HAL_Driver/Src/stm32f1xx_hal_dma.c **** 
 291              		.loc 1 234 24 view .LVU91
 292 0012 0022     		movs	r2, #0
 293 0014 0A60     		str	r2, [r1]
 237:Drivers/STM32F1xx_HAL_Driver/Src/stm32f1xx_hal_dma.c **** 
 294              		.loc 1 237 3 is_stmt 1 view .LVU92
 237:Drivers/STM32F1xx_HAL_Driver/Src/stm32f1xx_hal_dma.c **** 
 295              		.loc 1 237 7 is_stmt 0 view .LVU93
 296 0016 0168     		ldr	r1, [r0]
 237:Drivers/STM32F1xx_HAL_Driver/Src/stm32f1xx_hal_dma.c **** 
 297              		.loc 1 237 25 view .LVU94
 298 0018 4A60     		str	r2, [r1, #4]
 240:Drivers/STM32F1xx_HAL_Driver/Src/stm32f1xx_hal_dma.c **** 
ARM GAS  /tmp//cc32eCGN.s 			page 23


 299              		.loc 1 240 3 is_stmt 1 view .LVU95
 240:Drivers/STM32F1xx_HAL_Driver/Src/stm32f1xx_hal_dma.c **** 
 300              		.loc 1 240 7 is_stmt 0 view .LVU96
 301 001a 0168     		ldr	r1, [r0]
 240:Drivers/STM32F1xx_HAL_Driver/Src/stm32f1xx_hal_dma.c **** 
 302              		.loc 1 240 25 view .LVU97
 303 001c 8A60     		str	r2, [r1, #8]
 243:Drivers/STM32F1xx_HAL_Driver/Src/stm32f1xx_hal_dma.c **** 
 304              		.loc 1 243 3 is_stmt 1 view .LVU98
 243:Drivers/STM32F1xx_HAL_Driver/Src/stm32f1xx_hal_dma.c **** 
 305              		.loc 1 243 7 is_stmt 0 view .LVU99
 306 001e 0168     		ldr	r1, [r0]
 243:Drivers/STM32F1xx_HAL_Driver/Src/stm32f1xx_hal_dma.c **** 
 307              		.loc 1 243 24 view .LVU100
 308 0020 CA60     		str	r2, [r1, #12]
 247:Drivers/STM32F1xx_HAL_Driver/Src/stm32f1xx_hal_dma.c ****   {
 309              		.loc 1 247 3 is_stmt 1 view .LVU101
 247:Drivers/STM32F1xx_HAL_Driver/Src/stm32f1xx_hal_dma.c ****   {
 310              		.loc 1 247 22 is_stmt 0 view .LVU102
 311 0022 0168     		ldr	r1, [r0]
 247:Drivers/STM32F1xx_HAL_Driver/Src/stm32f1xx_hal_dma.c ****   {
 312              		.loc 1 247 6 view .LVU103
 313 0024 144A     		ldr	r2, .L22
 314 0026 9142     		cmp	r1, r2
 315 0028 19D8     		bhi	.L19
 250:Drivers/STM32F1xx_HAL_Driver/Src/stm32f1xx_hal_dma.c ****     hdma->DmaBaseAddress = DMA1;
 316              		.loc 1 250 5 is_stmt 1 view .LVU104
 250:Drivers/STM32F1xx_HAL_Driver/Src/stm32f1xx_hal_dma.c ****     hdma->DmaBaseAddress = DMA1;
 317              		.loc 1 250 53 is_stmt 0 view .LVU105
 318 002a 144A     		ldr	r2, .L22+4
 319 002c 0A44     		add	r2, r2, r1
 250:Drivers/STM32F1xx_HAL_Driver/Src/stm32f1xx_hal_dma.c ****     hdma->DmaBaseAddress = DMA1;
 320              		.loc 1 250 80 view .LVU106
 321 002e 1449     		ldr	r1, .L22+8
 322 0030 A1FB0212 		umull	r1, r2, r1, r2
 323 0034 1209     		lsrs	r2, r2, #4
 250:Drivers/STM32F1xx_HAL_Driver/Src/stm32f1xx_hal_dma.c ****     hdma->DmaBaseAddress = DMA1;
 324              		.loc 1 250 135 view .LVU107
 325 0036 9200     		lsls	r2, r2, #2
 250:Drivers/STM32F1xx_HAL_Driver/Src/stm32f1xx_hal_dma.c ****     hdma->DmaBaseAddress = DMA1;
 326              		.loc 1 250 24 view .LVU108
 327 0038 0264     		str	r2, [r0, #64]
 251:Drivers/STM32F1xx_HAL_Driver/Src/stm32f1xx_hal_dma.c ****   }
 328              		.loc 1 251 5 is_stmt 1 view .LVU109
 251:Drivers/STM32F1xx_HAL_Driver/Src/stm32f1xx_hal_dma.c ****   }
 329              		.loc 1 251 26 is_stmt 0 view .LVU110
 330 003a 124A     		ldr	r2, .L22+12
 331 003c C263     		str	r2, [r0, #60]
 332              	.L20:
 266:Drivers/STM32F1xx_HAL_Driver/Src/stm32f1xx_hal_dma.c **** 
 333              		.loc 1 266 3 is_stmt 1 view .LVU111
 266:Drivers/STM32F1xx_HAL_Driver/Src/stm32f1xx_hal_dma.c **** 
 334              		.loc 1 266 54 is_stmt 0 view .LVU112
 335 003e 186C     		ldr	r0, [r3, #64]
 336              	.LVL16:
 266:Drivers/STM32F1xx_HAL_Driver/Src/stm32f1xx_hal_dma.c **** 
 337              		.loc 1 266 7 view .LVU113
ARM GAS  /tmp//cc32eCGN.s 			page 24


 338 0040 D96B     		ldr	r1, [r3, #60]
 266:Drivers/STM32F1xx_HAL_Driver/Src/stm32f1xx_hal_dma.c **** 
 339              		.loc 1 266 46 view .LVU114
 340 0042 0122     		movs	r2, #1
 341 0044 8240     		lsls	r2, r2, r0
 266:Drivers/STM32F1xx_HAL_Driver/Src/stm32f1xx_hal_dma.c **** 
 342              		.loc 1 266 30 view .LVU115
 343 0046 4A60     		str	r2, [r1, #4]
 269:Drivers/STM32F1xx_HAL_Driver/Src/stm32f1xx_hal_dma.c ****   hdma->XferHalfCpltCallback = NULL;
 344              		.loc 1 269 3 is_stmt 1 view .LVU116
 269:Drivers/STM32F1xx_HAL_Driver/Src/stm32f1xx_hal_dma.c ****   hdma->XferHalfCpltCallback = NULL;
 345              		.loc 1 269 26 is_stmt 0 view .LVU117
 346 0048 0020     		movs	r0, #0
 347 004a 9862     		str	r0, [r3, #40]
 270:Drivers/STM32F1xx_HAL_Driver/Src/stm32f1xx_hal_dma.c ****   hdma->XferErrorCallback = NULL;
 348              		.loc 1 270 3 is_stmt 1 view .LVU118
 270:Drivers/STM32F1xx_HAL_Driver/Src/stm32f1xx_hal_dma.c ****   hdma->XferErrorCallback = NULL;
 349              		.loc 1 270 30 is_stmt 0 view .LVU119
 350 004c D862     		str	r0, [r3, #44]
 271:Drivers/STM32F1xx_HAL_Driver/Src/stm32f1xx_hal_dma.c ****   hdma->XferAbortCallback = NULL;
 351              		.loc 1 271 3 is_stmt 1 view .LVU120
 271:Drivers/STM32F1xx_HAL_Driver/Src/stm32f1xx_hal_dma.c ****   hdma->XferAbortCallback = NULL;
 352              		.loc 1 271 27 is_stmt 0 view .LVU121
 353 004e 1863     		str	r0, [r3, #48]
 272:Drivers/STM32F1xx_HAL_Driver/Src/stm32f1xx_hal_dma.c **** 
 354              		.loc 1 272 3 is_stmt 1 view .LVU122
 272:Drivers/STM32F1xx_HAL_Driver/Src/stm32f1xx_hal_dma.c **** 
 355              		.loc 1 272 27 is_stmt 0 view .LVU123
 356 0050 5863     		str	r0, [r3, #52]
 275:Drivers/STM32F1xx_HAL_Driver/Src/stm32f1xx_hal_dma.c **** 
 357              		.loc 1 275 3 is_stmt 1 view .LVU124
 275:Drivers/STM32F1xx_HAL_Driver/Src/stm32f1xx_hal_dma.c **** 
 358              		.loc 1 275 19 is_stmt 0 view .LVU125
 359 0052 9863     		str	r0, [r3, #56]
 278:Drivers/STM32F1xx_HAL_Driver/Src/stm32f1xx_hal_dma.c **** 
 360              		.loc 1 278 3 is_stmt 1 view .LVU126
 278:Drivers/STM32F1xx_HAL_Driver/Src/stm32f1xx_hal_dma.c **** 
 361              		.loc 1 278 15 is_stmt 0 view .LVU127
 362 0054 83F82100 		strb	r0, [r3, #33]
 281:Drivers/STM32F1xx_HAL_Driver/Src/stm32f1xx_hal_dma.c **** 
 363              		.loc 1 281 3 is_stmt 1 view .LVU128
 281:Drivers/STM32F1xx_HAL_Driver/Src/stm32f1xx_hal_dma.c **** 
 364              		.loc 1 281 3 view .LVU129
 365 0058 83F82000 		strb	r0, [r3, #32]
 281:Drivers/STM32F1xx_HAL_Driver/Src/stm32f1xx_hal_dma.c **** 
 366              		.loc 1 281 3 view .LVU130
 283:Drivers/STM32F1xx_HAL_Driver/Src/stm32f1xx_hal_dma.c **** }
 367              		.loc 1 283 3 view .LVU131
 283:Drivers/STM32F1xx_HAL_Driver/Src/stm32f1xx_hal_dma.c **** }
 368              		.loc 1 283 10 is_stmt 0 view .LVU132
 369 005c 7047     		bx	lr
 370              	.LVL17:
 371              	.L19:
 256:Drivers/STM32F1xx_HAL_Driver/Src/stm32f1xx_hal_dma.c ****     hdma->DmaBaseAddress = DMA2;
 372              		.loc 1 256 5 is_stmt 1 view .LVU133
 256:Drivers/STM32F1xx_HAL_Driver/Src/stm32f1xx_hal_dma.c ****     hdma->DmaBaseAddress = DMA2;
 373              		.loc 1 256 53 is_stmt 0 view .LVU134
ARM GAS  /tmp//cc32eCGN.s 			page 25


 374 005e 0A4A     		ldr	r2, .L22+16
 375 0060 0A44     		add	r2, r2, r1
 256:Drivers/STM32F1xx_HAL_Driver/Src/stm32f1xx_hal_dma.c ****     hdma->DmaBaseAddress = DMA2;
 376              		.loc 1 256 80 view .LVU135
 377 0062 0749     		ldr	r1, .L22+8
 378 0064 A1FB0212 		umull	r1, r2, r1, r2
 379 0068 1209     		lsrs	r2, r2, #4
 256:Drivers/STM32F1xx_HAL_Driver/Src/stm32f1xx_hal_dma.c ****     hdma->DmaBaseAddress = DMA2;
 380              		.loc 1 256 135 view .LVU136
 381 006a 9200     		lsls	r2, r2, #2
 256:Drivers/STM32F1xx_HAL_Driver/Src/stm32f1xx_hal_dma.c ****     hdma->DmaBaseAddress = DMA2;
 382              		.loc 1 256 24 view .LVU137
 383 006c 0264     		str	r2, [r0, #64]
 257:Drivers/STM32F1xx_HAL_Driver/Src/stm32f1xx_hal_dma.c ****   }
 384              		.loc 1 257 5 is_stmt 1 view .LVU138
 257:Drivers/STM32F1xx_HAL_Driver/Src/stm32f1xx_hal_dma.c ****   }
 385              		.loc 1 257 26 is_stmt 0 view .LVU139
 386 006e 074A     		ldr	r2, .L22+20
 387 0070 C263     		str	r2, [r0, #60]
 388 0072 E4E7     		b	.L20
 389              	.L21:
 224:Drivers/STM32F1xx_HAL_Driver/Src/stm32f1xx_hal_dma.c ****   }
 390              		.loc 1 224 12 view .LVU140
 391 0074 0120     		movs	r0, #1
 392              	.LVL18:
 284:Drivers/STM32F1xx_HAL_Driver/Src/stm32f1xx_hal_dma.c **** 
 393              		.loc 1 284 1 view .LVU141
 394 0076 7047     		bx	lr
 395              	.L23:
 396              		.align	2
 397              	.L22:
 398 0078 07040240 		.word	1073873927
 399 007c F8FFFDBF 		.word	-1073872904
 400 0080 CDCCCCCC 		.word	-858993459
 401 0084 00000240 		.word	1073872896
 402 0088 F8FBFDBF 		.word	-1073873928
 403 008c 00040240 		.word	1073873920
 404              		.cfi_endproc
 405              	.LFE66:
 407              		.section	.text.HAL_DMA_Start,"ax",%progbits
 408              		.align	1
 409              		.global	HAL_DMA_Start
 410              		.syntax unified
 411              		.thumb
 412              		.thumb_func
 414              	HAL_DMA_Start:
 415              	.LVL19:
 416              	.LFB67:
 319:Drivers/STM32F1xx_HAL_Driver/Src/stm32f1xx_hal_dma.c ****   HAL_StatusTypeDef status = HAL_OK;
 417              		.loc 1 319 1 is_stmt 1 view -0
 418              		.cfi_startproc
 419              		@ args = 0, pretend = 0, frame = 0
 420              		@ frame_needed = 0, uses_anonymous_args = 0
 319:Drivers/STM32F1xx_HAL_Driver/Src/stm32f1xx_hal_dma.c ****   HAL_StatusTypeDef status = HAL_OK;
 421              		.loc 1 319 1 is_stmt 0 view .LVU143
 422 0000 70B5     		push	{r4, r5, r6, lr}
 423              	.LCFI7:
ARM GAS  /tmp//cc32eCGN.s 			page 26


 424              		.cfi_def_cfa_offset 16
 425              		.cfi_offset 4, -16
 426              		.cfi_offset 5, -12
 427              		.cfi_offset 6, -8
 428              		.cfi_offset 14, -4
 429 0002 0446     		mov	r4, r0
 320:Drivers/STM32F1xx_HAL_Driver/Src/stm32f1xx_hal_dma.c **** 
 430              		.loc 1 320 3 is_stmt 1 view .LVU144
 431              	.LVL20:
 323:Drivers/STM32F1xx_HAL_Driver/Src/stm32f1xx_hal_dma.c **** 
 432              		.loc 1 323 3 view .LVU145
 326:Drivers/STM32F1xx_HAL_Driver/Src/stm32f1xx_hal_dma.c **** 
 433              		.loc 1 326 3 view .LVU146
 326:Drivers/STM32F1xx_HAL_Driver/Src/stm32f1xx_hal_dma.c **** 
 434              		.loc 1 326 3 view .LVU147
 435 0004 90F82000 		ldrb	r0, [r0, #32]	@ zero_extendqisi2
 436              	.LVL21:
 326:Drivers/STM32F1xx_HAL_Driver/Src/stm32f1xx_hal_dma.c **** 
 437              		.loc 1 326 3 is_stmt 0 view .LVU148
 438 0008 0128     		cmp	r0, #1
 439 000a 1FD0     		beq	.L27
 326:Drivers/STM32F1xx_HAL_Driver/Src/stm32f1xx_hal_dma.c **** 
 440              		.loc 1 326 3 is_stmt 1 discriminator 2 view .LVU149
 441 000c 0120     		movs	r0, #1
 442 000e 84F82000 		strb	r0, [r4, #32]
 326:Drivers/STM32F1xx_HAL_Driver/Src/stm32f1xx_hal_dma.c **** 
 443              		.loc 1 326 3 view .LVU150
 328:Drivers/STM32F1xx_HAL_Driver/Src/stm32f1xx_hal_dma.c ****   {
 444              		.loc 1 328 3 view .LVU151
 328:Drivers/STM32F1xx_HAL_Driver/Src/stm32f1xx_hal_dma.c ****   {
 445              		.loc 1 328 33 is_stmt 0 view .LVU152
 446 0012 94F82100 		ldrb	r0, [r4, #33]	@ zero_extendqisi2
 328:Drivers/STM32F1xx_HAL_Driver/Src/stm32f1xx_hal_dma.c ****   {
 447              		.loc 1 328 5 view .LVU153
 448 0016 0128     		cmp	r0, #1
 449 0018 04D0     		beq	.L29
 346:Drivers/STM32F1xx_HAL_Driver/Src/stm32f1xx_hal_dma.c ****    status = HAL_BUSY;
 450              		.loc 1 346 4 is_stmt 1 view .LVU154
 346:Drivers/STM32F1xx_HAL_Driver/Src/stm32f1xx_hal_dma.c ****    status = HAL_BUSY;
 451              		.loc 1 346 4 view .LVU155
 452 001a 0023     		movs	r3, #0
 453              	.LVL22:
 346:Drivers/STM32F1xx_HAL_Driver/Src/stm32f1xx_hal_dma.c ****    status = HAL_BUSY;
 454              		.loc 1 346 4 is_stmt 0 view .LVU156
 455 001c 84F82030 		strb	r3, [r4, #32]
 346:Drivers/STM32F1xx_HAL_Driver/Src/stm32f1xx_hal_dma.c ****    status = HAL_BUSY;
 456              		.loc 1 346 4 is_stmt 1 view .LVU157
 347:Drivers/STM32F1xx_HAL_Driver/Src/stm32f1xx_hal_dma.c ****   }  
 457              		.loc 1 347 4 view .LVU158
 458              	.LVL23:
 347:Drivers/STM32F1xx_HAL_Driver/Src/stm32f1xx_hal_dma.c ****   }  
 459              		.loc 1 347 11 is_stmt 0 view .LVU159
 460 0020 0220     		movs	r0, #2
 461              	.LVL24:
 462              	.L25:
 350:Drivers/STM32F1xx_HAL_Driver/Src/stm32f1xx_hal_dma.c **** 
 463              		.loc 1 350 1 view .LVU160
ARM GAS  /tmp//cc32eCGN.s 			page 27


 464 0022 70BD     		pop	{r4, r5, r6, pc}
 465              	.LVL25:
 466              	.L29:
 331:Drivers/STM32F1xx_HAL_Driver/Src/stm32f1xx_hal_dma.c ****     hdma->ErrorCode = HAL_DMA_ERROR_NONE;
 467              		.loc 1 331 5 is_stmt 1 view .LVU161
 331:Drivers/STM32F1xx_HAL_Driver/Src/stm32f1xx_hal_dma.c ****     hdma->ErrorCode = HAL_DMA_ERROR_NONE;
 468              		.loc 1 331 17 is_stmt 0 view .LVU162
 469 0024 0220     		movs	r0, #2
 470 0026 84F82100 		strb	r0, [r4, #33]
 332:Drivers/STM32F1xx_HAL_Driver/Src/stm32f1xx_hal_dma.c ****             
 471              		.loc 1 332 5 is_stmt 1 view .LVU163
 332:Drivers/STM32F1xx_HAL_Driver/Src/stm32f1xx_hal_dma.c ****             
 472              		.loc 1 332 21 is_stmt 0 view .LVU164
 473 002a 0025     		movs	r5, #0
 474 002c A563     		str	r5, [r4, #56]
 335:Drivers/STM32F1xx_HAL_Driver/Src/stm32f1xx_hal_dma.c ****     
 475              		.loc 1 335 5 is_stmt 1 view .LVU165
 476 002e 2668     		ldr	r6, [r4]
 477 0030 3068     		ldr	r0, [r6]
 478 0032 20F00100 		bic	r0, r0, #1
 479 0036 3060     		str	r0, [r6]
 338:Drivers/STM32F1xx_HAL_Driver/Src/stm32f1xx_hal_dma.c ****     
 480              		.loc 1 338 5 view .LVU166
 481 0038 2046     		mov	r0, r4
 482 003a FFF7FEFF 		bl	DMA_SetConfig
 483              	.LVL26:
 341:Drivers/STM32F1xx_HAL_Driver/Src/stm32f1xx_hal_dma.c ****   }
 484              		.loc 1 341 5 view .LVU167
 485 003e 2268     		ldr	r2, [r4]
 486 0040 1368     		ldr	r3, [r2]
 487 0042 43F00103 		orr	r3, r3, #1
 488 0046 1360     		str	r3, [r2]
 320:Drivers/STM32F1xx_HAL_Driver/Src/stm32f1xx_hal_dma.c **** 
 489              		.loc 1 320 21 is_stmt 0 view .LVU168
 490 0048 2846     		mov	r0, r5
 491 004a EAE7     		b	.L25
 492              	.LVL27:
 493              	.L27:
 326:Drivers/STM32F1xx_HAL_Driver/Src/stm32f1xx_hal_dma.c **** 
 494              		.loc 1 326 3 discriminator 1 view .LVU169
 495 004c 0220     		movs	r0, #2
 496 004e E8E7     		b	.L25
 497              		.cfi_endproc
 498              	.LFE67:
 500              		.section	.text.HAL_DMA_Start_IT,"ax",%progbits
 501              		.align	1
 502              		.global	HAL_DMA_Start_IT
 503              		.syntax unified
 504              		.thumb
 505              		.thumb_func
 507              	HAL_DMA_Start_IT:
 508              	.LVL28:
 509              	.LFB68:
 362:Drivers/STM32F1xx_HAL_Driver/Src/stm32f1xx_hal_dma.c ****   HAL_StatusTypeDef status = HAL_OK;
 510              		.loc 1 362 1 is_stmt 1 view -0
 511              		.cfi_startproc
 512              		@ args = 0, pretend = 0, frame = 0
ARM GAS  /tmp//cc32eCGN.s 			page 28


 513              		@ frame_needed = 0, uses_anonymous_args = 0
 362:Drivers/STM32F1xx_HAL_Driver/Src/stm32f1xx_hal_dma.c ****   HAL_StatusTypeDef status = HAL_OK;
 514              		.loc 1 362 1 is_stmt 0 view .LVU171
 515 0000 38B5     		push	{r3, r4, r5, lr}
 516              	.LCFI8:
 517              		.cfi_def_cfa_offset 16
 518              		.cfi_offset 3, -16
 519              		.cfi_offset 4, -12
 520              		.cfi_offset 5, -8
 521              		.cfi_offset 14, -4
 522 0002 0446     		mov	r4, r0
 363:Drivers/STM32F1xx_HAL_Driver/Src/stm32f1xx_hal_dma.c **** 
 523              		.loc 1 363 3 is_stmt 1 view .LVU172
 524              	.LVL29:
 366:Drivers/STM32F1xx_HAL_Driver/Src/stm32f1xx_hal_dma.c **** 
 525              		.loc 1 366 3 view .LVU173
 369:Drivers/STM32F1xx_HAL_Driver/Src/stm32f1xx_hal_dma.c ****   
 526              		.loc 1 369 3 view .LVU174
 369:Drivers/STM32F1xx_HAL_Driver/Src/stm32f1xx_hal_dma.c ****   
 527              		.loc 1 369 3 view .LVU175
 528 0004 90F82000 		ldrb	r0, [r0, #32]	@ zero_extendqisi2
 529              	.LVL30:
 369:Drivers/STM32F1xx_HAL_Driver/Src/stm32f1xx_hal_dma.c ****   
 530              		.loc 1 369 3 is_stmt 0 view .LVU176
 531 0008 0128     		cmp	r0, #1
 532 000a 31D0     		beq	.L35
 369:Drivers/STM32F1xx_HAL_Driver/Src/stm32f1xx_hal_dma.c ****   
 533              		.loc 1 369 3 is_stmt 1 discriminator 2 view .LVU177
 534 000c 0120     		movs	r0, #1
 535 000e 84F82000 		strb	r0, [r4, #32]
 369:Drivers/STM32F1xx_HAL_Driver/Src/stm32f1xx_hal_dma.c ****   
 536              		.loc 1 369 3 view .LVU178
 371:Drivers/STM32F1xx_HAL_Driver/Src/stm32f1xx_hal_dma.c ****   {
 537              		.loc 1 371 3 view .LVU179
 371:Drivers/STM32F1xx_HAL_Driver/Src/stm32f1xx_hal_dma.c ****   {
 538              		.loc 1 371 33 is_stmt 0 view .LVU180
 539 0012 94F82100 		ldrb	r0, [r4, #33]	@ zero_extendqisi2
 371:Drivers/STM32F1xx_HAL_Driver/Src/stm32f1xx_hal_dma.c ****   {
 540              		.loc 1 371 5 view .LVU181
 541 0016 0128     		cmp	r0, #1
 542 0018 04D0     		beq	.L37
 401:Drivers/STM32F1xx_HAL_Driver/Src/stm32f1xx_hal_dma.c **** 
 543              		.loc 1 401 5 is_stmt 1 view .LVU182
 401:Drivers/STM32F1xx_HAL_Driver/Src/stm32f1xx_hal_dma.c **** 
 544              		.loc 1 401 5 view .LVU183
 545 001a 0023     		movs	r3, #0
 546              	.LVL31:
 401:Drivers/STM32F1xx_HAL_Driver/Src/stm32f1xx_hal_dma.c **** 
 547              		.loc 1 401 5 is_stmt 0 view .LVU184
 548 001c 84F82030 		strb	r3, [r4, #32]
 401:Drivers/STM32F1xx_HAL_Driver/Src/stm32f1xx_hal_dma.c **** 
 549              		.loc 1 401 5 is_stmt 1 view .LVU185
 404:Drivers/STM32F1xx_HAL_Driver/Src/stm32f1xx_hal_dma.c ****   }    
 550              		.loc 1 404 5 view .LVU186
 551              	.LVL32:
 404:Drivers/STM32F1xx_HAL_Driver/Src/stm32f1xx_hal_dma.c ****   }    
 552              		.loc 1 404 12 is_stmt 0 view .LVU187
ARM GAS  /tmp//cc32eCGN.s 			page 29


 553 0020 0220     		movs	r0, #2
 554              	.LVL33:
 555              	.L31:
 407:Drivers/STM32F1xx_HAL_Driver/Src/stm32f1xx_hal_dma.c **** 
 556              		.loc 1 407 1 view .LVU188
 557 0022 38BD     		pop	{r3, r4, r5, pc}
 558              	.LVL34:
 559              	.L37:
 374:Drivers/STM32F1xx_HAL_Driver/Src/stm32f1xx_hal_dma.c ****     hdma->ErrorCode = HAL_DMA_ERROR_NONE;
 560              		.loc 1 374 5 is_stmt 1 view .LVU189
 374:Drivers/STM32F1xx_HAL_Driver/Src/stm32f1xx_hal_dma.c ****     hdma->ErrorCode = HAL_DMA_ERROR_NONE;
 561              		.loc 1 374 17 is_stmt 0 view .LVU190
 562 0024 0220     		movs	r0, #2
 563 0026 84F82100 		strb	r0, [r4, #33]
 375:Drivers/STM32F1xx_HAL_Driver/Src/stm32f1xx_hal_dma.c ****     
 564              		.loc 1 375 5 is_stmt 1 view .LVU191
 375:Drivers/STM32F1xx_HAL_Driver/Src/stm32f1xx_hal_dma.c ****     
 565              		.loc 1 375 21 is_stmt 0 view .LVU192
 566 002a 0020     		movs	r0, #0
 567 002c A063     		str	r0, [r4, #56]
 378:Drivers/STM32F1xx_HAL_Driver/Src/stm32f1xx_hal_dma.c ****     
 568              		.loc 1 378 5 is_stmt 1 view .LVU193
 569 002e 2568     		ldr	r5, [r4]
 570 0030 2868     		ldr	r0, [r5]
 571 0032 20F00100 		bic	r0, r0, #1
 572 0036 2860     		str	r0, [r5]
 381:Drivers/STM32F1xx_HAL_Driver/Src/stm32f1xx_hal_dma.c ****     
 573              		.loc 1 381 5 view .LVU194
 574 0038 2046     		mov	r0, r4
 575 003a FFF7FEFF 		bl	DMA_SetConfig
 576              	.LVL35:
 385:Drivers/STM32F1xx_HAL_Driver/Src/stm32f1xx_hal_dma.c ****     {
 577              		.loc 1 385 5 view .LVU195
 385:Drivers/STM32F1xx_HAL_Driver/Src/stm32f1xx_hal_dma.c ****     {
 578              		.loc 1 385 20 is_stmt 0 view .LVU196
 579 003e E36A     		ldr	r3, [r4, #44]
 385:Drivers/STM32F1xx_HAL_Driver/Src/stm32f1xx_hal_dma.c ****     {
 580              		.loc 1 385 7 view .LVU197
 581 0040 5BB1     		cbz	r3, .L33
 388:Drivers/STM32F1xx_HAL_Driver/Src/stm32f1xx_hal_dma.c ****     }
 582              		.loc 1 388 7 is_stmt 1 view .LVU198
 583 0042 2268     		ldr	r2, [r4]
 584 0044 1368     		ldr	r3, [r2]
 585 0046 43F00E03 		orr	r3, r3, #14
 586 004a 1360     		str	r3, [r2]
 587              	.L34:
 396:Drivers/STM32F1xx_HAL_Driver/Src/stm32f1xx_hal_dma.c ****   }
 588              		.loc 1 396 5 view .LVU199
 589 004c 2268     		ldr	r2, [r4]
 590 004e 1368     		ldr	r3, [r2]
 591 0050 43F00103 		orr	r3, r3, #1
 592 0054 1360     		str	r3, [r2]
 363:Drivers/STM32F1xx_HAL_Driver/Src/stm32f1xx_hal_dma.c **** 
 593              		.loc 1 363 21 is_stmt 0 view .LVU200
 594 0056 0020     		movs	r0, #0
 595 0058 E3E7     		b	.L31
 596              	.L33:
ARM GAS  /tmp//cc32eCGN.s 			page 30


 392:Drivers/STM32F1xx_HAL_Driver/Src/stm32f1xx_hal_dma.c ****       __HAL_DMA_ENABLE_IT(hdma, (DMA_IT_TC | DMA_IT_TE));
 597              		.loc 1 392 7 is_stmt 1 view .LVU201
 598 005a 2268     		ldr	r2, [r4]
 599 005c 1368     		ldr	r3, [r2]
 600 005e 23F00403 		bic	r3, r3, #4
 601 0062 1360     		str	r3, [r2]
 393:Drivers/STM32F1xx_HAL_Driver/Src/stm32f1xx_hal_dma.c ****     }
 602              		.loc 1 393 7 view .LVU202
 603 0064 2268     		ldr	r2, [r4]
 604 0066 1368     		ldr	r3, [r2]
 605 0068 43F00A03 		orr	r3, r3, #10
 606 006c 1360     		str	r3, [r2]
 607 006e EDE7     		b	.L34
 608              	.LVL36:
 609              	.L35:
 369:Drivers/STM32F1xx_HAL_Driver/Src/stm32f1xx_hal_dma.c ****   
 610              		.loc 1 369 3 is_stmt 0 discriminator 1 view .LVU203
 611 0070 0220     		movs	r0, #2
 612 0072 D6E7     		b	.L31
 613              		.cfi_endproc
 614              	.LFE68:
 616              		.section	.text.HAL_DMA_Abort,"ax",%progbits
 617              		.align	1
 618              		.global	HAL_DMA_Abort
 619              		.syntax unified
 620              		.thumb
 621              		.thumb_func
 623              	HAL_DMA_Abort:
 624              	.LVL37:
 625              	.LFB69:
 416:Drivers/STM32F1xx_HAL_Driver/Src/stm32f1xx_hal_dma.c ****   HAL_StatusTypeDef status = HAL_OK;
 626              		.loc 1 416 1 is_stmt 1 view -0
 627              		.cfi_startproc
 628              		@ args = 0, pretend = 0, frame = 0
 629              		@ frame_needed = 0, uses_anonymous_args = 0
 630              		@ link register save eliminated.
 416:Drivers/STM32F1xx_HAL_Driver/Src/stm32f1xx_hal_dma.c ****   HAL_StatusTypeDef status = HAL_OK;
 631              		.loc 1 416 1 is_stmt 0 view .LVU205
 632 0000 0346     		mov	r3, r0
 417:Drivers/STM32F1xx_HAL_Driver/Src/stm32f1xx_hal_dma.c ****   
 633              		.loc 1 417 3 is_stmt 1 view .LVU206
 634              	.LVL38:
 419:Drivers/STM32F1xx_HAL_Driver/Src/stm32f1xx_hal_dma.c ****   {
 635              		.loc 1 419 3 view .LVU207
 419:Drivers/STM32F1xx_HAL_Driver/Src/stm32f1xx_hal_dma.c ****   {
 636              		.loc 1 419 10 is_stmt 0 view .LVU208
 637 0002 90F82120 		ldrb	r2, [r0, #33]	@ zero_extendqisi2
 419:Drivers/STM32F1xx_HAL_Driver/Src/stm32f1xx_hal_dma.c ****   {
 638              		.loc 1 419 5 view .LVU209
 639 0006 022A     		cmp	r2, #2
 640 0008 06D0     		beq	.L39
 422:Drivers/STM32F1xx_HAL_Driver/Src/stm32f1xx_hal_dma.c ****     
 641              		.loc 1 422 5 is_stmt 1 view .LVU210
 422:Drivers/STM32F1xx_HAL_Driver/Src/stm32f1xx_hal_dma.c ****     
 642              		.loc 1 422 21 is_stmt 0 view .LVU211
 643 000a 0422     		movs	r2, #4
 644 000c 8263     		str	r2, [r0, #56]
ARM GAS  /tmp//cc32eCGN.s 			page 31


 425:Drivers/STM32F1xx_HAL_Driver/Src/stm32f1xx_hal_dma.c ****     
 645              		.loc 1 425 5 is_stmt 1 view .LVU212
 425:Drivers/STM32F1xx_HAL_Driver/Src/stm32f1xx_hal_dma.c ****     
 646              		.loc 1 425 5 view .LVU213
 647 000e 0022     		movs	r2, #0
 648 0010 80F82020 		strb	r2, [r0, #32]
 425:Drivers/STM32F1xx_HAL_Driver/Src/stm32f1xx_hal_dma.c ****     
 649              		.loc 1 425 5 view .LVU214
 427:Drivers/STM32F1xx_HAL_Driver/Src/stm32f1xx_hal_dma.c ****   }
 650              		.loc 1 427 5 view .LVU215
 427:Drivers/STM32F1xx_HAL_Driver/Src/stm32f1xx_hal_dma.c ****   }
 651              		.loc 1 427 12 is_stmt 0 view .LVU216
 652 0014 0120     		movs	r0, #1
 653              	.LVL39:
 427:Drivers/STM32F1xx_HAL_Driver/Src/stm32f1xx_hal_dma.c ****   }
 654              		.loc 1 427 12 view .LVU217
 655 0016 7047     		bx	lr
 656              	.LVL40:
 657              	.L39:
 433:Drivers/STM32F1xx_HAL_Driver/Src/stm32f1xx_hal_dma.c ****       
 658              		.loc 1 433 5 is_stmt 1 view .LVU218
 659 0018 0168     		ldr	r1, [r0]
 660 001a 0A68     		ldr	r2, [r1]
 661 001c 22F00E02 		bic	r2, r2, #14
 662 0020 0A60     		str	r2, [r1]
 436:Drivers/STM32F1xx_HAL_Driver/Src/stm32f1xx_hal_dma.c ****       
 663              		.loc 1 436 5 view .LVU219
 664 0022 0168     		ldr	r1, [r0]
 665 0024 0A68     		ldr	r2, [r1]
 666 0026 22F00102 		bic	r2, r2, #1
 667 002a 0A60     		str	r2, [r1]
 439:Drivers/STM32F1xx_HAL_Driver/Src/stm32f1xx_hal_dma.c ****   }
 668              		.loc 1 439 5 view .LVU220
 439:Drivers/STM32F1xx_HAL_Driver/Src/stm32f1xx_hal_dma.c ****   }
 669              		.loc 1 439 55 is_stmt 0 view .LVU221
 670 002c 026C     		ldr	r2, [r0, #64]
 439:Drivers/STM32F1xx_HAL_Driver/Src/stm32f1xx_hal_dma.c ****   }
 671              		.loc 1 439 9 view .LVU222
 672 002e C06B     		ldr	r0, [r0, #60]
 673              	.LVL41:
 439:Drivers/STM32F1xx_HAL_Driver/Src/stm32f1xx_hal_dma.c ****   }
 674              		.loc 1 439 48 view .LVU223
 675 0030 0121     		movs	r1, #1
 676 0032 01FA02F2 		lsl	r2, r1, r2
 439:Drivers/STM32F1xx_HAL_Driver/Src/stm32f1xx_hal_dma.c ****   }
 677              		.loc 1 439 32 view .LVU224
 678 0036 4260     		str	r2, [r0, #4]
 442:Drivers/STM32F1xx_HAL_Driver/Src/stm32f1xx_hal_dma.c **** 
 679              		.loc 1 442 3 is_stmt 1 view .LVU225
 442:Drivers/STM32F1xx_HAL_Driver/Src/stm32f1xx_hal_dma.c **** 
 680              		.loc 1 442 15 is_stmt 0 view .LVU226
 681 0038 83F82110 		strb	r1, [r3, #33]
 445:Drivers/STM32F1xx_HAL_Driver/Src/stm32f1xx_hal_dma.c ****   
 682              		.loc 1 445 3 is_stmt 1 view .LVU227
 445:Drivers/STM32F1xx_HAL_Driver/Src/stm32f1xx_hal_dma.c ****   
 683              		.loc 1 445 3 view .LVU228
 684 003c 0020     		movs	r0, #0
ARM GAS  /tmp//cc32eCGN.s 			page 32


 685 003e 83F82000 		strb	r0, [r3, #32]
 445:Drivers/STM32F1xx_HAL_Driver/Src/stm32f1xx_hal_dma.c ****   
 686              		.loc 1 445 3 view .LVU229
 447:Drivers/STM32F1xx_HAL_Driver/Src/stm32f1xx_hal_dma.c **** }
 687              		.loc 1 447 3 view .LVU230
 448:Drivers/STM32F1xx_HAL_Driver/Src/stm32f1xx_hal_dma.c **** 
 688              		.loc 1 448 1 is_stmt 0 view .LVU231
 689 0042 7047     		bx	lr
 690              		.cfi_endproc
 691              	.LFE69:
 693              		.section	.text.HAL_DMA_Abort_IT,"ax",%progbits
 694              		.align	1
 695              		.global	HAL_DMA_Abort_IT
 696              		.syntax unified
 697              		.thumb
 698              		.thumb_func
 700              	HAL_DMA_Abort_IT:
 701              	.LVL42:
 702              	.LFB70:
 457:Drivers/STM32F1xx_HAL_Driver/Src/stm32f1xx_hal_dma.c ****   HAL_StatusTypeDef status = HAL_OK;
 703              		.loc 1 457 1 is_stmt 1 view -0
 704              		.cfi_startproc
 705              		@ args = 0, pretend = 0, frame = 0
 706              		@ frame_needed = 0, uses_anonymous_args = 0
 457:Drivers/STM32F1xx_HAL_Driver/Src/stm32f1xx_hal_dma.c ****   HAL_StatusTypeDef status = HAL_OK;
 707              		.loc 1 457 1 is_stmt 0 view .LVU233
 708 0000 08B5     		push	{r3, lr}
 709              	.LCFI9:
 710              		.cfi_def_cfa_offset 8
 711              		.cfi_offset 3, -8
 712              		.cfi_offset 14, -4
 458:Drivers/STM32F1xx_HAL_Driver/Src/stm32f1xx_hal_dma.c ****   
 713              		.loc 1 458 3 is_stmt 1 view .LVU234
 714              	.LVL43:
 460:Drivers/STM32F1xx_HAL_Driver/Src/stm32f1xx_hal_dma.c ****   {
 715              		.loc 1 460 3 view .LVU235
 460:Drivers/STM32F1xx_HAL_Driver/Src/stm32f1xx_hal_dma.c ****   {
 716              		.loc 1 460 32 is_stmt 0 view .LVU236
 717 0002 90F82130 		ldrb	r3, [r0, #33]	@ zero_extendqisi2
 460:Drivers/STM32F1xx_HAL_Driver/Src/stm32f1xx_hal_dma.c ****   {
 718              		.loc 1 460 5 view .LVU237
 719 0006 022B     		cmp	r3, #2
 720 0008 03D0     		beq	.L42
 463:Drivers/STM32F1xx_HAL_Driver/Src/stm32f1xx_hal_dma.c ****         
 721              		.loc 1 463 5 is_stmt 1 view .LVU238
 463:Drivers/STM32F1xx_HAL_Driver/Src/stm32f1xx_hal_dma.c ****         
 722              		.loc 1 463 21 is_stmt 0 view .LVU239
 723 000a 0423     		movs	r3, #4
 724 000c 8363     		str	r3, [r0, #56]
 465:Drivers/STM32F1xx_HAL_Driver/Src/stm32f1xx_hal_dma.c ****   }
 725              		.loc 1 465 5 is_stmt 1 view .LVU240
 726              	.LVL44:
 465:Drivers/STM32F1xx_HAL_Driver/Src/stm32f1xx_hal_dma.c ****   }
 727              		.loc 1 465 12 is_stmt 0 view .LVU241
 728 000e 0120     		movs	r0, #1
 729              	.LVL45:
 730              	.L43:
ARM GAS  /tmp//cc32eCGN.s 			page 33


 490:Drivers/STM32F1xx_HAL_Driver/Src/stm32f1xx_hal_dma.c **** }
 731              		.loc 1 490 3 is_stmt 1 view .LVU242
 491:Drivers/STM32F1xx_HAL_Driver/Src/stm32f1xx_hal_dma.c **** 
 732              		.loc 1 491 1 is_stmt 0 view .LVU243
 733 0010 08BD     		pop	{r3, pc}
 734              	.LVL46:
 735              	.L42:
 470:Drivers/STM32F1xx_HAL_Driver/Src/stm32f1xx_hal_dma.c **** 
 736              		.loc 1 470 5 is_stmt 1 view .LVU244
 737 0012 0268     		ldr	r2, [r0]
 738 0014 1368     		ldr	r3, [r2]
 739 0016 23F00E03 		bic	r3, r3, #14
 740 001a 1360     		str	r3, [r2]
 473:Drivers/STM32F1xx_HAL_Driver/Src/stm32f1xx_hal_dma.c **** 
 741              		.loc 1 473 5 view .LVU245
 742 001c 0268     		ldr	r2, [r0]
 743 001e 1368     		ldr	r3, [r2]
 744 0020 23F00103 		bic	r3, r3, #1
 745 0024 1360     		str	r3, [r2]
 476:Drivers/STM32F1xx_HAL_Driver/Src/stm32f1xx_hal_dma.c **** 
 746              		.loc 1 476 5 view .LVU246
 747 0026 0368     		ldr	r3, [r0]
 748 0028 4B4A     		ldr	r2, .L74
 749 002a 9342     		cmp	r3, r2
 750 002c 4ED9     		bls	.L44
 476:Drivers/STM32F1xx_HAL_Driver/Src/stm32f1xx_hal_dma.c **** 
 751              		.loc 1 476 5 is_stmt 0 discriminator 1 view .LVU247
 752 002e 783A     		subs	r2, r2, #120
 753 0030 9342     		cmp	r3, r2
 754 0032 24D0     		beq	.L48
 476:Drivers/STM32F1xx_HAL_Driver/Src/stm32f1xx_hal_dma.c **** 
 755              		.loc 1 476 5 discriminator 3 view .LVU248
 756 0034 1432     		adds	r2, r2, #20
 757 0036 9342     		cmp	r3, r2
 758 0038 30D0     		beq	.L49
 476:Drivers/STM32F1xx_HAL_Driver/Src/stm32f1xx_hal_dma.c **** 
 759              		.loc 1 476 5 discriminator 5 view .LVU249
 760 003a 1432     		adds	r2, r2, #20
 761 003c 9342     		cmp	r3, r2
 762 003e 2FD0     		beq	.L50
 476:Drivers/STM32F1xx_HAL_Driver/Src/stm32f1xx_hal_dma.c **** 
 763              		.loc 1 476 5 discriminator 7 view .LVU250
 764 0040 1432     		adds	r2, r2, #20
 765 0042 9342     		cmp	r3, r2
 766 0044 2FD0     		beq	.L51
 476:Drivers/STM32F1xx_HAL_Driver/Src/stm32f1xx_hal_dma.c **** 
 767              		.loc 1 476 5 discriminator 9 view .LVU251
 768 0046 1432     		adds	r2, r2, #20
 769 0048 9342     		cmp	r3, r2
 770 004a 2FD0     		beq	.L52
 476:Drivers/STM32F1xx_HAL_Driver/Src/stm32f1xx_hal_dma.c **** 
 771              		.loc 1 476 5 discriminator 11 view .LVU252
 772 004c 1432     		adds	r2, r2, #20
 773 004e 9342     		cmp	r3, r2
 774 0050 2FD0     		beq	.L53
 476:Drivers/STM32F1xx_HAL_Driver/Src/stm32f1xx_hal_dma.c **** 
 775              		.loc 1 476 5 discriminator 13 view .LVU253
ARM GAS  /tmp//cc32eCGN.s 			page 34


 776 0052 1432     		adds	r2, r2, #20
 777 0054 9342     		cmp	r3, r2
 778 0056 2FD0     		beq	.L54
 476:Drivers/STM32F1xx_HAL_Driver/Src/stm32f1xx_hal_dma.c **** 
 779              		.loc 1 476 5 discriminator 15 view .LVU254
 780 0058 02F56272 		add	r2, r2, #904
 781 005c 9342     		cmp	r3, r2
 782 005e 2ED0     		beq	.L55
 476:Drivers/STM32F1xx_HAL_Driver/Src/stm32f1xx_hal_dma.c **** 
 783              		.loc 1 476 5 discriminator 17 view .LVU255
 784 0060 1432     		adds	r2, r2, #20
 785 0062 9342     		cmp	r3, r2
 786 0064 2DD0     		beq	.L56
 476:Drivers/STM32F1xx_HAL_Driver/Src/stm32f1xx_hal_dma.c **** 
 787              		.loc 1 476 5 discriminator 19 view .LVU256
 788 0066 1432     		adds	r2, r2, #20
 789 0068 9342     		cmp	r3, r2
 790 006a 2CD0     		beq	.L57
 476:Drivers/STM32F1xx_HAL_Driver/Src/stm32f1xx_hal_dma.c **** 
 791              		.loc 1 476 5 discriminator 21 view .LVU257
 792 006c 1432     		adds	r2, r2, #20
 793 006e 9342     		cmp	r3, r2
 794 0070 02D0     		beq	.L72
 476:Drivers/STM32F1xx_HAL_Driver/Src/stm32f1xx_hal_dma.c **** 
 795              		.loc 1 476 5 discriminator 24 view .LVU258
 796 0072 4FF48032 		mov	r2, #65536
 797 0076 03E0     		b	.L45
 798              	.L72:
 476:Drivers/STM32F1xx_HAL_Driver/Src/stm32f1xx_hal_dma.c **** 
 799              		.loc 1 476 5 discriminator 23 view .LVU259
 800 0078 4FF48052 		mov	r2, #4096
 801 007c 00E0     		b	.L45
 802              	.L48:
 476:Drivers/STM32F1xx_HAL_Driver/Src/stm32f1xx_hal_dma.c **** 
 803              		.loc 1 476 5 discriminator 4 view .LVU260
 804 007e 0122     		movs	r2, #1
 805              	.L45:
 476:Drivers/STM32F1xx_HAL_Driver/Src/stm32f1xx_hal_dma.c **** 
 806              		.loc 1 476 5 discriminator 46 view .LVU261
 807 0080 364B     		ldr	r3, .L74+4
 808 0082 5A60     		str	r2, [r3, #4]
 809              	.L46:
 479:Drivers/STM32F1xx_HAL_Driver/Src/stm32f1xx_hal_dma.c **** 
 810              		.loc 1 479 5 is_stmt 1 view .LVU262
 479:Drivers/STM32F1xx_HAL_Driver/Src/stm32f1xx_hal_dma.c **** 
 811              		.loc 1 479 17 is_stmt 0 view .LVU263
 812 0084 0123     		movs	r3, #1
 813 0086 80F82130 		strb	r3, [r0, #33]
 482:Drivers/STM32F1xx_HAL_Driver/Src/stm32f1xx_hal_dma.c **** 
 814              		.loc 1 482 5 is_stmt 1 view .LVU264
 482:Drivers/STM32F1xx_HAL_Driver/Src/stm32f1xx_hal_dma.c **** 
 815              		.loc 1 482 5 view .LVU265
 816 008a 0023     		movs	r3, #0
 817 008c 80F82030 		strb	r3, [r0, #32]
 482:Drivers/STM32F1xx_HAL_Driver/Src/stm32f1xx_hal_dma.c **** 
 818              		.loc 1 482 5 view .LVU266
 485:Drivers/STM32F1xx_HAL_Driver/Src/stm32f1xx_hal_dma.c ****     {
ARM GAS  /tmp//cc32eCGN.s 			page 35


 819              		.loc 1 485 5 view .LVU267
 485:Drivers/STM32F1xx_HAL_Driver/Src/stm32f1xx_hal_dma.c ****     {
 820              		.loc 1 485 12 is_stmt 0 view .LVU268
 821 0090 436B     		ldr	r3, [r0, #52]
 485:Drivers/STM32F1xx_HAL_Driver/Src/stm32f1xx_hal_dma.c ****     {
 822              		.loc 1 485 7 view .LVU269
 823 0092 002B     		cmp	r3, #0
 824 0094 5ED0     		beq	.L70
 487:Drivers/STM32F1xx_HAL_Driver/Src/stm32f1xx_hal_dma.c ****     } 
 825              		.loc 1 487 7 is_stmt 1 view .LVU270
 826 0096 9847     		blx	r3
 827              	.LVL47:
 458:Drivers/STM32F1xx_HAL_Driver/Src/stm32f1xx_hal_dma.c ****   
 828              		.loc 1 458 21 is_stmt 0 view .LVU271
 829 0098 0020     		movs	r0, #0
 830 009a B9E7     		b	.L43
 831              	.LVL48:
 832              	.L49:
 476:Drivers/STM32F1xx_HAL_Driver/Src/stm32f1xx_hal_dma.c **** 
 833              		.loc 1 476 5 discriminator 6 view .LVU272
 834 009c 1022     		movs	r2, #16
 835 009e EFE7     		b	.L45
 836              	.L50:
 476:Drivers/STM32F1xx_HAL_Driver/Src/stm32f1xx_hal_dma.c **** 
 837              		.loc 1 476 5 discriminator 8 view .LVU273
 838 00a0 4FF48072 		mov	r2, #256
 839 00a4 ECE7     		b	.L45
 840              	.L51:
 476:Drivers/STM32F1xx_HAL_Driver/Src/stm32f1xx_hal_dma.c **** 
 841              		.loc 1 476 5 discriminator 10 view .LVU274
 842 00a6 4FF48052 		mov	r2, #4096
 843 00aa E9E7     		b	.L45
 844              	.L52:
 476:Drivers/STM32F1xx_HAL_Driver/Src/stm32f1xx_hal_dma.c **** 
 845              		.loc 1 476 5 discriminator 12 view .LVU275
 846 00ac 4FF48032 		mov	r2, #65536
 847 00b0 E6E7     		b	.L45
 848              	.L53:
 476:Drivers/STM32F1xx_HAL_Driver/Src/stm32f1xx_hal_dma.c **** 
 849              		.loc 1 476 5 discriminator 14 view .LVU276
 850 00b2 4FF48012 		mov	r2, #1048576
 851 00b6 E3E7     		b	.L45
 852              	.L54:
 476:Drivers/STM32F1xx_HAL_Driver/Src/stm32f1xx_hal_dma.c **** 
 853              		.loc 1 476 5 discriminator 16 view .LVU277
 854 00b8 4FF08072 		mov	r2, #16777216
 855 00bc E0E7     		b	.L45
 856              	.L55:
 476:Drivers/STM32F1xx_HAL_Driver/Src/stm32f1xx_hal_dma.c **** 
 857              		.loc 1 476 5 discriminator 18 view .LVU278
 858 00be 0122     		movs	r2, #1
 859 00c0 DEE7     		b	.L45
 860              	.L56:
 476:Drivers/STM32F1xx_HAL_Driver/Src/stm32f1xx_hal_dma.c **** 
 861              		.loc 1 476 5 discriminator 20 view .LVU279
 862 00c2 1022     		movs	r2, #16
 863 00c4 DCE7     		b	.L45
ARM GAS  /tmp//cc32eCGN.s 			page 36


 864              	.L57:
 476:Drivers/STM32F1xx_HAL_Driver/Src/stm32f1xx_hal_dma.c **** 
 865              		.loc 1 476 5 discriminator 22 view .LVU280
 866 00c6 4FF48072 		mov	r2, #256
 867 00ca D9E7     		b	.L45
 868              	.L44:
 476:Drivers/STM32F1xx_HAL_Driver/Src/stm32f1xx_hal_dma.c **** 
 869              		.loc 1 476 5 discriminator 2 view .LVU281
 870 00cc 244A     		ldr	r2, .L74+8
 871 00ce 9342     		cmp	r3, r2
 872 00d0 24D0     		beq	.L59
 476:Drivers/STM32F1xx_HAL_Driver/Src/stm32f1xx_hal_dma.c **** 
 873              		.loc 1 476 5 discriminator 47 view .LVU282
 874 00d2 1432     		adds	r2, r2, #20
 875 00d4 9342     		cmp	r3, r2
 876 00d6 25D0     		beq	.L60
 476:Drivers/STM32F1xx_HAL_Driver/Src/stm32f1xx_hal_dma.c **** 
 877              		.loc 1 476 5 discriminator 49 view .LVU283
 878 00d8 1432     		adds	r2, r2, #20
 879 00da 9342     		cmp	r3, r2
 880 00dc 24D0     		beq	.L61
 476:Drivers/STM32F1xx_HAL_Driver/Src/stm32f1xx_hal_dma.c **** 
 881              		.loc 1 476 5 discriminator 51 view .LVU284
 882 00de 1432     		adds	r2, r2, #20
 883 00e0 9342     		cmp	r3, r2
 884 00e2 24D0     		beq	.L62
 476:Drivers/STM32F1xx_HAL_Driver/Src/stm32f1xx_hal_dma.c **** 
 885              		.loc 1 476 5 discriminator 53 view .LVU285
 886 00e4 1432     		adds	r2, r2, #20
 887 00e6 9342     		cmp	r3, r2
 888 00e8 24D0     		beq	.L63
 476:Drivers/STM32F1xx_HAL_Driver/Src/stm32f1xx_hal_dma.c **** 
 889              		.loc 1 476 5 discriminator 55 view .LVU286
 890 00ea 1432     		adds	r2, r2, #20
 891 00ec 9342     		cmp	r3, r2
 892 00ee 24D0     		beq	.L64
 476:Drivers/STM32F1xx_HAL_Driver/Src/stm32f1xx_hal_dma.c **** 
 893              		.loc 1 476 5 discriminator 57 view .LVU287
 894 00f0 1432     		adds	r2, r2, #20
 895 00f2 9342     		cmp	r3, r2
 896 00f4 24D0     		beq	.L65
 476:Drivers/STM32F1xx_HAL_Driver/Src/stm32f1xx_hal_dma.c **** 
 897              		.loc 1 476 5 discriminator 59 view .LVU288
 898 00f6 02F56272 		add	r2, r2, #904
 899 00fa 9342     		cmp	r3, r2
 900 00fc 23D0     		beq	.L66
 476:Drivers/STM32F1xx_HAL_Driver/Src/stm32f1xx_hal_dma.c **** 
 901              		.loc 1 476 5 discriminator 61 view .LVU289
 902 00fe 1432     		adds	r2, r2, #20
 903 0100 9342     		cmp	r3, r2
 904 0102 22D0     		beq	.L67
 476:Drivers/STM32F1xx_HAL_Driver/Src/stm32f1xx_hal_dma.c **** 
 905              		.loc 1 476 5 discriminator 63 view .LVU290
 906 0104 1432     		adds	r2, r2, #20
 907 0106 9342     		cmp	r3, r2
 908 0108 21D0     		beq	.L68
 476:Drivers/STM32F1xx_HAL_Driver/Src/stm32f1xx_hal_dma.c **** 
ARM GAS  /tmp//cc32eCGN.s 			page 37


 909              		.loc 1 476 5 discriminator 65 view .LVU291
 910 010a 1432     		adds	r2, r2, #20
 911 010c 9342     		cmp	r3, r2
 912 010e 02D0     		beq	.L73
 476:Drivers/STM32F1xx_HAL_Driver/Src/stm32f1xx_hal_dma.c **** 
 913              		.loc 1 476 5 discriminator 68 view .LVU292
 914 0110 4FF48032 		mov	r2, #65536
 915 0114 03E0     		b	.L47
 916              	.L73:
 476:Drivers/STM32F1xx_HAL_Driver/Src/stm32f1xx_hal_dma.c **** 
 917              		.loc 1 476 5 discriminator 67 view .LVU293
 918 0116 4FF48052 		mov	r2, #4096
 919 011a 00E0     		b	.L47
 920              	.L59:
 476:Drivers/STM32F1xx_HAL_Driver/Src/stm32f1xx_hal_dma.c **** 
 921              		.loc 1 476 5 discriminator 48 view .LVU294
 922 011c 0122     		movs	r2, #1
 923              	.L47:
 476:Drivers/STM32F1xx_HAL_Driver/Src/stm32f1xx_hal_dma.c **** 
 924              		.loc 1 476 5 discriminator 90 view .LVU295
 925 011e 114B     		ldr	r3, .L74+12
 926 0120 5A60     		str	r2, [r3, #4]
 927 0122 AFE7     		b	.L46
 928              	.L60:
 476:Drivers/STM32F1xx_HAL_Driver/Src/stm32f1xx_hal_dma.c **** 
 929              		.loc 1 476 5 discriminator 50 view .LVU296
 930 0124 1022     		movs	r2, #16
 931 0126 FAE7     		b	.L47
 932              	.L61:
 476:Drivers/STM32F1xx_HAL_Driver/Src/stm32f1xx_hal_dma.c **** 
 933              		.loc 1 476 5 discriminator 52 view .LVU297
 934 0128 4FF48072 		mov	r2, #256
 935 012c F7E7     		b	.L47
 936              	.L62:
 476:Drivers/STM32F1xx_HAL_Driver/Src/stm32f1xx_hal_dma.c **** 
 937              		.loc 1 476 5 discriminator 54 view .LVU298
 938 012e 4FF48052 		mov	r2, #4096
 939 0132 F4E7     		b	.L47
 940              	.L63:
 476:Drivers/STM32F1xx_HAL_Driver/Src/stm32f1xx_hal_dma.c **** 
 941              		.loc 1 476 5 discriminator 56 view .LVU299
 942 0134 4FF48032 		mov	r2, #65536
 943 0138 F1E7     		b	.L47
 944              	.L64:
 476:Drivers/STM32F1xx_HAL_Driver/Src/stm32f1xx_hal_dma.c **** 
 945              		.loc 1 476 5 discriminator 58 view .LVU300
 946 013a 4FF48012 		mov	r2, #1048576
 947 013e EEE7     		b	.L47
 948              	.L65:
 476:Drivers/STM32F1xx_HAL_Driver/Src/stm32f1xx_hal_dma.c **** 
 949              		.loc 1 476 5 discriminator 60 view .LVU301
 950 0140 4FF08072 		mov	r2, #16777216
 951 0144 EBE7     		b	.L47
 952              	.L66:
 476:Drivers/STM32F1xx_HAL_Driver/Src/stm32f1xx_hal_dma.c **** 
 953              		.loc 1 476 5 discriminator 62 view .LVU302
 954 0146 0122     		movs	r2, #1
ARM GAS  /tmp//cc32eCGN.s 			page 38


 955 0148 E9E7     		b	.L47
 956              	.L67:
 476:Drivers/STM32F1xx_HAL_Driver/Src/stm32f1xx_hal_dma.c **** 
 957              		.loc 1 476 5 discriminator 64 view .LVU303
 958 014a 1022     		movs	r2, #16
 959 014c E7E7     		b	.L47
 960              	.L68:
 476:Drivers/STM32F1xx_HAL_Driver/Src/stm32f1xx_hal_dma.c **** 
 961              		.loc 1 476 5 discriminator 66 view .LVU304
 962 014e 4FF48072 		mov	r2, #256
 963 0152 E4E7     		b	.L47
 964              	.L70:
 458:Drivers/STM32F1xx_HAL_Driver/Src/stm32f1xx_hal_dma.c ****   
 965              		.loc 1 458 21 view .LVU305
 966 0154 0020     		movs	r0, #0
 967              	.LVL49:
 458:Drivers/STM32F1xx_HAL_Driver/Src/stm32f1xx_hal_dma.c ****   
 968              		.loc 1 458 21 view .LVU306
 969 0156 5BE7     		b	.L43
 970              	.L75:
 971              		.align	2
 972              	.L74:
 973 0158 80000240 		.word	1073873024
 974 015c 00040240 		.word	1073873920
 975 0160 08000240 		.word	1073872904
 976 0164 00000240 		.word	1073872896
 977              		.cfi_endproc
 978              	.LFE70:
 980              		.section	.text.HAL_DMA_PollForTransfer,"ax",%progbits
 981              		.align	1
 982              		.global	HAL_DMA_PollForTransfer
 983              		.syntax unified
 984              		.thumb
 985              		.thumb_func
 987              	HAL_DMA_PollForTransfer:
 988              	.LVL50:
 989              	.LFB71:
 502:Drivers/STM32F1xx_HAL_Driver/Src/stm32f1xx_hal_dma.c ****   uint32_t temp;
 990              		.loc 1 502 1 is_stmt 1 view -0
 991              		.cfi_startproc
 992              		@ args = 0, pretend = 0, frame = 0
 993              		@ frame_needed = 0, uses_anonymous_args = 0
 502:Drivers/STM32F1xx_HAL_Driver/Src/stm32f1xx_hal_dma.c ****   uint32_t temp;
 994              		.loc 1 502 1 is_stmt 0 view .LVU308
 995 0000 2DE9F041 		push	{r4, r5, r6, r7, r8, lr}
 996              	.LCFI10:
 997              		.cfi_def_cfa_offset 24
 998              		.cfi_offset 4, -24
 999              		.cfi_offset 5, -20
 1000              		.cfi_offset 6, -16
 1001              		.cfi_offset 7, -12
 1002              		.cfi_offset 8, -8
 1003              		.cfi_offset 14, -4
 1004 0004 0446     		mov	r4, r0
 503:Drivers/STM32F1xx_HAL_Driver/Src/stm32f1xx_hal_dma.c ****   uint32_t tickstart = 0U;
 1005              		.loc 1 503 3 is_stmt 1 view .LVU309
 504:Drivers/STM32F1xx_HAL_Driver/Src/stm32f1xx_hal_dma.c **** 
ARM GAS  /tmp//cc32eCGN.s 			page 39


 1006              		.loc 1 504 3 view .LVU310
 1007              	.LVL51:
 506:Drivers/STM32F1xx_HAL_Driver/Src/stm32f1xx_hal_dma.c ****   {
 1008              		.loc 1 506 3 view .LVU311
 506:Drivers/STM32F1xx_HAL_Driver/Src/stm32f1xx_hal_dma.c ****   {
 1009              		.loc 1 506 32 is_stmt 0 view .LVU312
 1010 0006 90F82130 		ldrb	r3, [r0, #33]	@ zero_extendqisi2
 506:Drivers/STM32F1xx_HAL_Driver/Src/stm32f1xx_hal_dma.c ****   {
 1011              		.loc 1 506 5 view .LVU313
 1012 000a 022B     		cmp	r3, #2
 1013 000c 07D0     		beq	.L77
 509:Drivers/STM32F1xx_HAL_Driver/Src/stm32f1xx_hal_dma.c ****     __HAL_UNLOCK(hdma);
 1014              		.loc 1 509 5 is_stmt 1 view .LVU314
 509:Drivers/STM32F1xx_HAL_Driver/Src/stm32f1xx_hal_dma.c ****     __HAL_UNLOCK(hdma);
 1015              		.loc 1 509 21 is_stmt 0 view .LVU315
 1016 000e 0423     		movs	r3, #4
 1017 0010 8363     		str	r3, [r0, #56]
 510:Drivers/STM32F1xx_HAL_Driver/Src/stm32f1xx_hal_dma.c ****     return HAL_ERROR;
 1018              		.loc 1 510 5 is_stmt 1 view .LVU316
 510:Drivers/STM32F1xx_HAL_Driver/Src/stm32f1xx_hal_dma.c ****     return HAL_ERROR;
 1019              		.loc 1 510 5 view .LVU317
 1020 0012 0023     		movs	r3, #0
 1021 0014 80F82030 		strb	r3, [r0, #32]
 510:Drivers/STM32F1xx_HAL_Driver/Src/stm32f1xx_hal_dma.c ****     return HAL_ERROR;
 1022              		.loc 1 510 5 view .LVU318
 511:Drivers/STM32F1xx_HAL_Driver/Src/stm32f1xx_hal_dma.c ****   }
 1023              		.loc 1 511 5 view .LVU319
 511:Drivers/STM32F1xx_HAL_Driver/Src/stm32f1xx_hal_dma.c ****   }
 1024              		.loc 1 511 12 is_stmt 0 view .LVU320
 1025 0018 0120     		movs	r0, #1
 1026              	.LVL52:
 1027              	.L78:
 594:Drivers/STM32F1xx_HAL_Driver/Src/stm32f1xx_hal_dma.c **** 
 1028              		.loc 1 594 1 view .LVU321
 1029 001a BDE8F081 		pop	{r4, r5, r6, r7, r8, pc}
 1030              	.LVL53:
 1031              	.L77:
 594:Drivers/STM32F1xx_HAL_Driver/Src/stm32f1xx_hal_dma.c **** 
 1032              		.loc 1 594 1 view .LVU322
 1033 001e 0F46     		mov	r7, r1
 1034 0020 1546     		mov	r5, r2
 515:Drivers/STM32F1xx_HAL_Driver/Src/stm32f1xx_hal_dma.c ****   {
 1035              		.loc 1 515 3 is_stmt 1 view .LVU323
 515:Drivers/STM32F1xx_HAL_Driver/Src/stm32f1xx_hal_dma.c ****   {
 1036              		.loc 1 515 21 is_stmt 0 view .LVU324
 1037 0022 0368     		ldr	r3, [r0]
 515:Drivers/STM32F1xx_HAL_Driver/Src/stm32f1xx_hal_dma.c ****   {
 1038              		.loc 1 515 31 view .LVU325
 1039 0024 1A68     		ldr	r2, [r3]
 1040              	.LVL54:
 515:Drivers/STM32F1xx_HAL_Driver/Src/stm32f1xx_hal_dma.c ****   {
 1041              		.loc 1 515 6 view .LVU326
 1042 0026 12F0200F 		tst	r2, #32
 1043 002a 25D1     		bne	.L191
 522:Drivers/STM32F1xx_HAL_Driver/Src/stm32f1xx_hal_dma.c ****   {
 1044              		.loc 1 522 3 is_stmt 1 view .LVU327
 522:Drivers/STM32F1xx_HAL_Driver/Src/stm32f1xx_hal_dma.c ****   {
ARM GAS  /tmp//cc32eCGN.s 			page 40


 1045              		.loc 1 522 5 is_stmt 0 view .LVU328
 1046 002c 61BB     		cbnz	r1, .L80
 525:Drivers/STM32F1xx_HAL_Driver/Src/stm32f1xx_hal_dma.c ****   }
 1047              		.loc 1 525 5 is_stmt 1 view .LVU329
 525:Drivers/STM32F1xx_HAL_Driver/Src/stm32f1xx_hal_dma.c ****   }
 1048              		.loc 1 525 12 is_stmt 0 view .LVU330
 1049 002e A24A     		ldr	r2, .L203
 1050 0030 9342     		cmp	r3, r2
 1051 0032 51D0     		beq	.L102
 525:Drivers/STM32F1xx_HAL_Driver/Src/stm32f1xx_hal_dma.c ****   }
 1052              		.loc 1 525 12 discriminator 1 view .LVU331
 1053 0034 1432     		adds	r2, r2, #20
 1054 0036 9342     		cmp	r3, r2
 1055 0038 53D0     		beq	.L103
 525:Drivers/STM32F1xx_HAL_Driver/Src/stm32f1xx_hal_dma.c ****   }
 1056              		.loc 1 525 12 discriminator 3 view .LVU332
 1057 003a 1432     		adds	r2, r2, #20
 1058 003c 9342     		cmp	r3, r2
 1059 003e 52D0     		beq	.L104
 525:Drivers/STM32F1xx_HAL_Driver/Src/stm32f1xx_hal_dma.c ****   }
 1060              		.loc 1 525 12 discriminator 5 view .LVU333
 1061 0040 1432     		adds	r2, r2, #20
 1062 0042 9342     		cmp	r3, r2
 1063 0044 52D0     		beq	.L105
 525:Drivers/STM32F1xx_HAL_Driver/Src/stm32f1xx_hal_dma.c ****   }
 1064              		.loc 1 525 12 discriminator 7 view .LVU334
 1065 0046 1432     		adds	r2, r2, #20
 1066 0048 9342     		cmp	r3, r2
 1067 004a 52D0     		beq	.L106
 525:Drivers/STM32F1xx_HAL_Driver/Src/stm32f1xx_hal_dma.c ****   }
 1068              		.loc 1 525 12 discriminator 9 view .LVU335
 1069 004c 1432     		adds	r2, r2, #20
 1070 004e 9342     		cmp	r3, r2
 1071 0050 52D0     		beq	.L107
 525:Drivers/STM32F1xx_HAL_Driver/Src/stm32f1xx_hal_dma.c ****   }
 1072              		.loc 1 525 12 discriminator 11 view .LVU336
 1073 0052 1432     		adds	r2, r2, #20
 1074 0054 9342     		cmp	r3, r2
 1075 0056 52D0     		beq	.L108
 525:Drivers/STM32F1xx_HAL_Driver/Src/stm32f1xx_hal_dma.c ****   }
 1076              		.loc 1 525 12 discriminator 13 view .LVU337
 1077 0058 02F56272 		add	r2, r2, #904
 1078 005c 9342     		cmp	r3, r2
 1079 005e 51D0     		beq	.L109
 525:Drivers/STM32F1xx_HAL_Driver/Src/stm32f1xx_hal_dma.c ****   }
 1080              		.loc 1 525 12 discriminator 15 view .LVU338
 1081 0060 1432     		adds	r2, r2, #20
 1082 0062 9342     		cmp	r3, r2
 1083 0064 50D0     		beq	.L110
 525:Drivers/STM32F1xx_HAL_Driver/Src/stm32f1xx_hal_dma.c ****   }
 1084              		.loc 1 525 12 discriminator 17 view .LVU339
 1085 0066 1432     		adds	r2, r2, #20
 1086 0068 9342     		cmp	r3, r2
 1087 006a 4FD0     		beq	.L111
 525:Drivers/STM32F1xx_HAL_Driver/Src/stm32f1xx_hal_dma.c ****   }
 1088              		.loc 1 525 12 discriminator 19 view .LVU340
 1089 006c 1432     		adds	r2, r2, #20
ARM GAS  /tmp//cc32eCGN.s 			page 41


 1090 006e 9342     		cmp	r3, r2
 1091 0070 07D0     		beq	.L192
 525:Drivers/STM32F1xx_HAL_Driver/Src/stm32f1xx_hal_dma.c ****   }
 1092              		.loc 1 525 12 discriminator 22 view .LVU341
 1093 0072 4FF40036 		mov	r6, #131072
 1094 0076 30E0     		b	.L81
 1095              	.L191:
 517:Drivers/STM32F1xx_HAL_Driver/Src/stm32f1xx_hal_dma.c ****     return HAL_ERROR;
 1096              		.loc 1 517 5 is_stmt 1 view .LVU342
 517:Drivers/STM32F1xx_HAL_Driver/Src/stm32f1xx_hal_dma.c ****     return HAL_ERROR;
 1097              		.loc 1 517 21 is_stmt 0 view .LVU343
 1098 0078 4FF48073 		mov	r3, #256
 1099 007c 8363     		str	r3, [r0, #56]
 518:Drivers/STM32F1xx_HAL_Driver/Src/stm32f1xx_hal_dma.c ****   }
 1100              		.loc 1 518 5 is_stmt 1 view .LVU344
 518:Drivers/STM32F1xx_HAL_Driver/Src/stm32f1xx_hal_dma.c ****   }
 1101              		.loc 1 518 12 is_stmt 0 view .LVU345
 1102 007e 0120     		movs	r0, #1
 1103              	.LVL55:
 518:Drivers/STM32F1xx_HAL_Driver/Src/stm32f1xx_hal_dma.c ****   }
 1104              		.loc 1 518 12 view .LVU346
 1105 0080 CBE7     		b	.L78
 1106              	.LVL56:
 1107              	.L192:
 525:Drivers/STM32F1xx_HAL_Driver/Src/stm32f1xx_hal_dma.c ****   }
 1108              		.loc 1 525 12 discriminator 21 view .LVU347
 1109 0082 4FF40056 		mov	r6, #8192
 1110 0086 28E0     		b	.L81
 1111              	.L80:
 530:Drivers/STM32F1xx_HAL_Driver/Src/stm32f1xx_hal_dma.c ****   }
 1112              		.loc 1 530 5 is_stmt 1 view .LVU348
 530:Drivers/STM32F1xx_HAL_Driver/Src/stm32f1xx_hal_dma.c ****   }
 1113              		.loc 1 530 12 is_stmt 0 view .LVU349
 1114 0088 8B4A     		ldr	r2, .L203
 1115 008a 9342     		cmp	r3, r2
 1116 008c 41D0     		beq	.L113
 530:Drivers/STM32F1xx_HAL_Driver/Src/stm32f1xx_hal_dma.c ****   }
 1117              		.loc 1 530 12 discriminator 1 view .LVU350
 1118 008e 1432     		adds	r2, r2, #20
 1119 0090 9342     		cmp	r3, r2
 1120 0092 40D0     		beq	.L114
 530:Drivers/STM32F1xx_HAL_Driver/Src/stm32f1xx_hal_dma.c ****   }
 1121              		.loc 1 530 12 discriminator 3 view .LVU351
 1122 0094 1432     		adds	r2, r2, #20
 1123 0096 9342     		cmp	r3, r2
 1124 0098 3FD0     		beq	.L115
 530:Drivers/STM32F1xx_HAL_Driver/Src/stm32f1xx_hal_dma.c ****   }
 1125              		.loc 1 530 12 discriminator 5 view .LVU352
 1126 009a 1432     		adds	r2, r2, #20
 1127 009c 9342     		cmp	r3, r2
 1128 009e 3FD0     		beq	.L116
 530:Drivers/STM32F1xx_HAL_Driver/Src/stm32f1xx_hal_dma.c ****   }
 1129              		.loc 1 530 12 discriminator 7 view .LVU353
 1130 00a0 1432     		adds	r2, r2, #20
 1131 00a2 9342     		cmp	r3, r2
 1132 00a4 3FD0     		beq	.L117
 530:Drivers/STM32F1xx_HAL_Driver/Src/stm32f1xx_hal_dma.c ****   }
ARM GAS  /tmp//cc32eCGN.s 			page 42


 1133              		.loc 1 530 12 discriminator 9 view .LVU354
 1134 00a6 1432     		adds	r2, r2, #20
 1135 00a8 9342     		cmp	r3, r2
 1136 00aa 3FD0     		beq	.L118
 530:Drivers/STM32F1xx_HAL_Driver/Src/stm32f1xx_hal_dma.c ****   }
 1137              		.loc 1 530 12 discriminator 11 view .LVU355
 1138 00ac 1432     		adds	r2, r2, #20
 1139 00ae 9342     		cmp	r3, r2
 1140 00b0 3FD0     		beq	.L119
 530:Drivers/STM32F1xx_HAL_Driver/Src/stm32f1xx_hal_dma.c ****   }
 1141              		.loc 1 530 12 discriminator 13 view .LVU356
 1142 00b2 02F56272 		add	r2, r2, #904
 1143 00b6 9342     		cmp	r3, r2
 1144 00b8 3ED0     		beq	.L120
 530:Drivers/STM32F1xx_HAL_Driver/Src/stm32f1xx_hal_dma.c ****   }
 1145              		.loc 1 530 12 discriminator 15 view .LVU357
 1146 00ba 1432     		adds	r2, r2, #20
 1147 00bc 9342     		cmp	r3, r2
 1148 00be 3DD0     		beq	.L121
 530:Drivers/STM32F1xx_HAL_Driver/Src/stm32f1xx_hal_dma.c ****   }
 1149              		.loc 1 530 12 discriminator 17 view .LVU358
 1150 00c0 1432     		adds	r2, r2, #20
 1151 00c2 9342     		cmp	r3, r2
 1152 00c4 3CD0     		beq	.L122
 530:Drivers/STM32F1xx_HAL_Driver/Src/stm32f1xx_hal_dma.c ****   }
 1153              		.loc 1 530 12 discriminator 19 view .LVU359
 1154 00c6 1432     		adds	r2, r2, #20
 1155 00c8 9342     		cmp	r3, r2
 1156 00ca 02D0     		beq	.L193
 530:Drivers/STM32F1xx_HAL_Driver/Src/stm32f1xx_hal_dma.c ****   }
 1157              		.loc 1 530 12 discriminator 22 view .LVU360
 1158 00cc 4FF48026 		mov	r6, #262144
 1159 00d0 03E0     		b	.L81
 1160              	.L193:
 530:Drivers/STM32F1xx_HAL_Driver/Src/stm32f1xx_hal_dma.c ****   }
 1161              		.loc 1 530 12 discriminator 21 view .LVU361
 1162 00d2 4FF48046 		mov	r6, #16384
 1163 00d6 00E0     		b	.L81
 1164              	.L102:
 525:Drivers/STM32F1xx_HAL_Driver/Src/stm32f1xx_hal_dma.c ****   }
 1165              		.loc 1 525 12 discriminator 2 view .LVU362
 1166 00d8 0226     		movs	r6, #2
 1167              	.L81:
 1168              	.LVL57:
 534:Drivers/STM32F1xx_HAL_Driver/Src/stm32f1xx_hal_dma.c **** 
 1169              		.loc 1 534 3 is_stmt 1 view .LVU363
 534:Drivers/STM32F1xx_HAL_Driver/Src/stm32f1xx_hal_dma.c **** 
 1170              		.loc 1 534 15 is_stmt 0 view .LVU364
 1171 00da FFF7FEFF 		bl	HAL_GetTick
 1172              	.LVL58:
 534:Drivers/STM32F1xx_HAL_Driver/Src/stm32f1xx_hal_dma.c **** 
 1173              		.loc 1 534 15 view .LVU365
 1174 00de 8046     		mov	r8, r0
 1175              	.LVL59:
 536:Drivers/STM32F1xx_HAL_Driver/Src/stm32f1xx_hal_dma.c ****   {
 1176              		.loc 1 536 3 is_stmt 1 view .LVU366
 536:Drivers/STM32F1xx_HAL_Driver/Src/stm32f1xx_hal_dma.c ****   {
ARM GAS  /tmp//cc32eCGN.s 			page 43


 1177              		.loc 1 536 8 is_stmt 0 view .LVU367
 1178 00e0 40E0     		b	.L88
 1179              	.LVL60:
 1180              	.L103:
 525:Drivers/STM32F1xx_HAL_Driver/Src/stm32f1xx_hal_dma.c ****   }
 1181              		.loc 1 525 12 discriminator 4 view .LVU368
 1182 00e2 2026     		movs	r6, #32
 1183 00e4 F9E7     		b	.L81
 1184              	.L104:
 525:Drivers/STM32F1xx_HAL_Driver/Src/stm32f1xx_hal_dma.c ****   }
 1185              		.loc 1 525 12 discriminator 6 view .LVU369
 1186 00e6 4FF40076 		mov	r6, #512
 1187 00ea F6E7     		b	.L81
 1188              	.L105:
 525:Drivers/STM32F1xx_HAL_Driver/Src/stm32f1xx_hal_dma.c ****   }
 1189              		.loc 1 525 12 discriminator 8 view .LVU370
 1190 00ec 4FF40056 		mov	r6, #8192
 1191 00f0 F3E7     		b	.L81
 1192              	.L106:
 525:Drivers/STM32F1xx_HAL_Driver/Src/stm32f1xx_hal_dma.c ****   }
 1193              		.loc 1 525 12 discriminator 10 view .LVU371
 1194 00f2 4FF40036 		mov	r6, #131072
 1195 00f6 F0E7     		b	.L81
 1196              	.L107:
 525:Drivers/STM32F1xx_HAL_Driver/Src/stm32f1xx_hal_dma.c ****   }
 1197              		.loc 1 525 12 discriminator 12 view .LVU372
 1198 00f8 4FF40016 		mov	r6, #2097152
 1199 00fc EDE7     		b	.L81
 1200              	.L108:
 525:Drivers/STM32F1xx_HAL_Driver/Src/stm32f1xx_hal_dma.c ****   }
 1201              		.loc 1 525 12 discriminator 14 view .LVU373
 1202 00fe 4FF00076 		mov	r6, #33554432
 1203 0102 EAE7     		b	.L81
 1204              	.L109:
 525:Drivers/STM32F1xx_HAL_Driver/Src/stm32f1xx_hal_dma.c ****   }
 1205              		.loc 1 525 12 discriminator 16 view .LVU374
 1206 0104 0226     		movs	r6, #2
 1207 0106 E8E7     		b	.L81
 1208              	.L110:
 525:Drivers/STM32F1xx_HAL_Driver/Src/stm32f1xx_hal_dma.c ****   }
 1209              		.loc 1 525 12 discriminator 18 view .LVU375
 1210 0108 2026     		movs	r6, #32
 1211 010a E6E7     		b	.L81
 1212              	.L111:
 525:Drivers/STM32F1xx_HAL_Driver/Src/stm32f1xx_hal_dma.c ****   }
 1213              		.loc 1 525 12 discriminator 20 view .LVU376
 1214 010c 4FF40076 		mov	r6, #512
 1215 0110 E3E7     		b	.L81
 1216              	.L113:
 530:Drivers/STM32F1xx_HAL_Driver/Src/stm32f1xx_hal_dma.c ****   }
 1217              		.loc 1 530 12 discriminator 2 view .LVU377
 1218 0112 0426     		movs	r6, #4
 1219 0114 E1E7     		b	.L81
 1220              	.L114:
 530:Drivers/STM32F1xx_HAL_Driver/Src/stm32f1xx_hal_dma.c ****   }
 1221              		.loc 1 530 12 discriminator 4 view .LVU378
 1222 0116 4026     		movs	r6, #64
ARM GAS  /tmp//cc32eCGN.s 			page 44


 1223 0118 DFE7     		b	.L81
 1224              	.L115:
 530:Drivers/STM32F1xx_HAL_Driver/Src/stm32f1xx_hal_dma.c ****   }
 1225              		.loc 1 530 12 discriminator 6 view .LVU379
 1226 011a 4FF48066 		mov	r6, #1024
 1227 011e DCE7     		b	.L81
 1228              	.L116:
 530:Drivers/STM32F1xx_HAL_Driver/Src/stm32f1xx_hal_dma.c ****   }
 1229              		.loc 1 530 12 discriminator 8 view .LVU380
 1230 0120 4FF48046 		mov	r6, #16384
 1231 0124 D9E7     		b	.L81
 1232              	.L117:
 530:Drivers/STM32F1xx_HAL_Driver/Src/stm32f1xx_hal_dma.c ****   }
 1233              		.loc 1 530 12 discriminator 10 view .LVU381
 1234 0126 4FF48026 		mov	r6, #262144
 1235 012a D6E7     		b	.L81
 1236              	.L118:
 530:Drivers/STM32F1xx_HAL_Driver/Src/stm32f1xx_hal_dma.c ****   }
 1237              		.loc 1 530 12 discriminator 12 view .LVU382
 1238 012c 4FF48006 		mov	r6, #4194304
 1239 0130 D3E7     		b	.L81
 1240              	.L119:
 530:Drivers/STM32F1xx_HAL_Driver/Src/stm32f1xx_hal_dma.c ****   }
 1241              		.loc 1 530 12 discriminator 14 view .LVU383
 1242 0132 4FF08066 		mov	r6, #67108864
 1243 0136 D0E7     		b	.L81
 1244              	.L120:
 530:Drivers/STM32F1xx_HAL_Driver/Src/stm32f1xx_hal_dma.c ****   }
 1245              		.loc 1 530 12 discriminator 16 view .LVU384
 1246 0138 0426     		movs	r6, #4
 1247 013a CEE7     		b	.L81
 1248              	.L121:
 530:Drivers/STM32F1xx_HAL_Driver/Src/stm32f1xx_hal_dma.c ****   }
 1249              		.loc 1 530 12 discriminator 18 view .LVU385
 1250 013c 4026     		movs	r6, #64
 1251 013e CCE7     		b	.L81
 1252              	.L122:
 530:Drivers/STM32F1xx_HAL_Driver/Src/stm32f1xx_hal_dma.c ****   }
 1253              		.loc 1 530 12 discriminator 20 view .LVU386
 1254 0140 4FF48066 		mov	r6, #1024
 1255 0144 C9E7     		b	.L81
 1256              	.LVL61:
 1257              	.L197:
 538:Drivers/STM32F1xx_HAL_Driver/Src/stm32f1xx_hal_dma.c ****     {
 1258              		.loc 1 538 9 discriminator 23 view .LVU387
 1259 0146 4FF40042 		mov	r2, #32768
 1260 014a 00E0     		b	.L84
 1261              	.L124:
 538:Drivers/STM32F1xx_HAL_Driver/Src/stm32f1xx_hal_dma.c ****     {
 1262              		.loc 1 538 9 discriminator 4 view .LVU388
 1263 014c 0822     		movs	r2, #8
 1264              	.L84:
 538:Drivers/STM32F1xx_HAL_Driver/Src/stm32f1xx_hal_dma.c ****     {
 1265              		.loc 1 538 9 discriminator 46 view .LVU389
 1266 014e 1340     		ands	r3, r3, r2
 538:Drivers/STM32F1xx_HAL_Driver/Src/stm32f1xx_hal_dma.c ****     {
 1267              		.loc 1 538 69 discriminator 46 view .LVU390
ARM GAS  /tmp//cc32eCGN.s 			page 45


 1268 0150 003B     		subs	r3, r3, #0
 1269 0152 18BF     		it	ne
 1270 0154 0123     		movne	r3, #1
 1271              	.L85:
 538:Drivers/STM32F1xx_HAL_Driver/Src/stm32f1xx_hal_dma.c ****     {
 1272              		.loc 1 538 7 discriminator 92 view .LVU391
 1273 0156 002B     		cmp	r3, #0
 1274 0158 40F09E80 		bne	.L194
 557:Drivers/STM32F1xx_HAL_Driver/Src/stm32f1xx_hal_dma.c ****     {
 1275              		.loc 1 557 5 is_stmt 1 view .LVU392
 557:Drivers/STM32F1xx_HAL_Driver/Src/stm32f1xx_hal_dma.c ****     {
 1276              		.loc 1 557 7 is_stmt 0 view .LVU393
 1277 015c B5F1FF3F 		cmp	r5, #-1
 1278 0160 40F0B080 		bne	.L195
 1279              	.L88:
 536:Drivers/STM32F1xx_HAL_Driver/Src/stm32f1xx_hal_dma.c ****   {
 1280              		.loc 1 536 40 is_stmt 1 view .LVU394
 536:Drivers/STM32F1xx_HAL_Driver/Src/stm32f1xx_hal_dma.c ****   {
 1281              		.loc 1 536 9 is_stmt 0 view .LVU395
 1282 0164 2268     		ldr	r2, [r4]
 536:Drivers/STM32F1xx_HAL_Driver/Src/stm32f1xx_hal_dma.c ****   {
 1283              		.loc 1 536 40 view .LVU396
 1284 0166 554B     		ldr	r3, .L203+4
 1285 0168 9A42     		cmp	r2, r3
 1286 016a 40F2BE80 		bls	.L90
 536:Drivers/STM32F1xx_HAL_Driver/Src/stm32f1xx_hal_dma.c ****   {
 1287              		.loc 1 536 9 discriminator 1 view .LVU397
 1288 016e 03F56073 		add	r3, r3, #896
 1289 0172 1B68     		ldr	r3, [r3]
 1290 0174 3340     		ands	r3, r3, r6
 536:Drivers/STM32F1xx_HAL_Driver/Src/stm32f1xx_hal_dma.c ****   {
 1291              		.loc 1 536 40 discriminator 1 view .LVU398
 1292 0176 B3FA83F3 		clz	r3, r3
 1293 017a 5B09     		lsrs	r3, r3, #5
 1294              	.L91:
 536:Drivers/STM32F1xx_HAL_Driver/Src/stm32f1xx_hal_dma.c ****   {
 1295              		.loc 1 536 40 discriminator 4 view .LVU399
 1296 017c 002B     		cmp	r3, #0
 1297 017e 00F0BB80 		beq	.L196
 538:Drivers/STM32F1xx_HAL_Driver/Src/stm32f1xx_hal_dma.c ****     {
 1298              		.loc 1 538 5 is_stmt 1 view .LVU400
 538:Drivers/STM32F1xx_HAL_Driver/Src/stm32f1xx_hal_dma.c ****     {
 1299              		.loc 1 538 69 is_stmt 0 view .LVU401
 1300 0182 4E4B     		ldr	r3, .L203+4
 1301 0184 9A42     		cmp	r2, r3
 1302 0186 3FD9     		bls	.L83
 538:Drivers/STM32F1xx_HAL_Driver/Src/stm32f1xx_hal_dma.c ****     {
 1303              		.loc 1 538 9 discriminator 1 view .LVU402
 1304 0188 03F56073 		add	r3, r3, #896
 1305 018c 1B68     		ldr	r3, [r3]
 1306 018e 4A49     		ldr	r1, .L203
 1307 0190 8A42     		cmp	r2, r1
 1308 0192 DBD0     		beq	.L124
 538:Drivers/STM32F1xx_HAL_Driver/Src/stm32f1xx_hal_dma.c ****     {
 1309              		.loc 1 538 9 discriminator 3 view .LVU403
 1310 0194 1431     		adds	r1, r1, #20
 1311 0196 8A42     		cmp	r2, r1
ARM GAS  /tmp//cc32eCGN.s 			page 46


 1312 0198 1ED0     		beq	.L125
 538:Drivers/STM32F1xx_HAL_Driver/Src/stm32f1xx_hal_dma.c ****     {
 1313              		.loc 1 538 9 discriminator 5 view .LVU404
 1314 019a 1431     		adds	r1, r1, #20
 1315 019c 8A42     		cmp	r2, r1
 1316 019e 1DD0     		beq	.L126
 538:Drivers/STM32F1xx_HAL_Driver/Src/stm32f1xx_hal_dma.c ****     {
 1317              		.loc 1 538 9 discriminator 7 view .LVU405
 1318 01a0 1431     		adds	r1, r1, #20
 1319 01a2 8A42     		cmp	r2, r1
 1320 01a4 1DD0     		beq	.L127
 538:Drivers/STM32F1xx_HAL_Driver/Src/stm32f1xx_hal_dma.c ****     {
 1321              		.loc 1 538 9 discriminator 9 view .LVU406
 1322 01a6 1431     		adds	r1, r1, #20
 1323 01a8 8A42     		cmp	r2, r1
 1324 01aa 1DD0     		beq	.L128
 538:Drivers/STM32F1xx_HAL_Driver/Src/stm32f1xx_hal_dma.c ****     {
 1325              		.loc 1 538 9 discriminator 11 view .LVU407
 1326 01ac 1431     		adds	r1, r1, #20
 1327 01ae 8A42     		cmp	r2, r1
 1328 01b0 1DD0     		beq	.L129
 538:Drivers/STM32F1xx_HAL_Driver/Src/stm32f1xx_hal_dma.c ****     {
 1329              		.loc 1 538 9 discriminator 13 view .LVU408
 1330 01b2 1431     		adds	r1, r1, #20
 1331 01b4 8A42     		cmp	r2, r1
 1332 01b6 1DD0     		beq	.L130
 538:Drivers/STM32F1xx_HAL_Driver/Src/stm32f1xx_hal_dma.c ****     {
 1333              		.loc 1 538 9 discriminator 15 view .LVU409
 1334 01b8 01F56271 		add	r1, r1, #904
 1335 01bc 8A42     		cmp	r2, r1
 1336 01be 1CD0     		beq	.L131
 538:Drivers/STM32F1xx_HAL_Driver/Src/stm32f1xx_hal_dma.c ****     {
 1337              		.loc 1 538 9 discriminator 17 view .LVU410
 1338 01c0 1431     		adds	r1, r1, #20
 1339 01c2 8A42     		cmp	r2, r1
 1340 01c4 1BD0     		beq	.L132
 538:Drivers/STM32F1xx_HAL_Driver/Src/stm32f1xx_hal_dma.c ****     {
 1341              		.loc 1 538 9 discriminator 19 view .LVU411
 1342 01c6 1431     		adds	r1, r1, #20
 1343 01c8 8A42     		cmp	r2, r1
 1344 01ca 1AD0     		beq	.L133
 538:Drivers/STM32F1xx_HAL_Driver/Src/stm32f1xx_hal_dma.c ****     {
 1345              		.loc 1 538 9 discriminator 21 view .LVU412
 1346 01cc 1431     		adds	r1, r1, #20
 1347 01ce 8A42     		cmp	r2, r1
 1348 01d0 B9D0     		beq	.L197
 538:Drivers/STM32F1xx_HAL_Driver/Src/stm32f1xx_hal_dma.c ****     {
 1349              		.loc 1 538 9 discriminator 24 view .LVU413
 1350 01d2 4FF40022 		mov	r2, #524288
 1351 01d6 BAE7     		b	.L84
 1352              	.L125:
 538:Drivers/STM32F1xx_HAL_Driver/Src/stm32f1xx_hal_dma.c ****     {
 1353              		.loc 1 538 9 discriminator 6 view .LVU414
 1354 01d8 8022     		movs	r2, #128
 1355 01da B8E7     		b	.L84
 1356              	.L126:
 538:Drivers/STM32F1xx_HAL_Driver/Src/stm32f1xx_hal_dma.c ****     {
ARM GAS  /tmp//cc32eCGN.s 			page 47


 1357              		.loc 1 538 9 discriminator 8 view .LVU415
 1358 01dc 4FF40062 		mov	r2, #2048
 1359 01e0 B5E7     		b	.L84
 1360              	.L127:
 538:Drivers/STM32F1xx_HAL_Driver/Src/stm32f1xx_hal_dma.c ****     {
 1361              		.loc 1 538 9 discriminator 10 view .LVU416
 1362 01e2 4FF40042 		mov	r2, #32768
 1363 01e6 B2E7     		b	.L84
 1364              	.L128:
 538:Drivers/STM32F1xx_HAL_Driver/Src/stm32f1xx_hal_dma.c ****     {
 1365              		.loc 1 538 9 discriminator 12 view .LVU417
 1366 01e8 4FF40022 		mov	r2, #524288
 1367 01ec AFE7     		b	.L84
 1368              	.L129:
 538:Drivers/STM32F1xx_HAL_Driver/Src/stm32f1xx_hal_dma.c ****     {
 1369              		.loc 1 538 9 discriminator 14 view .LVU418
 1370 01ee 4FF40002 		mov	r2, #8388608
 1371 01f2 ACE7     		b	.L84
 1372              	.L130:
 538:Drivers/STM32F1xx_HAL_Driver/Src/stm32f1xx_hal_dma.c ****     {
 1373              		.loc 1 538 9 discriminator 16 view .LVU419
 1374 01f4 4FF00062 		mov	r2, #134217728
 1375 01f8 A9E7     		b	.L84
 1376              	.L131:
 538:Drivers/STM32F1xx_HAL_Driver/Src/stm32f1xx_hal_dma.c ****     {
 1377              		.loc 1 538 9 discriminator 18 view .LVU420
 1378 01fa 0822     		movs	r2, #8
 1379 01fc A7E7     		b	.L84
 1380              	.L132:
 538:Drivers/STM32F1xx_HAL_Driver/Src/stm32f1xx_hal_dma.c ****     {
 1381              		.loc 1 538 9 discriminator 20 view .LVU421
 1382 01fe 8022     		movs	r2, #128
 1383 0200 A5E7     		b	.L84
 1384              	.L133:
 538:Drivers/STM32F1xx_HAL_Driver/Src/stm32f1xx_hal_dma.c ****     {
 1385              		.loc 1 538 9 discriminator 22 view .LVU422
 1386 0202 4FF40062 		mov	r2, #2048
 1387 0206 A2E7     		b	.L84
 1388              	.L83:
 538:Drivers/STM32F1xx_HAL_Driver/Src/stm32f1xx_hal_dma.c ****     {
 1389              		.loc 1 538 9 discriminator 2 view .LVU423
 1390 0208 2D4B     		ldr	r3, .L203+8
 1391 020a 1B68     		ldr	r3, [r3]
 1392 020c 2A49     		ldr	r1, .L203
 1393 020e 8A42     		cmp	r2, r1
 1394 0210 24D0     		beq	.L135
 538:Drivers/STM32F1xx_HAL_Driver/Src/stm32f1xx_hal_dma.c ****     {
 1395              		.loc 1 538 9 discriminator 48 view .LVU424
 1396 0212 1431     		adds	r1, r1, #20
 1397 0214 8A42     		cmp	r2, r1
 1398 0216 27D0     		beq	.L136
 538:Drivers/STM32F1xx_HAL_Driver/Src/stm32f1xx_hal_dma.c ****     {
 1399              		.loc 1 538 9 discriminator 50 view .LVU425
 1400 0218 1431     		adds	r1, r1, #20
 1401 021a 8A42     		cmp	r2, r1
 1402 021c 26D0     		beq	.L137
 538:Drivers/STM32F1xx_HAL_Driver/Src/stm32f1xx_hal_dma.c ****     {
ARM GAS  /tmp//cc32eCGN.s 			page 48


 1403              		.loc 1 538 9 discriminator 52 view .LVU426
 1404 021e 1431     		adds	r1, r1, #20
 1405 0220 8A42     		cmp	r2, r1
 1406 0222 26D0     		beq	.L138
 538:Drivers/STM32F1xx_HAL_Driver/Src/stm32f1xx_hal_dma.c ****     {
 1407              		.loc 1 538 9 discriminator 54 view .LVU427
 1408 0224 1431     		adds	r1, r1, #20
 1409 0226 8A42     		cmp	r2, r1
 1410 0228 26D0     		beq	.L139
 538:Drivers/STM32F1xx_HAL_Driver/Src/stm32f1xx_hal_dma.c ****     {
 1411              		.loc 1 538 9 discriminator 56 view .LVU428
 1412 022a 1431     		adds	r1, r1, #20
 1413 022c 8A42     		cmp	r2, r1
 1414 022e 26D0     		beq	.L140
 538:Drivers/STM32F1xx_HAL_Driver/Src/stm32f1xx_hal_dma.c ****     {
 1415              		.loc 1 538 9 discriminator 58 view .LVU429
 1416 0230 1431     		adds	r1, r1, #20
 1417 0232 8A42     		cmp	r2, r1
 1418 0234 26D0     		beq	.L141
 538:Drivers/STM32F1xx_HAL_Driver/Src/stm32f1xx_hal_dma.c ****     {
 1419              		.loc 1 538 9 discriminator 60 view .LVU430
 1420 0236 01F56271 		add	r1, r1, #904
 1421 023a 8A42     		cmp	r2, r1
 1422 023c 25D0     		beq	.L142
 538:Drivers/STM32F1xx_HAL_Driver/Src/stm32f1xx_hal_dma.c ****     {
 1423              		.loc 1 538 9 discriminator 62 view .LVU431
 1424 023e 1431     		adds	r1, r1, #20
 1425 0240 8A42     		cmp	r2, r1
 1426 0242 24D0     		beq	.L143
 538:Drivers/STM32F1xx_HAL_Driver/Src/stm32f1xx_hal_dma.c ****     {
 1427              		.loc 1 538 9 discriminator 64 view .LVU432
 1428 0244 1431     		adds	r1, r1, #20
 1429 0246 8A42     		cmp	r2, r1
 1430 0248 23D0     		beq	.L144
 538:Drivers/STM32F1xx_HAL_Driver/Src/stm32f1xx_hal_dma.c ****     {
 1431              		.loc 1 538 9 discriminator 66 view .LVU433
 1432 024a 1431     		adds	r1, r1, #20
 1433 024c 8A42     		cmp	r2, r1
 1434 024e 02D0     		beq	.L198
 538:Drivers/STM32F1xx_HAL_Driver/Src/stm32f1xx_hal_dma.c ****     {
 1435              		.loc 1 538 9 discriminator 69 view .LVU434
 1436 0250 4FF40022 		mov	r2, #524288
 1437 0254 03E0     		b	.L86
 1438              	.L198:
 538:Drivers/STM32F1xx_HAL_Driver/Src/stm32f1xx_hal_dma.c ****     {
 1439              		.loc 1 538 9 discriminator 68 view .LVU435
 1440 0256 4FF40042 		mov	r2, #32768
 1441 025a 00E0     		b	.L86
 1442              	.L135:
 538:Drivers/STM32F1xx_HAL_Driver/Src/stm32f1xx_hal_dma.c ****     {
 1443              		.loc 1 538 9 discriminator 49 view .LVU436
 1444 025c 0822     		movs	r2, #8
 1445              	.L86:
 538:Drivers/STM32F1xx_HAL_Driver/Src/stm32f1xx_hal_dma.c ****     {
 1446              		.loc 1 538 9 discriminator 91 view .LVU437
 1447 025e 1340     		ands	r3, r3, r2
 538:Drivers/STM32F1xx_HAL_Driver/Src/stm32f1xx_hal_dma.c ****     {
ARM GAS  /tmp//cc32eCGN.s 			page 49


 1448              		.loc 1 538 69 discriminator 91 view .LVU438
 1449 0260 003B     		subs	r3, r3, #0
 1450 0262 18BF     		it	ne
 1451 0264 0123     		movne	r3, #1
 1452 0266 76E7     		b	.L85
 1453              	.L136:
 538:Drivers/STM32F1xx_HAL_Driver/Src/stm32f1xx_hal_dma.c ****     {
 1454              		.loc 1 538 9 discriminator 51 view .LVU439
 1455 0268 8022     		movs	r2, #128
 1456 026a F8E7     		b	.L86
 1457              	.L137:
 538:Drivers/STM32F1xx_HAL_Driver/Src/stm32f1xx_hal_dma.c ****     {
 1458              		.loc 1 538 9 discriminator 53 view .LVU440
 1459 026c 4FF40062 		mov	r2, #2048
 1460 0270 F5E7     		b	.L86
 1461              	.L138:
 538:Drivers/STM32F1xx_HAL_Driver/Src/stm32f1xx_hal_dma.c ****     {
 1462              		.loc 1 538 9 discriminator 55 view .LVU441
 1463 0272 4FF40042 		mov	r2, #32768
 1464 0276 F2E7     		b	.L86
 1465              	.L139:
 538:Drivers/STM32F1xx_HAL_Driver/Src/stm32f1xx_hal_dma.c ****     {
 1466              		.loc 1 538 9 discriminator 57 view .LVU442
 1467 0278 4FF40022 		mov	r2, #524288
 1468 027c EFE7     		b	.L86
 1469              	.L140:
 538:Drivers/STM32F1xx_HAL_Driver/Src/stm32f1xx_hal_dma.c ****     {
 1470              		.loc 1 538 9 discriminator 59 view .LVU443
 1471 027e 4FF40002 		mov	r2, #8388608
 1472 0282 ECE7     		b	.L86
 1473              	.L141:
 538:Drivers/STM32F1xx_HAL_Driver/Src/stm32f1xx_hal_dma.c ****     {
 1474              		.loc 1 538 9 discriminator 61 view .LVU444
 1475 0284 4FF00062 		mov	r2, #134217728
 1476 0288 E9E7     		b	.L86
 1477              	.L142:
 538:Drivers/STM32F1xx_HAL_Driver/Src/stm32f1xx_hal_dma.c ****     {
 1478              		.loc 1 538 9 discriminator 63 view .LVU445
 1479 028a 0822     		movs	r2, #8
 1480 028c E7E7     		b	.L86
 1481              	.L143:
 538:Drivers/STM32F1xx_HAL_Driver/Src/stm32f1xx_hal_dma.c ****     {
 1482              		.loc 1 538 9 discriminator 65 view .LVU446
 1483 028e 8022     		movs	r2, #128
 1484 0290 E5E7     		b	.L86
 1485              	.L144:
 538:Drivers/STM32F1xx_HAL_Driver/Src/stm32f1xx_hal_dma.c ****     {
 1486              		.loc 1 538 9 discriminator 67 view .LVU447
 1487 0292 4FF40062 		mov	r2, #2048
 1488 0296 E2E7     		b	.L86
 1489              	.L194:
 543:Drivers/STM32F1xx_HAL_Driver/Src/stm32f1xx_hal_dma.c **** 
 1490              		.loc 1 543 7 is_stmt 1 view .LVU448
 543:Drivers/STM32F1xx_HAL_Driver/Src/stm32f1xx_hal_dma.c **** 
 1491              		.loc 1 543 57 is_stmt 0 view .LVU449
 1492 0298 236C     		ldr	r3, [r4, #64]
 543:Drivers/STM32F1xx_HAL_Driver/Src/stm32f1xx_hal_dma.c **** 
ARM GAS  /tmp//cc32eCGN.s 			page 50


 1493              		.loc 1 543 11 view .LVU450
 1494 029a E26B     		ldr	r2, [r4, #60]
 543:Drivers/STM32F1xx_HAL_Driver/Src/stm32f1xx_hal_dma.c **** 
 1495              		.loc 1 543 50 view .LVU451
 1496 029c 0120     		movs	r0, #1
 1497 029e 00FA03F3 		lsl	r3, r0, r3
 543:Drivers/STM32F1xx_HAL_Driver/Src/stm32f1xx_hal_dma.c **** 
 1498              		.loc 1 543 34 view .LVU452
 1499 02a2 5360     		str	r3, [r2, #4]
 546:Drivers/STM32F1xx_HAL_Driver/Src/stm32f1xx_hal_dma.c **** 
 1500              		.loc 1 546 7 is_stmt 1 view .LVU453
 1501 02a4 A36B     		ldr	r3, [r4, #56]
 1502 02a6 0343     		orrs	r3, r3, r0
 1503 02a8 A363     		str	r3, [r4, #56]
 549:Drivers/STM32F1xx_HAL_Driver/Src/stm32f1xx_hal_dma.c **** 
 1504              		.loc 1 549 7 view .LVU454
 549:Drivers/STM32F1xx_HAL_Driver/Src/stm32f1xx_hal_dma.c **** 
 1505              		.loc 1 549 18 is_stmt 0 view .LVU455
 1506 02aa 84F82100 		strb	r0, [r4, #33]
 552:Drivers/STM32F1xx_HAL_Driver/Src/stm32f1xx_hal_dma.c **** 
 1507              		.loc 1 552 7 is_stmt 1 view .LVU456
 552:Drivers/STM32F1xx_HAL_Driver/Src/stm32f1xx_hal_dma.c **** 
 1508              		.loc 1 552 7 view .LVU457
 1509 02ae 0023     		movs	r3, #0
 1510 02b0 84F82030 		strb	r3, [r4, #32]
 552:Drivers/STM32F1xx_HAL_Driver/Src/stm32f1xx_hal_dma.c **** 
 1511              		.loc 1 552 7 view .LVU458
 554:Drivers/STM32F1xx_HAL_Driver/Src/stm32f1xx_hal_dma.c ****     }
 1512              		.loc 1 554 7 view .LVU459
 554:Drivers/STM32F1xx_HAL_Driver/Src/stm32f1xx_hal_dma.c ****     }
 1513              		.loc 1 554 14 is_stmt 0 view .LVU460
 1514 02b4 B1E6     		b	.L78
 1515              	.L204:
 1516 02b6 00BF     		.align	2
 1517              	.L203:
 1518 02b8 08000240 		.word	1073872904
 1519 02bc 80000240 		.word	1073873024
 1520 02c0 00000240 		.word	1073872896
 1521              	.L195:
 559:Drivers/STM32F1xx_HAL_Driver/Src/stm32f1xx_hal_dma.c ****       {
 1522              		.loc 1 559 7 is_stmt 1 view .LVU461
 559:Drivers/STM32F1xx_HAL_Driver/Src/stm32f1xx_hal_dma.c ****       {
 1523              		.loc 1 559 9 is_stmt 0 view .LVU462
 1524 02c4 35B1     		cbz	r5, .L89
 559:Drivers/STM32F1xx_HAL_Driver/Src/stm32f1xx_hal_dma.c ****       {
 1525              		.loc 1 559 31 discriminator 1 view .LVU463
 1526 02c6 FFF7FEFF 		bl	HAL_GetTick
 1527              	.LVL62:
 559:Drivers/STM32F1xx_HAL_Driver/Src/stm32f1xx_hal_dma.c ****       {
 1528              		.loc 1 559 45 discriminator 1 view .LVU464
 1529 02ca A0EB0800 		sub	r0, r0, r8
 559:Drivers/STM32F1xx_HAL_Driver/Src/stm32f1xx_hal_dma.c ****       {
 1530              		.loc 1 559 26 discriminator 1 view .LVU465
 1531 02ce A842     		cmp	r0, r5
 1532 02d0 7FF648AF 		bls	.L88
 1533              	.L89:
 562:Drivers/STM32F1xx_HAL_Driver/Src/stm32f1xx_hal_dma.c **** 
ARM GAS  /tmp//cc32eCGN.s 			page 51


 1534              		.loc 1 562 9 is_stmt 1 view .LVU466
 1535 02d4 A36B     		ldr	r3, [r4, #56]
 1536 02d6 43F02003 		orr	r3, r3, #32
 1537 02da A363     		str	r3, [r4, #56]
 565:Drivers/STM32F1xx_HAL_Driver/Src/stm32f1xx_hal_dma.c **** 
 1538              		.loc 1 565 9 view .LVU467
 565:Drivers/STM32F1xx_HAL_Driver/Src/stm32f1xx_hal_dma.c **** 
 1539              		.loc 1 565 21 is_stmt 0 view .LVU468
 1540 02dc 0120     		movs	r0, #1
 1541 02de 84F82100 		strb	r0, [r4, #33]
 568:Drivers/STM32F1xx_HAL_Driver/Src/stm32f1xx_hal_dma.c **** 
 1542              		.loc 1 568 9 is_stmt 1 view .LVU469
 568:Drivers/STM32F1xx_HAL_Driver/Src/stm32f1xx_hal_dma.c **** 
 1543              		.loc 1 568 9 view .LVU470
 1544 02e2 0023     		movs	r3, #0
 1545 02e4 84F82030 		strb	r3, [r4, #32]
 568:Drivers/STM32F1xx_HAL_Driver/Src/stm32f1xx_hal_dma.c **** 
 1546              		.loc 1 568 9 view .LVU471
 570:Drivers/STM32F1xx_HAL_Driver/Src/stm32f1xx_hal_dma.c ****       }
 1547              		.loc 1 570 9 view .LVU472
 570:Drivers/STM32F1xx_HAL_Driver/Src/stm32f1xx_hal_dma.c ****       }
 1548              		.loc 1 570 16 is_stmt 0 view .LVU473
 1549 02e8 97E6     		b	.L78
 1550              	.L90:
 536:Drivers/STM32F1xx_HAL_Driver/Src/stm32f1xx_hal_dma.c ****   {
 1551              		.loc 1 536 9 discriminator 2 view .LVU474
 1552 02ea 934B     		ldr	r3, .L205
 1553 02ec 1B68     		ldr	r3, [r3]
 1554 02ee 3340     		ands	r3, r3, r6
 536:Drivers/STM32F1xx_HAL_Driver/Src/stm32f1xx_hal_dma.c ****   {
 1555              		.loc 1 536 40 discriminator 2 view .LVU475
 1556 02f0 B3FA83F3 		clz	r3, r3
 1557 02f4 5B09     		lsrs	r3, r3, #5
 1558 02f6 41E7     		b	.L91
 1559              	.L196:
 575:Drivers/STM32F1xx_HAL_Driver/Src/stm32f1xx_hal_dma.c ****   {
 1560              		.loc 1 575 3 is_stmt 1 view .LVU476
 575:Drivers/STM32F1xx_HAL_Driver/Src/stm32f1xx_hal_dma.c ****   {
 1561              		.loc 1 575 5 is_stmt 0 view .LVU477
 1562 02f8 002F     		cmp	r7, #0
 1563 02fa 40F09180 		bne	.L93
 578:Drivers/STM32F1xx_HAL_Driver/Src/stm32f1xx_hal_dma.c **** 
 1564              		.loc 1 578 5 is_stmt 1 view .LVU478
 1565 02fe 8F4B     		ldr	r3, .L205+4
 1566 0300 9A42     		cmp	r2, r3
 1567 0302 49D9     		bls	.L94
 578:Drivers/STM32F1xx_HAL_Driver/Src/stm32f1xx_hal_dma.c **** 
 1568              		.loc 1 578 5 is_stmt 0 discriminator 1 view .LVU479
 1569 0304 783B     		subs	r3, r3, #120
 1570 0306 9A42     		cmp	r2, r3
 1571 0308 24D0     		beq	.L146
 578:Drivers/STM32F1xx_HAL_Driver/Src/stm32f1xx_hal_dma.c **** 
 1572              		.loc 1 578 5 discriminator 3 view .LVU480
 1573 030a 1433     		adds	r3, r3, #20
 1574 030c 9A42     		cmp	r2, r3
 1575 030e 2BD0     		beq	.L147
 578:Drivers/STM32F1xx_HAL_Driver/Src/stm32f1xx_hal_dma.c **** 
ARM GAS  /tmp//cc32eCGN.s 			page 52


 1576              		.loc 1 578 5 discriminator 5 view .LVU481
 1577 0310 1433     		adds	r3, r3, #20
 1578 0312 9A42     		cmp	r2, r3
 1579 0314 2AD0     		beq	.L148
 578:Drivers/STM32F1xx_HAL_Driver/Src/stm32f1xx_hal_dma.c **** 
 1580              		.loc 1 578 5 discriminator 7 view .LVU482
 1581 0316 1433     		adds	r3, r3, #20
 1582 0318 9A42     		cmp	r2, r3
 1583 031a 2AD0     		beq	.L149
 578:Drivers/STM32F1xx_HAL_Driver/Src/stm32f1xx_hal_dma.c **** 
 1584              		.loc 1 578 5 discriminator 9 view .LVU483
 1585 031c 1433     		adds	r3, r3, #20
 1586 031e 9A42     		cmp	r2, r3
 1587 0320 2AD0     		beq	.L150
 578:Drivers/STM32F1xx_HAL_Driver/Src/stm32f1xx_hal_dma.c **** 
 1588              		.loc 1 578 5 discriminator 11 view .LVU484
 1589 0322 1433     		adds	r3, r3, #20
 1590 0324 9A42     		cmp	r2, r3
 1591 0326 2AD0     		beq	.L151
 578:Drivers/STM32F1xx_HAL_Driver/Src/stm32f1xx_hal_dma.c **** 
 1592              		.loc 1 578 5 discriminator 13 view .LVU485
 1593 0328 1433     		adds	r3, r3, #20
 1594 032a 9A42     		cmp	r2, r3
 1595 032c 2AD0     		beq	.L152
 578:Drivers/STM32F1xx_HAL_Driver/Src/stm32f1xx_hal_dma.c **** 
 1596              		.loc 1 578 5 discriminator 15 view .LVU486
 1597 032e 03F56273 		add	r3, r3, #904
 1598 0332 9A42     		cmp	r2, r3
 1599 0334 29D0     		beq	.L153
 578:Drivers/STM32F1xx_HAL_Driver/Src/stm32f1xx_hal_dma.c **** 
 1600              		.loc 1 578 5 discriminator 17 view .LVU487
 1601 0336 1433     		adds	r3, r3, #20
 1602 0338 9A42     		cmp	r2, r3
 1603 033a 28D0     		beq	.L154
 578:Drivers/STM32F1xx_HAL_Driver/Src/stm32f1xx_hal_dma.c **** 
 1604              		.loc 1 578 5 discriminator 19 view .LVU488
 1605 033c 1433     		adds	r3, r3, #20
 1606 033e 9A42     		cmp	r2, r3
 1607 0340 27D0     		beq	.L155
 578:Drivers/STM32F1xx_HAL_Driver/Src/stm32f1xx_hal_dma.c **** 
 1608              		.loc 1 578 5 discriminator 21 view .LVU489
 1609 0342 1433     		adds	r3, r3, #20
 1610 0344 9A42     		cmp	r2, r3
 1611 0346 02D0     		beq	.L199
 578:Drivers/STM32F1xx_HAL_Driver/Src/stm32f1xx_hal_dma.c **** 
 1612              		.loc 1 578 5 discriminator 24 view .LVU490
 1613 0348 4FF40033 		mov	r3, #131072
 1614 034c 03E0     		b	.L95
 1615              	.L199:
 578:Drivers/STM32F1xx_HAL_Driver/Src/stm32f1xx_hal_dma.c **** 
 1616              		.loc 1 578 5 discriminator 23 view .LVU491
 1617 034e 4FF40053 		mov	r3, #8192
 1618 0352 00E0     		b	.L95
 1619              	.L146:
 578:Drivers/STM32F1xx_HAL_Driver/Src/stm32f1xx_hal_dma.c **** 
 1620              		.loc 1 578 5 discriminator 4 view .LVU492
 1621 0354 0223     		movs	r3, #2
ARM GAS  /tmp//cc32eCGN.s 			page 53


 1622              	.L95:
 578:Drivers/STM32F1xx_HAL_Driver/Src/stm32f1xx_hal_dma.c **** 
 1623              		.loc 1 578 5 discriminator 46 view .LVU493
 1624 0356 7A4A     		ldr	r2, .L205+8
 1625 0358 5360     		str	r3, [r2, #4]
 1626              	.L96:
 582:Drivers/STM32F1xx_HAL_Driver/Src/stm32f1xx_hal_dma.c ****   }
 1627              		.loc 1 582 5 is_stmt 1 view .LVU494
 582:Drivers/STM32F1xx_HAL_Driver/Src/stm32f1xx_hal_dma.c ****   }
 1628              		.loc 1 582 17 is_stmt 0 view .LVU495
 1629 035a 0123     		movs	r3, #1
 1630 035c 84F82130 		strb	r3, [r4, #33]
 1631              	.L98:
 591:Drivers/STM32F1xx_HAL_Driver/Src/stm32f1xx_hal_dma.c **** 
 1632              		.loc 1 591 3 is_stmt 1 view .LVU496
 591:Drivers/STM32F1xx_HAL_Driver/Src/stm32f1xx_hal_dma.c **** 
 1633              		.loc 1 591 3 view .LVU497
 1634 0360 0020     		movs	r0, #0
 1635 0362 84F82000 		strb	r0, [r4, #32]
 591:Drivers/STM32F1xx_HAL_Driver/Src/stm32f1xx_hal_dma.c **** 
 1636              		.loc 1 591 3 view .LVU498
 593:Drivers/STM32F1xx_HAL_Driver/Src/stm32f1xx_hal_dma.c **** }
 1637              		.loc 1 593 3 view .LVU499
 593:Drivers/STM32F1xx_HAL_Driver/Src/stm32f1xx_hal_dma.c **** }
 1638              		.loc 1 593 10 is_stmt 0 view .LVU500
 1639 0366 58E6     		b	.L78
 1640              	.L147:
 578:Drivers/STM32F1xx_HAL_Driver/Src/stm32f1xx_hal_dma.c **** 
 1641              		.loc 1 578 5 discriminator 6 view .LVU501
 1642 0368 2023     		movs	r3, #32
 1643 036a F4E7     		b	.L95
 1644              	.L148:
 578:Drivers/STM32F1xx_HAL_Driver/Src/stm32f1xx_hal_dma.c **** 
 1645              		.loc 1 578 5 discriminator 8 view .LVU502
 1646 036c 4FF40073 		mov	r3, #512
 1647 0370 F1E7     		b	.L95
 1648              	.L149:
 578:Drivers/STM32F1xx_HAL_Driver/Src/stm32f1xx_hal_dma.c **** 
 1649              		.loc 1 578 5 discriminator 10 view .LVU503
 1650 0372 4FF40053 		mov	r3, #8192
 1651 0376 EEE7     		b	.L95
 1652              	.L150:
 578:Drivers/STM32F1xx_HAL_Driver/Src/stm32f1xx_hal_dma.c **** 
 1653              		.loc 1 578 5 discriminator 12 view .LVU504
 1654 0378 4FF40033 		mov	r3, #131072
 1655 037c EBE7     		b	.L95
 1656              	.L151:
 578:Drivers/STM32F1xx_HAL_Driver/Src/stm32f1xx_hal_dma.c **** 
 1657              		.loc 1 578 5 discriminator 14 view .LVU505
 1658 037e 4FF40013 		mov	r3, #2097152
 1659 0382 E8E7     		b	.L95
 1660              	.L152:
 578:Drivers/STM32F1xx_HAL_Driver/Src/stm32f1xx_hal_dma.c **** 
 1661              		.loc 1 578 5 discriminator 16 view .LVU506
 1662 0384 4FF00073 		mov	r3, #33554432
 1663 0388 E5E7     		b	.L95
 1664              	.L153:
ARM GAS  /tmp//cc32eCGN.s 			page 54


 578:Drivers/STM32F1xx_HAL_Driver/Src/stm32f1xx_hal_dma.c **** 
 1665              		.loc 1 578 5 discriminator 18 view .LVU507
 1666 038a 0223     		movs	r3, #2
 1667 038c E3E7     		b	.L95
 1668              	.L154:
 578:Drivers/STM32F1xx_HAL_Driver/Src/stm32f1xx_hal_dma.c **** 
 1669              		.loc 1 578 5 discriminator 20 view .LVU508
 1670 038e 2023     		movs	r3, #32
 1671 0390 E1E7     		b	.L95
 1672              	.L155:
 578:Drivers/STM32F1xx_HAL_Driver/Src/stm32f1xx_hal_dma.c **** 
 1673              		.loc 1 578 5 discriminator 22 view .LVU509
 1674 0392 4FF40073 		mov	r3, #512
 1675 0396 DEE7     		b	.L95
 1676              	.L94:
 578:Drivers/STM32F1xx_HAL_Driver/Src/stm32f1xx_hal_dma.c **** 
 1677              		.loc 1 578 5 discriminator 2 view .LVU510
 1678 0398 6A4B     		ldr	r3, .L205+12
 1679 039a 9A42     		cmp	r2, r3
 1680 039c 24D0     		beq	.L157
 578:Drivers/STM32F1xx_HAL_Driver/Src/stm32f1xx_hal_dma.c **** 
 1681              		.loc 1 578 5 discriminator 47 view .LVU511
 1682 039e 1433     		adds	r3, r3, #20
 1683 03a0 9A42     		cmp	r2, r3
 1684 03a2 25D0     		beq	.L158
 578:Drivers/STM32F1xx_HAL_Driver/Src/stm32f1xx_hal_dma.c **** 
 1685              		.loc 1 578 5 discriminator 49 view .LVU512
 1686 03a4 1433     		adds	r3, r3, #20
 1687 03a6 9A42     		cmp	r2, r3
 1688 03a8 24D0     		beq	.L159
 578:Drivers/STM32F1xx_HAL_Driver/Src/stm32f1xx_hal_dma.c **** 
 1689              		.loc 1 578 5 discriminator 51 view .LVU513
 1690 03aa 1433     		adds	r3, r3, #20
 1691 03ac 9A42     		cmp	r2, r3
 1692 03ae 24D0     		beq	.L160
 578:Drivers/STM32F1xx_HAL_Driver/Src/stm32f1xx_hal_dma.c **** 
 1693              		.loc 1 578 5 discriminator 53 view .LVU514
 1694 03b0 1433     		adds	r3, r3, #20
 1695 03b2 9A42     		cmp	r2, r3
 1696 03b4 24D0     		beq	.L161
 578:Drivers/STM32F1xx_HAL_Driver/Src/stm32f1xx_hal_dma.c **** 
 1697              		.loc 1 578 5 discriminator 55 view .LVU515
 1698 03b6 1433     		adds	r3, r3, #20
 1699 03b8 9A42     		cmp	r2, r3
 1700 03ba 24D0     		beq	.L162
 578:Drivers/STM32F1xx_HAL_Driver/Src/stm32f1xx_hal_dma.c **** 
 1701              		.loc 1 578 5 discriminator 57 view .LVU516
 1702 03bc 1433     		adds	r3, r3, #20
 1703 03be 9A42     		cmp	r2, r3
 1704 03c0 24D0     		beq	.L163
 578:Drivers/STM32F1xx_HAL_Driver/Src/stm32f1xx_hal_dma.c **** 
 1705              		.loc 1 578 5 discriminator 59 view .LVU517
 1706 03c2 03F56273 		add	r3, r3, #904
 1707 03c6 9A42     		cmp	r2, r3
 1708 03c8 23D0     		beq	.L164
 578:Drivers/STM32F1xx_HAL_Driver/Src/stm32f1xx_hal_dma.c **** 
 1709              		.loc 1 578 5 discriminator 61 view .LVU518
ARM GAS  /tmp//cc32eCGN.s 			page 55


 1710 03ca 1433     		adds	r3, r3, #20
 1711 03cc 9A42     		cmp	r2, r3
 1712 03ce 22D0     		beq	.L165
 578:Drivers/STM32F1xx_HAL_Driver/Src/stm32f1xx_hal_dma.c **** 
 1713              		.loc 1 578 5 discriminator 63 view .LVU519
 1714 03d0 1433     		adds	r3, r3, #20
 1715 03d2 9A42     		cmp	r2, r3
 1716 03d4 21D0     		beq	.L166
 578:Drivers/STM32F1xx_HAL_Driver/Src/stm32f1xx_hal_dma.c **** 
 1717              		.loc 1 578 5 discriminator 65 view .LVU520
 1718 03d6 1433     		adds	r3, r3, #20
 1719 03d8 9A42     		cmp	r2, r3
 1720 03da 02D0     		beq	.L200
 578:Drivers/STM32F1xx_HAL_Driver/Src/stm32f1xx_hal_dma.c **** 
 1721              		.loc 1 578 5 discriminator 68 view .LVU521
 1722 03dc 4FF40033 		mov	r3, #131072
 1723 03e0 03E0     		b	.L97
 1724              	.L200:
 578:Drivers/STM32F1xx_HAL_Driver/Src/stm32f1xx_hal_dma.c **** 
 1725              		.loc 1 578 5 discriminator 67 view .LVU522
 1726 03e2 4FF40053 		mov	r3, #8192
 1727 03e6 00E0     		b	.L97
 1728              	.L157:
 578:Drivers/STM32F1xx_HAL_Driver/Src/stm32f1xx_hal_dma.c **** 
 1729              		.loc 1 578 5 discriminator 48 view .LVU523
 1730 03e8 0223     		movs	r3, #2
 1731              	.L97:
 578:Drivers/STM32F1xx_HAL_Driver/Src/stm32f1xx_hal_dma.c **** 
 1732              		.loc 1 578 5 discriminator 90 view .LVU524
 1733 03ea 534A     		ldr	r2, .L205
 1734 03ec 5360     		str	r3, [r2, #4]
 1735 03ee B4E7     		b	.L96
 1736              	.L158:
 578:Drivers/STM32F1xx_HAL_Driver/Src/stm32f1xx_hal_dma.c **** 
 1737              		.loc 1 578 5 discriminator 50 view .LVU525
 1738 03f0 2023     		movs	r3, #32
 1739 03f2 FAE7     		b	.L97
 1740              	.L159:
 578:Drivers/STM32F1xx_HAL_Driver/Src/stm32f1xx_hal_dma.c **** 
 1741              		.loc 1 578 5 discriminator 52 view .LVU526
 1742 03f4 4FF40073 		mov	r3, #512
 1743 03f8 F7E7     		b	.L97
 1744              	.L160:
 578:Drivers/STM32F1xx_HAL_Driver/Src/stm32f1xx_hal_dma.c **** 
 1745              		.loc 1 578 5 discriminator 54 view .LVU527
 1746 03fa 4FF40053 		mov	r3, #8192
 1747 03fe F4E7     		b	.L97
 1748              	.L161:
 578:Drivers/STM32F1xx_HAL_Driver/Src/stm32f1xx_hal_dma.c **** 
 1749              		.loc 1 578 5 discriminator 56 view .LVU528
 1750 0400 4FF40033 		mov	r3, #131072
 1751 0404 F1E7     		b	.L97
 1752              	.L162:
 578:Drivers/STM32F1xx_HAL_Driver/Src/stm32f1xx_hal_dma.c **** 
 1753              		.loc 1 578 5 discriminator 58 view .LVU529
 1754 0406 4FF40013 		mov	r3, #2097152
 1755 040a EEE7     		b	.L97
ARM GAS  /tmp//cc32eCGN.s 			page 56


 1756              	.L163:
 578:Drivers/STM32F1xx_HAL_Driver/Src/stm32f1xx_hal_dma.c **** 
 1757              		.loc 1 578 5 discriminator 60 view .LVU530
 1758 040c 4FF00073 		mov	r3, #33554432
 1759 0410 EBE7     		b	.L97
 1760              	.L164:
 578:Drivers/STM32F1xx_HAL_Driver/Src/stm32f1xx_hal_dma.c **** 
 1761              		.loc 1 578 5 discriminator 62 view .LVU531
 1762 0412 0223     		movs	r3, #2
 1763 0414 E9E7     		b	.L97
 1764              	.L165:
 578:Drivers/STM32F1xx_HAL_Driver/Src/stm32f1xx_hal_dma.c **** 
 1765              		.loc 1 578 5 discriminator 64 view .LVU532
 1766 0416 2023     		movs	r3, #32
 1767 0418 E7E7     		b	.L97
 1768              	.L166:
 578:Drivers/STM32F1xx_HAL_Driver/Src/stm32f1xx_hal_dma.c **** 
 1769              		.loc 1 578 5 discriminator 66 view .LVU533
 1770 041a 4FF40073 		mov	r3, #512
 1771 041e E4E7     		b	.L97
 1772              	.L93:
 587:Drivers/STM32F1xx_HAL_Driver/Src/stm32f1xx_hal_dma.c ****   }
 1773              		.loc 1 587 5 is_stmt 1 view .LVU534
 1774 0420 464B     		ldr	r3, .L205+4
 1775 0422 9A42     		cmp	r2, r3
 1776 0424 43D9     		bls	.L99
 587:Drivers/STM32F1xx_HAL_Driver/Src/stm32f1xx_hal_dma.c ****   }
 1777              		.loc 1 587 5 is_stmt 0 discriminator 1 view .LVU535
 1778 0426 783B     		subs	r3, r3, #120
 1779 0428 9A42     		cmp	r2, r3
 1780 042a 24D0     		beq	.L168
 587:Drivers/STM32F1xx_HAL_Driver/Src/stm32f1xx_hal_dma.c ****   }
 1781              		.loc 1 587 5 discriminator 3 view .LVU536
 1782 042c 1433     		adds	r3, r3, #20
 1783 042e 9A42     		cmp	r2, r3
 1784 0430 25D0     		beq	.L169
 587:Drivers/STM32F1xx_HAL_Driver/Src/stm32f1xx_hal_dma.c ****   }
 1785              		.loc 1 587 5 discriminator 5 view .LVU537
 1786 0432 1433     		adds	r3, r3, #20
 1787 0434 9A42     		cmp	r2, r3
 1788 0436 24D0     		beq	.L170
 587:Drivers/STM32F1xx_HAL_Driver/Src/stm32f1xx_hal_dma.c ****   }
 1789              		.loc 1 587 5 discriminator 7 view .LVU538
 1790 0438 1433     		adds	r3, r3, #20
 1791 043a 9A42     		cmp	r2, r3
 1792 043c 24D0     		beq	.L171
 587:Drivers/STM32F1xx_HAL_Driver/Src/stm32f1xx_hal_dma.c ****   }
 1793              		.loc 1 587 5 discriminator 9 view .LVU539
 1794 043e 1433     		adds	r3, r3, #20
 1795 0440 9A42     		cmp	r2, r3
 1796 0442 24D0     		beq	.L172
 587:Drivers/STM32F1xx_HAL_Driver/Src/stm32f1xx_hal_dma.c ****   }
 1797              		.loc 1 587 5 discriminator 11 view .LVU540
 1798 0444 1433     		adds	r3, r3, #20
 1799 0446 9A42     		cmp	r2, r3
 1800 0448 24D0     		beq	.L173
 587:Drivers/STM32F1xx_HAL_Driver/Src/stm32f1xx_hal_dma.c ****   }
ARM GAS  /tmp//cc32eCGN.s 			page 57


 1801              		.loc 1 587 5 discriminator 13 view .LVU541
 1802 044a 1433     		adds	r3, r3, #20
 1803 044c 9A42     		cmp	r2, r3
 1804 044e 24D0     		beq	.L174
 587:Drivers/STM32F1xx_HAL_Driver/Src/stm32f1xx_hal_dma.c ****   }
 1805              		.loc 1 587 5 discriminator 15 view .LVU542
 1806 0450 03F56273 		add	r3, r3, #904
 1807 0454 9A42     		cmp	r2, r3
 1808 0456 23D0     		beq	.L175
 587:Drivers/STM32F1xx_HAL_Driver/Src/stm32f1xx_hal_dma.c ****   }
 1809              		.loc 1 587 5 discriminator 17 view .LVU543
 1810 0458 1433     		adds	r3, r3, #20
 1811 045a 9A42     		cmp	r2, r3
 1812 045c 22D0     		beq	.L176
 587:Drivers/STM32F1xx_HAL_Driver/Src/stm32f1xx_hal_dma.c ****   }
 1813              		.loc 1 587 5 discriminator 19 view .LVU544
 1814 045e 1433     		adds	r3, r3, #20
 1815 0460 9A42     		cmp	r2, r3
 1816 0462 21D0     		beq	.L177
 587:Drivers/STM32F1xx_HAL_Driver/Src/stm32f1xx_hal_dma.c ****   }
 1817              		.loc 1 587 5 discriminator 21 view .LVU545
 1818 0464 1433     		adds	r3, r3, #20
 1819 0466 9A42     		cmp	r2, r3
 1820 0468 02D0     		beq	.L201
 587:Drivers/STM32F1xx_HAL_Driver/Src/stm32f1xx_hal_dma.c ****   }
 1821              		.loc 1 587 5 discriminator 24 view .LVU546
 1822 046a 4FF48023 		mov	r3, #262144
 1823 046e 03E0     		b	.L100
 1824              	.L201:
 587:Drivers/STM32F1xx_HAL_Driver/Src/stm32f1xx_hal_dma.c ****   }
 1825              		.loc 1 587 5 discriminator 23 view .LVU547
 1826 0470 4FF48043 		mov	r3, #16384
 1827 0474 00E0     		b	.L100
 1828              	.L168:
 587:Drivers/STM32F1xx_HAL_Driver/Src/stm32f1xx_hal_dma.c ****   }
 1829              		.loc 1 587 5 discriminator 4 view .LVU548
 1830 0476 0423     		movs	r3, #4
 1831              	.L100:
 587:Drivers/STM32F1xx_HAL_Driver/Src/stm32f1xx_hal_dma.c ****   }
 1832              		.loc 1 587 5 discriminator 46 view .LVU549
 1833 0478 314A     		ldr	r2, .L205+8
 1834 047a 5360     		str	r3, [r2, #4]
 1835 047c 70E7     		b	.L98
 1836              	.L169:
 587:Drivers/STM32F1xx_HAL_Driver/Src/stm32f1xx_hal_dma.c ****   }
 1837              		.loc 1 587 5 discriminator 6 view .LVU550
 1838 047e 4023     		movs	r3, #64
 1839 0480 FAE7     		b	.L100
 1840              	.L170:
 587:Drivers/STM32F1xx_HAL_Driver/Src/stm32f1xx_hal_dma.c ****   }
 1841              		.loc 1 587 5 discriminator 8 view .LVU551
 1842 0482 4FF48063 		mov	r3, #1024
 1843 0486 F7E7     		b	.L100
 1844              	.L171:
 587:Drivers/STM32F1xx_HAL_Driver/Src/stm32f1xx_hal_dma.c ****   }
 1845              		.loc 1 587 5 discriminator 10 view .LVU552
 1846 0488 4FF48043 		mov	r3, #16384
ARM GAS  /tmp//cc32eCGN.s 			page 58


 1847 048c F4E7     		b	.L100
 1848              	.L172:
 587:Drivers/STM32F1xx_HAL_Driver/Src/stm32f1xx_hal_dma.c ****   }
 1849              		.loc 1 587 5 discriminator 12 view .LVU553
 1850 048e 4FF48023 		mov	r3, #262144
 1851 0492 F1E7     		b	.L100
 1852              	.L173:
 587:Drivers/STM32F1xx_HAL_Driver/Src/stm32f1xx_hal_dma.c ****   }
 1853              		.loc 1 587 5 discriminator 14 view .LVU554
 1854 0494 4FF48003 		mov	r3, #4194304
 1855 0498 EEE7     		b	.L100
 1856              	.L174:
 587:Drivers/STM32F1xx_HAL_Driver/Src/stm32f1xx_hal_dma.c ****   }
 1857              		.loc 1 587 5 discriminator 16 view .LVU555
 1858 049a 4FF08063 		mov	r3, #67108864
 1859 049e EBE7     		b	.L100
 1860              	.L175:
 587:Drivers/STM32F1xx_HAL_Driver/Src/stm32f1xx_hal_dma.c ****   }
 1861              		.loc 1 587 5 discriminator 18 view .LVU556
 1862 04a0 0423     		movs	r3, #4
 1863 04a2 E9E7     		b	.L100
 1864              	.L176:
 587:Drivers/STM32F1xx_HAL_Driver/Src/stm32f1xx_hal_dma.c ****   }
 1865              		.loc 1 587 5 discriminator 20 view .LVU557
 1866 04a4 4023     		movs	r3, #64
 1867 04a6 E7E7     		b	.L100
 1868              	.L177:
 587:Drivers/STM32F1xx_HAL_Driver/Src/stm32f1xx_hal_dma.c ****   }
 1869              		.loc 1 587 5 discriminator 22 view .LVU558
 1870 04a8 4FF48063 		mov	r3, #1024
 1871 04ac E4E7     		b	.L100
 1872              	.L99:
 587:Drivers/STM32F1xx_HAL_Driver/Src/stm32f1xx_hal_dma.c ****   }
 1873              		.loc 1 587 5 discriminator 2 view .LVU559
 1874 04ae 254B     		ldr	r3, .L205+12
 1875 04b0 9A42     		cmp	r2, r3
 1876 04b2 24D0     		beq	.L179
 587:Drivers/STM32F1xx_HAL_Driver/Src/stm32f1xx_hal_dma.c ****   }
 1877              		.loc 1 587 5 discriminator 47 view .LVU560
 1878 04b4 1433     		adds	r3, r3, #20
 1879 04b6 9A42     		cmp	r2, r3
 1880 04b8 25D0     		beq	.L180
 587:Drivers/STM32F1xx_HAL_Driver/Src/stm32f1xx_hal_dma.c ****   }
 1881              		.loc 1 587 5 discriminator 49 view .LVU561
 1882 04ba 1433     		adds	r3, r3, #20
 1883 04bc 9A42     		cmp	r2, r3
 1884 04be 24D0     		beq	.L181
 587:Drivers/STM32F1xx_HAL_Driver/Src/stm32f1xx_hal_dma.c ****   }
 1885              		.loc 1 587 5 discriminator 51 view .LVU562
 1886 04c0 1433     		adds	r3, r3, #20
 1887 04c2 9A42     		cmp	r2, r3
 1888 04c4 24D0     		beq	.L182
 587:Drivers/STM32F1xx_HAL_Driver/Src/stm32f1xx_hal_dma.c ****   }
 1889              		.loc 1 587 5 discriminator 53 view .LVU563
 1890 04c6 1433     		adds	r3, r3, #20
 1891 04c8 9A42     		cmp	r2, r3
 1892 04ca 24D0     		beq	.L183
ARM GAS  /tmp//cc32eCGN.s 			page 59


 587:Drivers/STM32F1xx_HAL_Driver/Src/stm32f1xx_hal_dma.c ****   }
 1893              		.loc 1 587 5 discriminator 55 view .LVU564
 1894 04cc 1433     		adds	r3, r3, #20
 1895 04ce 9A42     		cmp	r2, r3
 1896 04d0 24D0     		beq	.L184
 587:Drivers/STM32F1xx_HAL_Driver/Src/stm32f1xx_hal_dma.c ****   }
 1897              		.loc 1 587 5 discriminator 57 view .LVU565
 1898 04d2 1433     		adds	r3, r3, #20
 1899 04d4 9A42     		cmp	r2, r3
 1900 04d6 24D0     		beq	.L185
 587:Drivers/STM32F1xx_HAL_Driver/Src/stm32f1xx_hal_dma.c ****   }
 1901              		.loc 1 587 5 discriminator 59 view .LVU566
 1902 04d8 03F56273 		add	r3, r3, #904
 1903 04dc 9A42     		cmp	r2, r3
 1904 04de 23D0     		beq	.L186
 587:Drivers/STM32F1xx_HAL_Driver/Src/stm32f1xx_hal_dma.c ****   }
 1905              		.loc 1 587 5 discriminator 61 view .LVU567
 1906 04e0 1433     		adds	r3, r3, #20
 1907 04e2 9A42     		cmp	r2, r3
 1908 04e4 22D0     		beq	.L187
 587:Drivers/STM32F1xx_HAL_Driver/Src/stm32f1xx_hal_dma.c ****   }
 1909              		.loc 1 587 5 discriminator 63 view .LVU568
 1910 04e6 1433     		adds	r3, r3, #20
 1911 04e8 9A42     		cmp	r2, r3
 1912 04ea 21D0     		beq	.L188
 587:Drivers/STM32F1xx_HAL_Driver/Src/stm32f1xx_hal_dma.c ****   }
 1913              		.loc 1 587 5 discriminator 65 view .LVU569
 1914 04ec 1433     		adds	r3, r3, #20
 1915 04ee 9A42     		cmp	r2, r3
 1916 04f0 02D0     		beq	.L202
 587:Drivers/STM32F1xx_HAL_Driver/Src/stm32f1xx_hal_dma.c ****   }
 1917              		.loc 1 587 5 discriminator 68 view .LVU570
 1918 04f2 4FF48023 		mov	r3, #262144
 1919 04f6 03E0     		b	.L101
 1920              	.L202:
 587:Drivers/STM32F1xx_HAL_Driver/Src/stm32f1xx_hal_dma.c ****   }
 1921              		.loc 1 587 5 discriminator 67 view .LVU571
 1922 04f8 4FF48043 		mov	r3, #16384
 1923 04fc 00E0     		b	.L101
 1924              	.L179:
 587:Drivers/STM32F1xx_HAL_Driver/Src/stm32f1xx_hal_dma.c ****   }
 1925              		.loc 1 587 5 discriminator 48 view .LVU572
 1926 04fe 0423     		movs	r3, #4
 1927              	.L101:
 587:Drivers/STM32F1xx_HAL_Driver/Src/stm32f1xx_hal_dma.c ****   }
 1928              		.loc 1 587 5 discriminator 90 view .LVU573
 1929 0500 0D4A     		ldr	r2, .L205
 1930 0502 5360     		str	r3, [r2, #4]
 1931 0504 2CE7     		b	.L98
 1932              	.L180:
 587:Drivers/STM32F1xx_HAL_Driver/Src/stm32f1xx_hal_dma.c ****   }
 1933              		.loc 1 587 5 discriminator 50 view .LVU574
 1934 0506 4023     		movs	r3, #64
 1935 0508 FAE7     		b	.L101
 1936              	.L181:
 587:Drivers/STM32F1xx_HAL_Driver/Src/stm32f1xx_hal_dma.c ****   }
 1937              		.loc 1 587 5 discriminator 52 view .LVU575
ARM GAS  /tmp//cc32eCGN.s 			page 60


 1938 050a 4FF48063 		mov	r3, #1024
 1939 050e F7E7     		b	.L101
 1940              	.L182:
 587:Drivers/STM32F1xx_HAL_Driver/Src/stm32f1xx_hal_dma.c ****   }
 1941              		.loc 1 587 5 discriminator 54 view .LVU576
 1942 0510 4FF48043 		mov	r3, #16384
 1943 0514 F4E7     		b	.L101
 1944              	.L183:
 587:Drivers/STM32F1xx_HAL_Driver/Src/stm32f1xx_hal_dma.c ****   }
 1945              		.loc 1 587 5 discriminator 56 view .LVU577
 1946 0516 4FF48023 		mov	r3, #262144
 1947 051a F1E7     		b	.L101
 1948              	.L184:
 587:Drivers/STM32F1xx_HAL_Driver/Src/stm32f1xx_hal_dma.c ****   }
 1949              		.loc 1 587 5 discriminator 58 view .LVU578
 1950 051c 4FF48003 		mov	r3, #4194304
 1951 0520 EEE7     		b	.L101
 1952              	.L185:
 587:Drivers/STM32F1xx_HAL_Driver/Src/stm32f1xx_hal_dma.c ****   }
 1953              		.loc 1 587 5 discriminator 60 view .LVU579
 1954 0522 4FF08063 		mov	r3, #67108864
 1955 0526 EBE7     		b	.L101
 1956              	.L186:
 587:Drivers/STM32F1xx_HAL_Driver/Src/stm32f1xx_hal_dma.c ****   }
 1957              		.loc 1 587 5 discriminator 62 view .LVU580
 1958 0528 0423     		movs	r3, #4
 1959 052a E9E7     		b	.L101
 1960              	.L187:
 587:Drivers/STM32F1xx_HAL_Driver/Src/stm32f1xx_hal_dma.c ****   }
 1961              		.loc 1 587 5 discriminator 64 view .LVU581
 1962 052c 4023     		movs	r3, #64
 1963 052e E7E7     		b	.L101
 1964              	.L188:
 587:Drivers/STM32F1xx_HAL_Driver/Src/stm32f1xx_hal_dma.c ****   }
 1965              		.loc 1 587 5 discriminator 66 view .LVU582
 1966 0530 4FF48063 		mov	r3, #1024
 1967 0534 E4E7     		b	.L101
 1968              	.L206:
 1969 0536 00BF     		.align	2
 1970              	.L205:
 1971 0538 00000240 		.word	1073872896
 1972 053c 80000240 		.word	1073873024
 1973 0540 00040240 		.word	1073873920
 1974 0544 08000240 		.word	1073872904
 1975              		.cfi_endproc
 1976              	.LFE71:
 1978              		.section	.text.HAL_DMA_IRQHandler,"ax",%progbits
 1979              		.align	1
 1980              		.global	HAL_DMA_IRQHandler
 1981              		.syntax unified
 1982              		.thumb
 1983              		.thumb_func
 1985              	HAL_DMA_IRQHandler:
 1986              	.LVL63:
 1987              	.LFB72:
 603:Drivers/STM32F1xx_HAL_Driver/Src/stm32f1xx_hal_dma.c ****   uint32_t flag_it = hdma->DmaBaseAddress->ISR;
 1988              		.loc 1 603 1 is_stmt 1 view -0
ARM GAS  /tmp//cc32eCGN.s 			page 61


 1989              		.cfi_startproc
 1990              		@ args = 0, pretend = 0, frame = 0
 1991              		@ frame_needed = 0, uses_anonymous_args = 0
 603:Drivers/STM32F1xx_HAL_Driver/Src/stm32f1xx_hal_dma.c ****   uint32_t flag_it = hdma->DmaBaseAddress->ISR;
 1992              		.loc 1 603 1 is_stmt 0 view .LVU584
 1993 0000 38B5     		push	{r3, r4, r5, lr}
 1994              	.LCFI11:
 1995              		.cfi_def_cfa_offset 16
 1996              		.cfi_offset 3, -16
 1997              		.cfi_offset 4, -12
 1998              		.cfi_offset 5, -8
 1999              		.cfi_offset 14, -4
 604:Drivers/STM32F1xx_HAL_Driver/Src/stm32f1xx_hal_dma.c ****   uint32_t source_it = hdma->Instance->CCR;
 2000              		.loc 1 604 3 is_stmt 1 view .LVU585
 604:Drivers/STM32F1xx_HAL_Driver/Src/stm32f1xx_hal_dma.c ****   uint32_t source_it = hdma->Instance->CCR;
 2001              		.loc 1 604 26 is_stmt 0 view .LVU586
 2002 0002 C36B     		ldr	r3, [r0, #60]
 604:Drivers/STM32F1xx_HAL_Driver/Src/stm32f1xx_hal_dma.c ****   uint32_t source_it = hdma->Instance->CCR;
 2003              		.loc 1 604 12 view .LVU587
 2004 0004 1A68     		ldr	r2, [r3]
 2005              	.LVL64:
 605:Drivers/STM32F1xx_HAL_Driver/Src/stm32f1xx_hal_dma.c ****   
 2006              		.loc 1 605 3 is_stmt 1 view .LVU588
 605:Drivers/STM32F1xx_HAL_Driver/Src/stm32f1xx_hal_dma.c ****   
 2007              		.loc 1 605 28 is_stmt 0 view .LVU589
 2008 0006 0468     		ldr	r4, [r0]
 605:Drivers/STM32F1xx_HAL_Driver/Src/stm32f1xx_hal_dma.c ****   
 2009              		.loc 1 605 12 view .LVU590
 2010 0008 2568     		ldr	r5, [r4]
 2011              	.LVL65:
 608:Drivers/STM32F1xx_HAL_Driver/Src/stm32f1xx_hal_dma.c ****   {
 2012              		.loc 1 608 3 is_stmt 1 view .LVU591
 608:Drivers/STM32F1xx_HAL_Driver/Src/stm32f1xx_hal_dma.c ****   {
 2013              		.loc 1 608 40 is_stmt 0 view .LVU592
 2014 000a 016C     		ldr	r1, [r0, #64]
 608:Drivers/STM32F1xx_HAL_Driver/Src/stm32f1xx_hal_dma.c ****   {
 2015              		.loc 1 608 33 view .LVU593
 2016 000c 0423     		movs	r3, #4
 2017 000e 8B40     		lsls	r3, r3, r1
 608:Drivers/STM32F1xx_HAL_Driver/Src/stm32f1xx_hal_dma.c ****   {
 2018              		.loc 1 608 6 view .LVU594
 2019 0010 1342     		tst	r3, r2
 2020 0012 00F09B80 		beq	.L208
 608:Drivers/STM32F1xx_HAL_Driver/Src/stm32f1xx_hal_dma.c ****   {
 2021              		.loc 1 608 67 discriminator 1 view .LVU595
 2022 0016 15F0040F 		tst	r5, #4
 2023 001a 00F09780 		beq	.L208
 611:Drivers/STM32F1xx_HAL_Driver/Src/stm32f1xx_hal_dma.c ****     {
 2024              		.loc 1 611 5 is_stmt 1 view .LVU596
 611:Drivers/STM32F1xx_HAL_Driver/Src/stm32f1xx_hal_dma.c ****     {
 2025              		.loc 1 611 23 is_stmt 0 view .LVU597
 2026 001e 2368     		ldr	r3, [r4]
 611:Drivers/STM32F1xx_HAL_Driver/Src/stm32f1xx_hal_dma.c ****     {
 2027              		.loc 1 611 7 view .LVU598
 2028 0020 13F0200F 		tst	r3, #32
 2029 0024 03D1     		bne	.L209
 614:Drivers/STM32F1xx_HAL_Driver/Src/stm32f1xx_hal_dma.c ****     }
ARM GAS  /tmp//cc32eCGN.s 			page 62


 2030              		.loc 1 614 7 is_stmt 1 view .LVU599
 2031 0026 2368     		ldr	r3, [r4]
 2032 0028 23F00403 		bic	r3, r3, #4
 2033 002c 2360     		str	r3, [r4]
 2034              	.L209:
 617:Drivers/STM32F1xx_HAL_Driver/Src/stm32f1xx_hal_dma.c **** 
 2035              		.loc 1 617 5 view .LVU600
 2036 002e 0368     		ldr	r3, [r0]
 2037 0030 9A4A     		ldr	r2, .L270
 2038              	.LVL66:
 617:Drivers/STM32F1xx_HAL_Driver/Src/stm32f1xx_hal_dma.c **** 
 2039              		.loc 1 617 5 is_stmt 0 view .LVU601
 2040 0032 9342     		cmp	r3, r2
 2041 0034 46D9     		bls	.L210
 617:Drivers/STM32F1xx_HAL_Driver/Src/stm32f1xx_hal_dma.c **** 
 2042              		.loc 1 617 5 discriminator 1 view .LVU602
 2043 0036 783A     		subs	r2, r2, #120
 2044 0038 9342     		cmp	r3, r2
 2045 003a 24D0     		beq	.L221
 617:Drivers/STM32F1xx_HAL_Driver/Src/stm32f1xx_hal_dma.c **** 
 2046              		.loc 1 617 5 discriminator 3 view .LVU603
 2047 003c 1432     		adds	r2, r2, #20
 2048 003e 9342     		cmp	r3, r2
 2049 0040 28D0     		beq	.L222
 617:Drivers/STM32F1xx_HAL_Driver/Src/stm32f1xx_hal_dma.c **** 
 2050              		.loc 1 617 5 discriminator 5 view .LVU604
 2051 0042 1432     		adds	r2, r2, #20
 2052 0044 9342     		cmp	r3, r2
 2053 0046 27D0     		beq	.L223
 617:Drivers/STM32F1xx_HAL_Driver/Src/stm32f1xx_hal_dma.c **** 
 2054              		.loc 1 617 5 discriminator 7 view .LVU605
 2055 0048 1432     		adds	r2, r2, #20
 2056 004a 9342     		cmp	r3, r2
 2057 004c 27D0     		beq	.L224
 617:Drivers/STM32F1xx_HAL_Driver/Src/stm32f1xx_hal_dma.c **** 
 2058              		.loc 1 617 5 discriminator 9 view .LVU606
 2059 004e 1432     		adds	r2, r2, #20
 2060 0050 9342     		cmp	r3, r2
 2061 0052 27D0     		beq	.L225
 617:Drivers/STM32F1xx_HAL_Driver/Src/stm32f1xx_hal_dma.c **** 
 2062              		.loc 1 617 5 discriminator 11 view .LVU607
 2063 0054 1432     		adds	r2, r2, #20
 2064 0056 9342     		cmp	r3, r2
 2065 0058 27D0     		beq	.L226
 617:Drivers/STM32F1xx_HAL_Driver/Src/stm32f1xx_hal_dma.c **** 
 2066              		.loc 1 617 5 discriminator 13 view .LVU608
 2067 005a 1432     		adds	r2, r2, #20
 2068 005c 9342     		cmp	r3, r2
 2069 005e 27D0     		beq	.L227
 617:Drivers/STM32F1xx_HAL_Driver/Src/stm32f1xx_hal_dma.c **** 
 2070              		.loc 1 617 5 discriminator 15 view .LVU609
 2071 0060 02F56272 		add	r2, r2, #904
 2072 0064 9342     		cmp	r3, r2
 2073 0066 26D0     		beq	.L228
 617:Drivers/STM32F1xx_HAL_Driver/Src/stm32f1xx_hal_dma.c **** 
 2074              		.loc 1 617 5 discriminator 17 view .LVU610
 2075 0068 1432     		adds	r2, r2, #20
ARM GAS  /tmp//cc32eCGN.s 			page 63


 2076 006a 9342     		cmp	r3, r2
 2077 006c 25D0     		beq	.L229
 617:Drivers/STM32F1xx_HAL_Driver/Src/stm32f1xx_hal_dma.c **** 
 2078              		.loc 1 617 5 discriminator 19 view .LVU611
 2079 006e 1432     		adds	r2, r2, #20
 2080 0070 9342     		cmp	r3, r2
 2081 0072 24D0     		beq	.L230
 617:Drivers/STM32F1xx_HAL_Driver/Src/stm32f1xx_hal_dma.c **** 
 2082              		.loc 1 617 5 discriminator 21 view .LVU612
 2083 0074 1432     		adds	r2, r2, #20
 2084 0076 9342     		cmp	r3, r2
 2085 0078 02D0     		beq	.L266
 617:Drivers/STM32F1xx_HAL_Driver/Src/stm32f1xx_hal_dma.c **** 
 2086              		.loc 1 617 5 discriminator 24 view .LVU613
 2087 007a 4FF48022 		mov	r2, #262144
 2088 007e 03E0     		b	.L211
 2089              	.L266:
 617:Drivers/STM32F1xx_HAL_Driver/Src/stm32f1xx_hal_dma.c **** 
 2090              		.loc 1 617 5 discriminator 23 view .LVU614
 2091 0080 4FF48042 		mov	r2, #16384
 2092 0084 00E0     		b	.L211
 2093              	.L221:
 617:Drivers/STM32F1xx_HAL_Driver/Src/stm32f1xx_hal_dma.c **** 
 2094              		.loc 1 617 5 discriminator 4 view .LVU615
 2095 0086 0422     		movs	r2, #4
 2096              	.L211:
 617:Drivers/STM32F1xx_HAL_Driver/Src/stm32f1xx_hal_dma.c **** 
 2097              		.loc 1 617 5 discriminator 46 view .LVU616
 2098 0088 854B     		ldr	r3, .L270+4
 2099 008a 5A60     		str	r2, [r3, #4]
 2100              	.L212:
 622:Drivers/STM32F1xx_HAL_Driver/Src/stm32f1xx_hal_dma.c ****     {
 2101              		.loc 1 622 5 is_stmt 1 view .LVU617
 622:Drivers/STM32F1xx_HAL_Driver/Src/stm32f1xx_hal_dma.c ****     {
 2102              		.loc 1 622 12 is_stmt 0 view .LVU618
 2103 008c C36A     		ldr	r3, [r0, #44]
 622:Drivers/STM32F1xx_HAL_Driver/Src/stm32f1xx_hal_dma.c ****     {
 2104              		.loc 1 622 7 view .LVU619
 2105 008e 03B1     		cbz	r3, .L207
 625:Drivers/STM32F1xx_HAL_Driver/Src/stm32f1xx_hal_dma.c ****     }
 2106              		.loc 1 625 7 is_stmt 1 view .LVU620
 2107 0090 9847     		blx	r3
 2108              	.LVL67:
 2109              	.L207:
 680:Drivers/STM32F1xx_HAL_Driver/Src/stm32f1xx_hal_dma.c **** 
 2110              		.loc 1 680 1 is_stmt 0 view .LVU621
 2111 0092 38BD     		pop	{r3, r4, r5, pc}
 2112              	.LVL68:
 2113              	.L222:
 617:Drivers/STM32F1xx_HAL_Driver/Src/stm32f1xx_hal_dma.c **** 
 2114              		.loc 1 617 5 discriminator 6 view .LVU622
 2115 0094 4022     		movs	r2, #64
 2116 0096 F7E7     		b	.L211
 2117              	.L223:
 617:Drivers/STM32F1xx_HAL_Driver/Src/stm32f1xx_hal_dma.c **** 
 2118              		.loc 1 617 5 discriminator 8 view .LVU623
 2119 0098 4FF48062 		mov	r2, #1024
ARM GAS  /tmp//cc32eCGN.s 			page 64


 2120 009c F4E7     		b	.L211
 2121              	.L224:
 617:Drivers/STM32F1xx_HAL_Driver/Src/stm32f1xx_hal_dma.c **** 
 2122              		.loc 1 617 5 discriminator 10 view .LVU624
 2123 009e 4FF48042 		mov	r2, #16384
 2124 00a2 F1E7     		b	.L211
 2125              	.L225:
 617:Drivers/STM32F1xx_HAL_Driver/Src/stm32f1xx_hal_dma.c **** 
 2126              		.loc 1 617 5 discriminator 12 view .LVU625
 2127 00a4 4FF48022 		mov	r2, #262144
 2128 00a8 EEE7     		b	.L211
 2129              	.L226:
 617:Drivers/STM32F1xx_HAL_Driver/Src/stm32f1xx_hal_dma.c **** 
 2130              		.loc 1 617 5 discriminator 14 view .LVU626
 2131 00aa 4FF48002 		mov	r2, #4194304
 2132 00ae EBE7     		b	.L211
 2133              	.L227:
 617:Drivers/STM32F1xx_HAL_Driver/Src/stm32f1xx_hal_dma.c **** 
 2134              		.loc 1 617 5 discriminator 16 view .LVU627
 2135 00b0 4FF08062 		mov	r2, #67108864
 2136 00b4 E8E7     		b	.L211
 2137              	.L228:
 617:Drivers/STM32F1xx_HAL_Driver/Src/stm32f1xx_hal_dma.c **** 
 2138              		.loc 1 617 5 discriminator 18 view .LVU628
 2139 00b6 0422     		movs	r2, #4
 2140 00b8 E6E7     		b	.L211
 2141              	.L229:
 617:Drivers/STM32F1xx_HAL_Driver/Src/stm32f1xx_hal_dma.c **** 
 2142              		.loc 1 617 5 discriminator 20 view .LVU629
 2143 00ba 4022     		movs	r2, #64
 2144 00bc E4E7     		b	.L211
 2145              	.L230:
 617:Drivers/STM32F1xx_HAL_Driver/Src/stm32f1xx_hal_dma.c **** 
 2146              		.loc 1 617 5 discriminator 22 view .LVU630
 2147 00be 4FF48062 		mov	r2, #1024
 2148 00c2 E1E7     		b	.L211
 2149              	.L210:
 617:Drivers/STM32F1xx_HAL_Driver/Src/stm32f1xx_hal_dma.c **** 
 2150              		.loc 1 617 5 discriminator 2 view .LVU631
 2151 00c4 774A     		ldr	r2, .L270+8
 2152 00c6 9342     		cmp	r3, r2
 2153 00c8 24D0     		beq	.L232
 617:Drivers/STM32F1xx_HAL_Driver/Src/stm32f1xx_hal_dma.c **** 
 2154              		.loc 1 617 5 discriminator 47 view .LVU632
 2155 00ca 1432     		adds	r2, r2, #20
 2156 00cc 9342     		cmp	r3, r2
 2157 00ce 25D0     		beq	.L233
 617:Drivers/STM32F1xx_HAL_Driver/Src/stm32f1xx_hal_dma.c **** 
 2158              		.loc 1 617 5 discriminator 49 view .LVU633
 2159 00d0 1432     		adds	r2, r2, #20
 2160 00d2 9342     		cmp	r3, r2
 2161 00d4 24D0     		beq	.L234
 617:Drivers/STM32F1xx_HAL_Driver/Src/stm32f1xx_hal_dma.c **** 
 2162              		.loc 1 617 5 discriminator 51 view .LVU634
 2163 00d6 1432     		adds	r2, r2, #20
 2164 00d8 9342     		cmp	r3, r2
 2165 00da 24D0     		beq	.L235
ARM GAS  /tmp//cc32eCGN.s 			page 65


 617:Drivers/STM32F1xx_HAL_Driver/Src/stm32f1xx_hal_dma.c **** 
 2166              		.loc 1 617 5 discriminator 53 view .LVU635
 2167 00dc 1432     		adds	r2, r2, #20
 2168 00de 9342     		cmp	r3, r2
 2169 00e0 24D0     		beq	.L236
 617:Drivers/STM32F1xx_HAL_Driver/Src/stm32f1xx_hal_dma.c **** 
 2170              		.loc 1 617 5 discriminator 55 view .LVU636
 2171 00e2 1432     		adds	r2, r2, #20
 2172 00e4 9342     		cmp	r3, r2
 2173 00e6 24D0     		beq	.L237
 617:Drivers/STM32F1xx_HAL_Driver/Src/stm32f1xx_hal_dma.c **** 
 2174              		.loc 1 617 5 discriminator 57 view .LVU637
 2175 00e8 1432     		adds	r2, r2, #20
 2176 00ea 9342     		cmp	r3, r2
 2177 00ec 24D0     		beq	.L238
 617:Drivers/STM32F1xx_HAL_Driver/Src/stm32f1xx_hal_dma.c **** 
 2178              		.loc 1 617 5 discriminator 59 view .LVU638
 2179 00ee 02F56272 		add	r2, r2, #904
 2180 00f2 9342     		cmp	r3, r2
 2181 00f4 23D0     		beq	.L239
 617:Drivers/STM32F1xx_HAL_Driver/Src/stm32f1xx_hal_dma.c **** 
 2182              		.loc 1 617 5 discriminator 61 view .LVU639
 2183 00f6 1432     		adds	r2, r2, #20
 2184 00f8 9342     		cmp	r3, r2
 2185 00fa 22D0     		beq	.L240
 617:Drivers/STM32F1xx_HAL_Driver/Src/stm32f1xx_hal_dma.c **** 
 2186              		.loc 1 617 5 discriminator 63 view .LVU640
 2187 00fc 1432     		adds	r2, r2, #20
 2188 00fe 9342     		cmp	r3, r2
 2189 0100 21D0     		beq	.L241
 617:Drivers/STM32F1xx_HAL_Driver/Src/stm32f1xx_hal_dma.c **** 
 2190              		.loc 1 617 5 discriminator 65 view .LVU641
 2191 0102 1432     		adds	r2, r2, #20
 2192 0104 9342     		cmp	r3, r2
 2193 0106 02D0     		beq	.L267
 617:Drivers/STM32F1xx_HAL_Driver/Src/stm32f1xx_hal_dma.c **** 
 2194              		.loc 1 617 5 discriminator 68 view .LVU642
 2195 0108 4FF48022 		mov	r2, #262144
 2196 010c 03E0     		b	.L213
 2197              	.L267:
 617:Drivers/STM32F1xx_HAL_Driver/Src/stm32f1xx_hal_dma.c **** 
 2198              		.loc 1 617 5 discriminator 67 view .LVU643
 2199 010e 4FF48042 		mov	r2, #16384
 2200 0112 00E0     		b	.L213
 2201              	.L232:
 617:Drivers/STM32F1xx_HAL_Driver/Src/stm32f1xx_hal_dma.c **** 
 2202              		.loc 1 617 5 discriminator 48 view .LVU644
 2203 0114 0422     		movs	r2, #4
 2204              	.L213:
 617:Drivers/STM32F1xx_HAL_Driver/Src/stm32f1xx_hal_dma.c **** 
 2205              		.loc 1 617 5 discriminator 90 view .LVU645
 2206 0116 644B     		ldr	r3, .L270+12
 2207 0118 5A60     		str	r2, [r3, #4]
 2208 011a B7E7     		b	.L212
 2209              	.L233:
 617:Drivers/STM32F1xx_HAL_Driver/Src/stm32f1xx_hal_dma.c **** 
 2210              		.loc 1 617 5 discriminator 50 view .LVU646
ARM GAS  /tmp//cc32eCGN.s 			page 66


 2211 011c 4022     		movs	r2, #64
 2212 011e FAE7     		b	.L213
 2213              	.L234:
 617:Drivers/STM32F1xx_HAL_Driver/Src/stm32f1xx_hal_dma.c **** 
 2214              		.loc 1 617 5 discriminator 52 view .LVU647
 2215 0120 4FF48062 		mov	r2, #1024
 2216 0124 F7E7     		b	.L213
 2217              	.L235:
 617:Drivers/STM32F1xx_HAL_Driver/Src/stm32f1xx_hal_dma.c **** 
 2218              		.loc 1 617 5 discriminator 54 view .LVU648
 2219 0126 4FF48042 		mov	r2, #16384
 2220 012a F4E7     		b	.L213
 2221              	.L236:
 617:Drivers/STM32F1xx_HAL_Driver/Src/stm32f1xx_hal_dma.c **** 
 2222              		.loc 1 617 5 discriminator 56 view .LVU649
 2223 012c 4FF48022 		mov	r2, #262144
 2224 0130 F1E7     		b	.L213
 2225              	.L237:
 617:Drivers/STM32F1xx_HAL_Driver/Src/stm32f1xx_hal_dma.c **** 
 2226              		.loc 1 617 5 discriminator 58 view .LVU650
 2227 0132 4FF48002 		mov	r2, #4194304
 2228 0136 EEE7     		b	.L213
 2229              	.L238:
 617:Drivers/STM32F1xx_HAL_Driver/Src/stm32f1xx_hal_dma.c **** 
 2230              		.loc 1 617 5 discriminator 60 view .LVU651
 2231 0138 4FF08062 		mov	r2, #67108864
 2232 013c EBE7     		b	.L213
 2233              	.L239:
 617:Drivers/STM32F1xx_HAL_Driver/Src/stm32f1xx_hal_dma.c **** 
 2234              		.loc 1 617 5 discriminator 62 view .LVU652
 2235 013e 0422     		movs	r2, #4
 2236 0140 E9E7     		b	.L213
 2237              	.L240:
 617:Drivers/STM32F1xx_HAL_Driver/Src/stm32f1xx_hal_dma.c **** 
 2238              		.loc 1 617 5 discriminator 64 view .LVU653
 2239 0142 4022     		movs	r2, #64
 2240 0144 E7E7     		b	.L213
 2241              	.L241:
 617:Drivers/STM32F1xx_HAL_Driver/Src/stm32f1xx_hal_dma.c **** 
 2242              		.loc 1 617 5 discriminator 66 view .LVU654
 2243 0146 4FF48062 		mov	r2, #1024
 2244 014a E4E7     		b	.L213
 2245              	.LVL69:
 2246              	.L208:
 630:Drivers/STM32F1xx_HAL_Driver/Src/stm32f1xx_hal_dma.c ****   {
 2247              		.loc 1 630 8 is_stmt 1 view .LVU655
 630:Drivers/STM32F1xx_HAL_Driver/Src/stm32f1xx_hal_dma.c ****   {
 2248              		.loc 1 630 38 is_stmt 0 view .LVU656
 2249 014c 0223     		movs	r3, #2
 2250 014e 8B40     		lsls	r3, r3, r1
 630:Drivers/STM32F1xx_HAL_Driver/Src/stm32f1xx_hal_dma.c ****   {
 2251              		.loc 1 630 11 view .LVU657
 2252 0150 1342     		tst	r3, r2
 2253 0152 00F0AB80 		beq	.L215
 630:Drivers/STM32F1xx_HAL_Driver/Src/stm32f1xx_hal_dma.c ****   {
 2254              		.loc 1 630 72 discriminator 1 view .LVU658
 2255 0156 15F0020F 		tst	r5, #2
ARM GAS  /tmp//cc32eCGN.s 			page 67


 2256 015a 00F0A780 		beq	.L215
 632:Drivers/STM32F1xx_HAL_Driver/Src/stm32f1xx_hal_dma.c ****     {
 2257              		.loc 1 632 5 is_stmt 1 view .LVU659
 632:Drivers/STM32F1xx_HAL_Driver/Src/stm32f1xx_hal_dma.c ****     {
 2258              		.loc 1 632 23 is_stmt 0 view .LVU660
 2259 015e 2368     		ldr	r3, [r4]
 632:Drivers/STM32F1xx_HAL_Driver/Src/stm32f1xx_hal_dma.c ****     {
 2260              		.loc 1 632 7 view .LVU661
 2261 0160 13F0200F 		tst	r3, #32
 2262 0164 06D1     		bne	.L216
 635:Drivers/STM32F1xx_HAL_Driver/Src/stm32f1xx_hal_dma.c **** 
 2263              		.loc 1 635 7 is_stmt 1 view .LVU662
 2264 0166 2368     		ldr	r3, [r4]
 2265 0168 23F00A03 		bic	r3, r3, #10
 2266 016c 2360     		str	r3, [r4]
 638:Drivers/STM32F1xx_HAL_Driver/Src/stm32f1xx_hal_dma.c ****     }
 2267              		.loc 1 638 7 view .LVU663
 638:Drivers/STM32F1xx_HAL_Driver/Src/stm32f1xx_hal_dma.c ****     }
 2268              		.loc 1 638 19 is_stmt 0 view .LVU664
 2269 016e 0123     		movs	r3, #1
 2270 0170 80F82130 		strb	r3, [r0, #33]
 2271              	.L216:
 641:Drivers/STM32F1xx_HAL_Driver/Src/stm32f1xx_hal_dma.c **** 
 2272              		.loc 1 641 7 is_stmt 1 view .LVU665
 2273 0174 0368     		ldr	r3, [r0]
 2274 0176 494A     		ldr	r2, .L270
 2275              	.LVL70:
 641:Drivers/STM32F1xx_HAL_Driver/Src/stm32f1xx_hal_dma.c **** 
 2276              		.loc 1 641 7 is_stmt 0 view .LVU666
 2277 0178 9342     		cmp	r3, r2
 2278 017a 4BD9     		bls	.L217
 641:Drivers/STM32F1xx_HAL_Driver/Src/stm32f1xx_hal_dma.c **** 
 2279              		.loc 1 641 7 discriminator 1 view .LVU667
 2280 017c 783A     		subs	r2, r2, #120
 2281 017e 9342     		cmp	r3, r2
 2282 0180 24D0     		beq	.L243
 641:Drivers/STM32F1xx_HAL_Driver/Src/stm32f1xx_hal_dma.c **** 
 2283              		.loc 1 641 7 discriminator 3 view .LVU668
 2284 0182 1432     		adds	r2, r2, #20
 2285 0184 9342     		cmp	r3, r2
 2286 0186 2DD0     		beq	.L244
 641:Drivers/STM32F1xx_HAL_Driver/Src/stm32f1xx_hal_dma.c **** 
 2287              		.loc 1 641 7 discriminator 5 view .LVU669
 2288 0188 1432     		adds	r2, r2, #20
 2289 018a 9342     		cmp	r3, r2
 2290 018c 2CD0     		beq	.L245
 641:Drivers/STM32F1xx_HAL_Driver/Src/stm32f1xx_hal_dma.c **** 
 2291              		.loc 1 641 7 discriminator 7 view .LVU670
 2292 018e 1432     		adds	r2, r2, #20
 2293 0190 9342     		cmp	r3, r2
 2294 0192 2CD0     		beq	.L246
 641:Drivers/STM32F1xx_HAL_Driver/Src/stm32f1xx_hal_dma.c **** 
 2295              		.loc 1 641 7 discriminator 9 view .LVU671
 2296 0194 1432     		adds	r2, r2, #20
 2297 0196 9342     		cmp	r3, r2
 2298 0198 2CD0     		beq	.L247
 641:Drivers/STM32F1xx_HAL_Driver/Src/stm32f1xx_hal_dma.c **** 
ARM GAS  /tmp//cc32eCGN.s 			page 68


 2299              		.loc 1 641 7 discriminator 11 view .LVU672
 2300 019a 1432     		adds	r2, r2, #20
 2301 019c 9342     		cmp	r3, r2
 2302 019e 2CD0     		beq	.L248
 641:Drivers/STM32F1xx_HAL_Driver/Src/stm32f1xx_hal_dma.c **** 
 2303              		.loc 1 641 7 discriminator 13 view .LVU673
 2304 01a0 1432     		adds	r2, r2, #20
 2305 01a2 9342     		cmp	r3, r2
 2306 01a4 2CD0     		beq	.L249
 641:Drivers/STM32F1xx_HAL_Driver/Src/stm32f1xx_hal_dma.c **** 
 2307              		.loc 1 641 7 discriminator 15 view .LVU674
 2308 01a6 02F56272 		add	r2, r2, #904
 2309 01aa 9342     		cmp	r3, r2
 2310 01ac 2BD0     		beq	.L250
 641:Drivers/STM32F1xx_HAL_Driver/Src/stm32f1xx_hal_dma.c **** 
 2311              		.loc 1 641 7 discriminator 17 view .LVU675
 2312 01ae 1432     		adds	r2, r2, #20
 2313 01b0 9342     		cmp	r3, r2
 2314 01b2 2AD0     		beq	.L251
 641:Drivers/STM32F1xx_HAL_Driver/Src/stm32f1xx_hal_dma.c **** 
 2315              		.loc 1 641 7 discriminator 19 view .LVU676
 2316 01b4 1432     		adds	r2, r2, #20
 2317 01b6 9342     		cmp	r3, r2
 2318 01b8 29D0     		beq	.L252
 641:Drivers/STM32F1xx_HAL_Driver/Src/stm32f1xx_hal_dma.c **** 
 2319              		.loc 1 641 7 discriminator 21 view .LVU677
 2320 01ba 1432     		adds	r2, r2, #20
 2321 01bc 9342     		cmp	r3, r2
 2322 01be 02D0     		beq	.L268
 641:Drivers/STM32F1xx_HAL_Driver/Src/stm32f1xx_hal_dma.c **** 
 2323              		.loc 1 641 7 discriminator 24 view .LVU678
 2324 01c0 4FF40032 		mov	r2, #131072
 2325 01c4 03E0     		b	.L218
 2326              	.L268:
 641:Drivers/STM32F1xx_HAL_Driver/Src/stm32f1xx_hal_dma.c **** 
 2327              		.loc 1 641 7 discriminator 23 view .LVU679
 2328 01c6 4FF40052 		mov	r2, #8192
 2329 01ca 00E0     		b	.L218
 2330              	.L243:
 641:Drivers/STM32F1xx_HAL_Driver/Src/stm32f1xx_hal_dma.c **** 
 2331              		.loc 1 641 7 discriminator 4 view .LVU680
 2332 01cc 0222     		movs	r2, #2
 2333              	.L218:
 641:Drivers/STM32F1xx_HAL_Driver/Src/stm32f1xx_hal_dma.c **** 
 2334              		.loc 1 641 7 discriminator 46 view .LVU681
 2335 01ce 344B     		ldr	r3, .L270+4
 2336 01d0 5A60     		str	r2, [r3, #4]
 2337              	.L219:
 644:Drivers/STM32F1xx_HAL_Driver/Src/stm32f1xx_hal_dma.c **** 
 2338              		.loc 1 644 5 is_stmt 1 view .LVU682
 644:Drivers/STM32F1xx_HAL_Driver/Src/stm32f1xx_hal_dma.c **** 
 2339              		.loc 1 644 5 view .LVU683
 2340 01d2 0023     		movs	r3, #0
 2341 01d4 80F82030 		strb	r3, [r0, #32]
 644:Drivers/STM32F1xx_HAL_Driver/Src/stm32f1xx_hal_dma.c **** 
 2342              		.loc 1 644 5 view .LVU684
 646:Drivers/STM32F1xx_HAL_Driver/Src/stm32f1xx_hal_dma.c ****     {
ARM GAS  /tmp//cc32eCGN.s 			page 69


 2343              		.loc 1 646 5 view .LVU685
 646:Drivers/STM32F1xx_HAL_Driver/Src/stm32f1xx_hal_dma.c ****     {
 2344              		.loc 1 646 12 is_stmt 0 view .LVU686
 2345 01d8 836A     		ldr	r3, [r0, #40]
 646:Drivers/STM32F1xx_HAL_Driver/Src/stm32f1xx_hal_dma.c ****     {
 2346              		.loc 1 646 7 view .LVU687
 2347 01da 002B     		cmp	r3, #0
 2348 01dc 3FF459AF 		beq	.L207
 649:Drivers/STM32F1xx_HAL_Driver/Src/stm32f1xx_hal_dma.c ****     }
 2349              		.loc 1 649 7 is_stmt 1 view .LVU688
 2350 01e0 9847     		blx	r3
 2351              	.LVL71:
 649:Drivers/STM32F1xx_HAL_Driver/Src/stm32f1xx_hal_dma.c ****     }
 2352              		.loc 1 649 7 is_stmt 0 view .LVU689
 2353 01e2 56E7     		b	.L207
 2354              	.LVL72:
 2355              	.L244:
 641:Drivers/STM32F1xx_HAL_Driver/Src/stm32f1xx_hal_dma.c **** 
 2356              		.loc 1 641 7 discriminator 6 view .LVU690
 2357 01e4 2022     		movs	r2, #32
 2358 01e6 F2E7     		b	.L218
 2359              	.L245:
 641:Drivers/STM32F1xx_HAL_Driver/Src/stm32f1xx_hal_dma.c **** 
 2360              		.loc 1 641 7 discriminator 8 view .LVU691
 2361 01e8 4FF40072 		mov	r2, #512
 2362 01ec EFE7     		b	.L218
 2363              	.L246:
 641:Drivers/STM32F1xx_HAL_Driver/Src/stm32f1xx_hal_dma.c **** 
 2364              		.loc 1 641 7 discriminator 10 view .LVU692
 2365 01ee 4FF40052 		mov	r2, #8192
 2366 01f2 ECE7     		b	.L218
 2367              	.L247:
 641:Drivers/STM32F1xx_HAL_Driver/Src/stm32f1xx_hal_dma.c **** 
 2368              		.loc 1 641 7 discriminator 12 view .LVU693
 2369 01f4 4FF40032 		mov	r2, #131072
 2370 01f8 E9E7     		b	.L218
 2371              	.L248:
 641:Drivers/STM32F1xx_HAL_Driver/Src/stm32f1xx_hal_dma.c **** 
 2372              		.loc 1 641 7 discriminator 14 view .LVU694
 2373 01fa 4FF40012 		mov	r2, #2097152
 2374 01fe E6E7     		b	.L218
 2375              	.L249:
 641:Drivers/STM32F1xx_HAL_Driver/Src/stm32f1xx_hal_dma.c **** 
 2376              		.loc 1 641 7 discriminator 16 view .LVU695
 2377 0200 4FF00072 		mov	r2, #33554432
 2378 0204 E3E7     		b	.L218
 2379              	.L250:
 641:Drivers/STM32F1xx_HAL_Driver/Src/stm32f1xx_hal_dma.c **** 
 2380              		.loc 1 641 7 discriminator 18 view .LVU696
 2381 0206 0222     		movs	r2, #2
 2382 0208 E1E7     		b	.L218
 2383              	.L251:
 641:Drivers/STM32F1xx_HAL_Driver/Src/stm32f1xx_hal_dma.c **** 
 2384              		.loc 1 641 7 discriminator 20 view .LVU697
 2385 020a 2022     		movs	r2, #32
 2386 020c DFE7     		b	.L218
 2387              	.L252:
ARM GAS  /tmp//cc32eCGN.s 			page 70


 641:Drivers/STM32F1xx_HAL_Driver/Src/stm32f1xx_hal_dma.c **** 
 2388              		.loc 1 641 7 discriminator 22 view .LVU698
 2389 020e 4FF40072 		mov	r2, #512
 2390 0212 DCE7     		b	.L218
 2391              	.L217:
 641:Drivers/STM32F1xx_HAL_Driver/Src/stm32f1xx_hal_dma.c **** 
 2392              		.loc 1 641 7 discriminator 2 view .LVU699
 2393 0214 234A     		ldr	r2, .L270+8
 2394 0216 9342     		cmp	r3, r2
 2395 0218 24D0     		beq	.L254
 641:Drivers/STM32F1xx_HAL_Driver/Src/stm32f1xx_hal_dma.c **** 
 2396              		.loc 1 641 7 discriminator 47 view .LVU700
 2397 021a 1432     		adds	r2, r2, #20
 2398 021c 9342     		cmp	r3, r2
 2399 021e 25D0     		beq	.L255
 641:Drivers/STM32F1xx_HAL_Driver/Src/stm32f1xx_hal_dma.c **** 
 2400              		.loc 1 641 7 discriminator 49 view .LVU701
 2401 0220 1432     		adds	r2, r2, #20
 2402 0222 9342     		cmp	r3, r2
 2403 0224 24D0     		beq	.L256
 641:Drivers/STM32F1xx_HAL_Driver/Src/stm32f1xx_hal_dma.c **** 
 2404              		.loc 1 641 7 discriminator 51 view .LVU702
 2405 0226 1432     		adds	r2, r2, #20
 2406 0228 9342     		cmp	r3, r2
 2407 022a 24D0     		beq	.L257
 641:Drivers/STM32F1xx_HAL_Driver/Src/stm32f1xx_hal_dma.c **** 
 2408              		.loc 1 641 7 discriminator 53 view .LVU703
 2409 022c 1432     		adds	r2, r2, #20
 2410 022e 9342     		cmp	r3, r2
 2411 0230 24D0     		beq	.L258
 641:Drivers/STM32F1xx_HAL_Driver/Src/stm32f1xx_hal_dma.c **** 
 2412              		.loc 1 641 7 discriminator 55 view .LVU704
 2413 0232 1432     		adds	r2, r2, #20
 2414 0234 9342     		cmp	r3, r2
 2415 0236 24D0     		beq	.L259
 641:Drivers/STM32F1xx_HAL_Driver/Src/stm32f1xx_hal_dma.c **** 
 2416              		.loc 1 641 7 discriminator 57 view .LVU705
 2417 0238 1432     		adds	r2, r2, #20
 2418 023a 9342     		cmp	r3, r2
 2419 023c 24D0     		beq	.L260
 641:Drivers/STM32F1xx_HAL_Driver/Src/stm32f1xx_hal_dma.c **** 
 2420              		.loc 1 641 7 discriminator 59 view .LVU706
 2421 023e 02F56272 		add	r2, r2, #904
 2422 0242 9342     		cmp	r3, r2
 2423 0244 23D0     		beq	.L261
 641:Drivers/STM32F1xx_HAL_Driver/Src/stm32f1xx_hal_dma.c **** 
 2424              		.loc 1 641 7 discriminator 61 view .LVU707
 2425 0246 1432     		adds	r2, r2, #20
 2426 0248 9342     		cmp	r3, r2
 2427 024a 22D0     		beq	.L262
 641:Drivers/STM32F1xx_HAL_Driver/Src/stm32f1xx_hal_dma.c **** 
 2428              		.loc 1 641 7 discriminator 63 view .LVU708
 2429 024c 1432     		adds	r2, r2, #20
 2430 024e 9342     		cmp	r3, r2
 2431 0250 21D0     		beq	.L263
 641:Drivers/STM32F1xx_HAL_Driver/Src/stm32f1xx_hal_dma.c **** 
 2432              		.loc 1 641 7 discriminator 65 view .LVU709
ARM GAS  /tmp//cc32eCGN.s 			page 71


 2433 0252 1432     		adds	r2, r2, #20
 2434 0254 9342     		cmp	r3, r2
 2435 0256 02D0     		beq	.L269
 641:Drivers/STM32F1xx_HAL_Driver/Src/stm32f1xx_hal_dma.c **** 
 2436              		.loc 1 641 7 discriminator 68 view .LVU710
 2437 0258 4FF40032 		mov	r2, #131072
 2438 025c 03E0     		b	.L220
 2439              	.L269:
 641:Drivers/STM32F1xx_HAL_Driver/Src/stm32f1xx_hal_dma.c **** 
 2440              		.loc 1 641 7 discriminator 67 view .LVU711
 2441 025e 4FF40052 		mov	r2, #8192
 2442 0262 00E0     		b	.L220
 2443              	.L254:
 641:Drivers/STM32F1xx_HAL_Driver/Src/stm32f1xx_hal_dma.c **** 
 2444              		.loc 1 641 7 discriminator 48 view .LVU712
 2445 0264 0222     		movs	r2, #2
 2446              	.L220:
 641:Drivers/STM32F1xx_HAL_Driver/Src/stm32f1xx_hal_dma.c **** 
 2447              		.loc 1 641 7 discriminator 90 view .LVU713
 2448 0266 104B     		ldr	r3, .L270+12
 2449 0268 5A60     		str	r2, [r3, #4]
 2450 026a B2E7     		b	.L219
 2451              	.L255:
 641:Drivers/STM32F1xx_HAL_Driver/Src/stm32f1xx_hal_dma.c **** 
 2452              		.loc 1 641 7 discriminator 50 view .LVU714
 2453 026c 2022     		movs	r2, #32
 2454 026e FAE7     		b	.L220
 2455              	.L256:
 641:Drivers/STM32F1xx_HAL_Driver/Src/stm32f1xx_hal_dma.c **** 
 2456              		.loc 1 641 7 discriminator 52 view .LVU715
 2457 0270 4FF40072 		mov	r2, #512
 2458 0274 F7E7     		b	.L220
 2459              	.L257:
 641:Drivers/STM32F1xx_HAL_Driver/Src/stm32f1xx_hal_dma.c **** 
 2460              		.loc 1 641 7 discriminator 54 view .LVU716
 2461 0276 4FF40052 		mov	r2, #8192
 2462 027a F4E7     		b	.L220
 2463              	.L258:
 641:Drivers/STM32F1xx_HAL_Driver/Src/stm32f1xx_hal_dma.c **** 
 2464              		.loc 1 641 7 discriminator 56 view .LVU717
 2465 027c 4FF40032 		mov	r2, #131072
 2466 0280 F1E7     		b	.L220
 2467              	.L259:
 641:Drivers/STM32F1xx_HAL_Driver/Src/stm32f1xx_hal_dma.c **** 
 2468              		.loc 1 641 7 discriminator 58 view .LVU718
 2469 0282 4FF40012 		mov	r2, #2097152
 2470 0286 EEE7     		b	.L220
 2471              	.L260:
 641:Drivers/STM32F1xx_HAL_Driver/Src/stm32f1xx_hal_dma.c **** 
 2472              		.loc 1 641 7 discriminator 60 view .LVU719
 2473 0288 4FF00072 		mov	r2, #33554432
 2474 028c EBE7     		b	.L220
 2475              	.L261:
 641:Drivers/STM32F1xx_HAL_Driver/Src/stm32f1xx_hal_dma.c **** 
 2476              		.loc 1 641 7 discriminator 62 view .LVU720
 2477 028e 0222     		movs	r2, #2
 2478 0290 E9E7     		b	.L220
ARM GAS  /tmp//cc32eCGN.s 			page 72


 2479              	.L262:
 641:Drivers/STM32F1xx_HAL_Driver/Src/stm32f1xx_hal_dma.c **** 
 2480              		.loc 1 641 7 discriminator 64 view .LVU721
 2481 0292 2022     		movs	r2, #32
 2482 0294 E7E7     		b	.L220
 2483              	.L263:
 641:Drivers/STM32F1xx_HAL_Driver/Src/stm32f1xx_hal_dma.c **** 
 2484              		.loc 1 641 7 discriminator 66 view .LVU722
 2485 0296 4FF40072 		mov	r2, #512
 2486 029a E4E7     		b	.L220
 2487              	.L271:
 2488              		.align	2
 2489              	.L270:
 2490 029c 80000240 		.word	1073873024
 2491 02a0 00040240 		.word	1073873920
 2492 02a4 08000240 		.word	1073872904
 2493 02a8 00000240 		.word	1073872896
 2494              	.LVL73:
 2495              	.L215:
 654:Drivers/STM32F1xx_HAL_Driver/Src/stm32f1xx_hal_dma.c ****   {
 2496              		.loc 1 654 8 is_stmt 1 view .LVU723
 654:Drivers/STM32F1xx_HAL_Driver/Src/stm32f1xx_hal_dma.c ****   {
 2497              		.loc 1 654 48 is_stmt 0 view .LVU724
 2498 02ac 0823     		movs	r3, #8
 2499 02ae 8B40     		lsls	r3, r3, r1
 654:Drivers/STM32F1xx_HAL_Driver/Src/stm32f1xx_hal_dma.c ****   {
 2500              		.loc 1 654 11 view .LVU725
 2501 02b0 1342     		tst	r3, r2
 2502 02b2 3FF4EEAE 		beq	.L207
 654:Drivers/STM32F1xx_HAL_Driver/Src/stm32f1xx_hal_dma.c ****   {
 2503              		.loc 1 654 73 discriminator 1 view .LVU726
 2504 02b6 15F0080F 		tst	r5, #8
 2505 02ba 3FF4EAAE 		beq	.L207
 659:Drivers/STM32F1xx_HAL_Driver/Src/stm32f1xx_hal_dma.c **** 
 2506              		.loc 1 659 5 is_stmt 1 view .LVU727
 2507 02be 2368     		ldr	r3, [r4]
 2508 02c0 23F00E03 		bic	r3, r3, #14
 2509 02c4 2360     		str	r3, [r4]
 662:Drivers/STM32F1xx_HAL_Driver/Src/stm32f1xx_hal_dma.c **** 
 2510              		.loc 1 662 5 view .LVU728
 662:Drivers/STM32F1xx_HAL_Driver/Src/stm32f1xx_hal_dma.c **** 
 2511              		.loc 1 662 55 is_stmt 0 view .LVU729
 2512 02c6 026C     		ldr	r2, [r0, #64]
 2513              	.LVL74:
 662:Drivers/STM32F1xx_HAL_Driver/Src/stm32f1xx_hal_dma.c **** 
 2514              		.loc 1 662 9 view .LVU730
 2515 02c8 C16B     		ldr	r1, [r0, #60]
 662:Drivers/STM32F1xx_HAL_Driver/Src/stm32f1xx_hal_dma.c **** 
 2516              		.loc 1 662 48 view .LVU731
 2517 02ca 0123     		movs	r3, #1
 2518 02cc 03FA02F2 		lsl	r2, r3, r2
 662:Drivers/STM32F1xx_HAL_Driver/Src/stm32f1xx_hal_dma.c **** 
 2519              		.loc 1 662 32 view .LVU732
 2520 02d0 4A60     		str	r2, [r1, #4]
 665:Drivers/STM32F1xx_HAL_Driver/Src/stm32f1xx_hal_dma.c **** 
 2521              		.loc 1 665 5 is_stmt 1 view .LVU733
 665:Drivers/STM32F1xx_HAL_Driver/Src/stm32f1xx_hal_dma.c **** 
ARM GAS  /tmp//cc32eCGN.s 			page 73


 2522              		.loc 1 665 21 is_stmt 0 view .LVU734
 2523 02d2 8363     		str	r3, [r0, #56]
 668:Drivers/STM32F1xx_HAL_Driver/Src/stm32f1xx_hal_dma.c **** 
 2524              		.loc 1 668 5 is_stmt 1 view .LVU735
 668:Drivers/STM32F1xx_HAL_Driver/Src/stm32f1xx_hal_dma.c **** 
 2525              		.loc 1 668 17 is_stmt 0 view .LVU736
 2526 02d4 80F82130 		strb	r3, [r0, #33]
 671:Drivers/STM32F1xx_HAL_Driver/Src/stm32f1xx_hal_dma.c **** 
 2527              		.loc 1 671 5 is_stmt 1 view .LVU737
 671:Drivers/STM32F1xx_HAL_Driver/Src/stm32f1xx_hal_dma.c **** 
 2528              		.loc 1 671 5 view .LVU738
 2529 02d8 0023     		movs	r3, #0
 2530 02da 80F82030 		strb	r3, [r0, #32]
 671:Drivers/STM32F1xx_HAL_Driver/Src/stm32f1xx_hal_dma.c **** 
 2531              		.loc 1 671 5 view .LVU739
 673:Drivers/STM32F1xx_HAL_Driver/Src/stm32f1xx_hal_dma.c ****     {
 2532              		.loc 1 673 5 view .LVU740
 673:Drivers/STM32F1xx_HAL_Driver/Src/stm32f1xx_hal_dma.c ****     {
 2533              		.loc 1 673 13 is_stmt 0 view .LVU741
 2534 02de 036B     		ldr	r3, [r0, #48]
 673:Drivers/STM32F1xx_HAL_Driver/Src/stm32f1xx_hal_dma.c ****     {
 2535              		.loc 1 673 8 view .LVU742
 2536 02e0 002B     		cmp	r3, #0
 2537 02e2 3FF4D6AE 		beq	.L207
 676:Drivers/STM32F1xx_HAL_Driver/Src/stm32f1xx_hal_dma.c ****     }
 2538              		.loc 1 676 7 is_stmt 1 view .LVU743
 2539 02e6 9847     		blx	r3
 2540              	.LVL75:
 679:Drivers/STM32F1xx_HAL_Driver/Src/stm32f1xx_hal_dma.c **** }
 2541              		.loc 1 679 3 view .LVU744
 2542 02e8 D3E6     		b	.L207
 2543              		.cfi_endproc
 2544              	.LFE72:
 2546 02ea 00BF     		.section	.text.HAL_DMA_RegisterCallback,"ax",%progbits
 2547              		.align	1
 2548              		.global	HAL_DMA_RegisterCallback
 2549              		.syntax unified
 2550              		.thumb
 2551              		.thumb_func
 2553              	HAL_DMA_RegisterCallback:
 2554              	.LVL76:
 2555              	.LFB73:
 693:Drivers/STM32F1xx_HAL_Driver/Src/stm32f1xx_hal_dma.c ****   HAL_StatusTypeDef status = HAL_OK;
 2556              		.loc 1 693 1 view -0
 2557              		.cfi_startproc
 2558              		@ args = 0, pretend = 0, frame = 0
 2559              		@ frame_needed = 0, uses_anonymous_args = 0
 2560              		@ link register save eliminated.
 693:Drivers/STM32F1xx_HAL_Driver/Src/stm32f1xx_hal_dma.c ****   HAL_StatusTypeDef status = HAL_OK;
 2561              		.loc 1 693 1 is_stmt 0 view .LVU746
 2562 0000 0346     		mov	r3, r0
 694:Drivers/STM32F1xx_HAL_Driver/Src/stm32f1xx_hal_dma.c ****   
 2563              		.loc 1 694 3 is_stmt 1 view .LVU747
 2564              	.LVL77:
 697:Drivers/STM32F1xx_HAL_Driver/Src/stm32f1xx_hal_dma.c ****   
 2565              		.loc 1 697 3 view .LVU748
 697:Drivers/STM32F1xx_HAL_Driver/Src/stm32f1xx_hal_dma.c ****   
ARM GAS  /tmp//cc32eCGN.s 			page 74


 2566              		.loc 1 697 3 view .LVU749
 2567 0002 90F82000 		ldrb	r0, [r0, #32]	@ zero_extendqisi2
 2568              	.LVL78:
 697:Drivers/STM32F1xx_HAL_Driver/Src/stm32f1xx_hal_dma.c ****   
 2569              		.loc 1 697 3 is_stmt 0 view .LVU750
 2570 0006 0128     		cmp	r0, #1
 2571 0008 20D0     		beq	.L280
 697:Drivers/STM32F1xx_HAL_Driver/Src/stm32f1xx_hal_dma.c ****   
 2572              		.loc 1 697 3 is_stmt 1 discriminator 2 view .LVU751
 2573 000a 0120     		movs	r0, #1
 2574 000c 83F82000 		strb	r0, [r3, #32]
 697:Drivers/STM32F1xx_HAL_Driver/Src/stm32f1xx_hal_dma.c ****   
 2575              		.loc 1 697 3 view .LVU752
 699:Drivers/STM32F1xx_HAL_Driver/Src/stm32f1xx_hal_dma.c ****   {
 2576              		.loc 1 699 3 view .LVU753
 699:Drivers/STM32F1xx_HAL_Driver/Src/stm32f1xx_hal_dma.c ****   {
 2577              		.loc 1 699 33 is_stmt 0 view .LVU754
 2578 0010 93F821C0 		ldrb	ip, [r3, #33]	@ zero_extendqisi2
 2579 0014 5FFA8CF0 		uxtb	r0, ip
 699:Drivers/STM32F1xx_HAL_Driver/Src/stm32f1xx_hal_dma.c ****   {
 2580              		.loc 1 699 5 view .LVU755
 2581 0018 BCF1010F 		cmp	ip, #1
 2582 001c 04D0     		beq	.L283
 726:Drivers/STM32F1xx_HAL_Driver/Src/stm32f1xx_hal_dma.c ****   } 
 2583              		.loc 1 726 12 view .LVU756
 2584 001e 0120     		movs	r0, #1
 2585              	.L274:
 2586              	.LVL79:
 730:Drivers/STM32F1xx_HAL_Driver/Src/stm32f1xx_hal_dma.c ****   
 2587              		.loc 1 730 3 is_stmt 1 view .LVU757
 730:Drivers/STM32F1xx_HAL_Driver/Src/stm32f1xx_hal_dma.c ****   
 2588              		.loc 1 730 3 view .LVU758
 2589 0020 0022     		movs	r2, #0
 2590              	.LVL80:
 730:Drivers/STM32F1xx_HAL_Driver/Src/stm32f1xx_hal_dma.c ****   
 2591              		.loc 1 730 3 is_stmt 0 view .LVU759
 2592 0022 83F82020 		strb	r2, [r3, #32]
 730:Drivers/STM32F1xx_HAL_Driver/Src/stm32f1xx_hal_dma.c ****   
 2593              		.loc 1 730 3 is_stmt 1 view .LVU760
 732:Drivers/STM32F1xx_HAL_Driver/Src/stm32f1xx_hal_dma.c **** }
 2594              		.loc 1 732 3 view .LVU761
 732:Drivers/STM32F1xx_HAL_Driver/Src/stm32f1xx_hal_dma.c **** }
 2595              		.loc 1 732 10 is_stmt 0 view .LVU762
 2596 0026 7047     		bx	lr
 2597              	.LVL81:
 2598              	.L283:
 701:Drivers/STM32F1xx_HAL_Driver/Src/stm32f1xx_hal_dma.c ****     {
 2599              		.loc 1 701 5 is_stmt 1 view .LVU763
 2600 0028 0329     		cmp	r1, #3
 2601 002a F9D8     		bhi	.L274
 2602 002c DFE801F0 		tbb	[pc, r1]
 2603              	.L276:
 2604 0030 02       		.byte	(.L279-.L276)/2
 2605 0031 05       		.byte	(.L278-.L276)/2
 2606 0032 08       		.byte	(.L277-.L276)/2
 2607 0033 0B       		.byte	(.L275-.L276)/2
 2608              		.p2align 1
ARM GAS  /tmp//cc32eCGN.s 			page 75


 2609              	.L279:
 704:Drivers/STM32F1xx_HAL_Driver/Src/stm32f1xx_hal_dma.c ****       break;
 2610              		.loc 1 704 7 view .LVU764
 704:Drivers/STM32F1xx_HAL_Driver/Src/stm32f1xx_hal_dma.c ****       break;
 2611              		.loc 1 704 30 is_stmt 0 view .LVU765
 2612 0034 9A62     		str	r2, [r3, #40]
 705:Drivers/STM32F1xx_HAL_Driver/Src/stm32f1xx_hal_dma.c ****       
 2613              		.loc 1 705 7 is_stmt 1 view .LVU766
 694:Drivers/STM32F1xx_HAL_Driver/Src/stm32f1xx_hal_dma.c ****   
 2614              		.loc 1 694 21 is_stmt 0 view .LVU767
 2615 0036 0846     		mov	r0, r1
 705:Drivers/STM32F1xx_HAL_Driver/Src/stm32f1xx_hal_dma.c ****       
 2616              		.loc 1 705 7 view .LVU768
 2617 0038 F2E7     		b	.L274
 2618              	.L278:
 708:Drivers/STM32F1xx_HAL_Driver/Src/stm32f1xx_hal_dma.c ****       break;         
 2619              		.loc 1 708 7 is_stmt 1 view .LVU769
 708:Drivers/STM32F1xx_HAL_Driver/Src/stm32f1xx_hal_dma.c ****       break;         
 2620              		.loc 1 708 34 is_stmt 0 view .LVU770
 2621 003a DA62     		str	r2, [r3, #44]
 709:Drivers/STM32F1xx_HAL_Driver/Src/stm32f1xx_hal_dma.c **** 
 2622              		.loc 1 709 7 is_stmt 1 view .LVU771
 694:Drivers/STM32F1xx_HAL_Driver/Src/stm32f1xx_hal_dma.c ****   
 2623              		.loc 1 694 21 is_stmt 0 view .LVU772
 2624 003c 0020     		movs	r0, #0
 709:Drivers/STM32F1xx_HAL_Driver/Src/stm32f1xx_hal_dma.c **** 
 2625              		.loc 1 709 7 view .LVU773
 2626 003e EFE7     		b	.L274
 2627              	.L277:
 712:Drivers/STM32F1xx_HAL_Driver/Src/stm32f1xx_hal_dma.c ****       break;         
 2628              		.loc 1 712 7 is_stmt 1 view .LVU774
 712:Drivers/STM32F1xx_HAL_Driver/Src/stm32f1xx_hal_dma.c ****       break;         
 2629              		.loc 1 712 31 is_stmt 0 view .LVU775
 2630 0040 1A63     		str	r2, [r3, #48]
 713:Drivers/STM32F1xx_HAL_Driver/Src/stm32f1xx_hal_dma.c ****       
 2631              		.loc 1 713 7 is_stmt 1 view .LVU776
 694:Drivers/STM32F1xx_HAL_Driver/Src/stm32f1xx_hal_dma.c ****   
 2632              		.loc 1 694 21 is_stmt 0 view .LVU777
 2633 0042 0020     		movs	r0, #0
 713:Drivers/STM32F1xx_HAL_Driver/Src/stm32f1xx_hal_dma.c ****       
 2634              		.loc 1 713 7 view .LVU778
 2635 0044 ECE7     		b	.L274
 2636              	.L275:
 716:Drivers/STM32F1xx_HAL_Driver/Src/stm32f1xx_hal_dma.c ****       break; 
 2637              		.loc 1 716 7 is_stmt 1 view .LVU779
 716:Drivers/STM32F1xx_HAL_Driver/Src/stm32f1xx_hal_dma.c ****       break; 
 2638              		.loc 1 716 31 is_stmt 0 view .LVU780
 2639 0046 5A63     		str	r2, [r3, #52]
 717:Drivers/STM32F1xx_HAL_Driver/Src/stm32f1xx_hal_dma.c ****       
 2640              		.loc 1 717 7 is_stmt 1 view .LVU781
 694:Drivers/STM32F1xx_HAL_Driver/Src/stm32f1xx_hal_dma.c ****   
 2641              		.loc 1 694 21 is_stmt 0 view .LVU782
 2642 0048 0020     		movs	r0, #0
 717:Drivers/STM32F1xx_HAL_Driver/Src/stm32f1xx_hal_dma.c ****       
 2643              		.loc 1 717 7 view .LVU783
 2644 004a E9E7     		b	.L274
 2645              	.L280:
ARM GAS  /tmp//cc32eCGN.s 			page 76


 697:Drivers/STM32F1xx_HAL_Driver/Src/stm32f1xx_hal_dma.c ****   
 2646              		.loc 1 697 3 discriminator 1 view .LVU784
 2647 004c 0220     		movs	r0, #2
 733:Drivers/STM32F1xx_HAL_Driver/Src/stm32f1xx_hal_dma.c **** 
 2648              		.loc 1 733 1 view .LVU785
 2649 004e 7047     		bx	lr
 2650              		.cfi_endproc
 2651              	.LFE73:
 2653              		.section	.text.HAL_DMA_UnRegisterCallback,"ax",%progbits
 2654              		.align	1
 2655              		.global	HAL_DMA_UnRegisterCallback
 2656              		.syntax unified
 2657              		.thumb
 2658              		.thumb_func
 2660              	HAL_DMA_UnRegisterCallback:
 2661              	.LVL82:
 2662              	.LFB74:
 744:Drivers/STM32F1xx_HAL_Driver/Src/stm32f1xx_hal_dma.c ****   HAL_StatusTypeDef status = HAL_OK;
 2663              		.loc 1 744 1 is_stmt 1 view -0
 2664              		.cfi_startproc
 2665              		@ args = 0, pretend = 0, frame = 0
 2666              		@ frame_needed = 0, uses_anonymous_args = 0
 2667              		@ link register save eliminated.
 744:Drivers/STM32F1xx_HAL_Driver/Src/stm32f1xx_hal_dma.c ****   HAL_StatusTypeDef status = HAL_OK;
 2668              		.loc 1 744 1 is_stmt 0 view .LVU787
 2669 0000 0346     		mov	r3, r0
 745:Drivers/STM32F1xx_HAL_Driver/Src/stm32f1xx_hal_dma.c **** 
 2670              		.loc 1 745 3 is_stmt 1 view .LVU788
 2671              	.LVL83:
 748:Drivers/STM32F1xx_HAL_Driver/Src/stm32f1xx_hal_dma.c ****   
 2672              		.loc 1 748 3 view .LVU789
 748:Drivers/STM32F1xx_HAL_Driver/Src/stm32f1xx_hal_dma.c ****   
 2673              		.loc 1 748 3 view .LVU790
 2674 0002 90F82020 		ldrb	r2, [r0, #32]	@ zero_extendqisi2
 2675 0006 012A     		cmp	r2, #1
 2676 0008 26D0     		beq	.L293
 748:Drivers/STM32F1xx_HAL_Driver/Src/stm32f1xx_hal_dma.c ****   
 2677              		.loc 1 748 3 discriminator 2 view .LVU791
 2678 000a 0122     		movs	r2, #1
 2679 000c 80F82020 		strb	r2, [r0, #32]
 748:Drivers/STM32F1xx_HAL_Driver/Src/stm32f1xx_hal_dma.c ****   
 2680              		.loc 1 748 3 view .LVU792
 750:Drivers/STM32F1xx_HAL_Driver/Src/stm32f1xx_hal_dma.c ****   {
 2681              		.loc 1 750 3 view .LVU793
 750:Drivers/STM32F1xx_HAL_Driver/Src/stm32f1xx_hal_dma.c ****   {
 2682              		.loc 1 750 33 is_stmt 0 view .LVU794
 2683 0010 90F82120 		ldrb	r2, [r0, #33]	@ zero_extendqisi2
 2684 0014 D0B2     		uxtb	r0, r2
 2685              	.LVL84:
 750:Drivers/STM32F1xx_HAL_Driver/Src/stm32f1xx_hal_dma.c ****   {
 2686              		.loc 1 750 5 view .LVU795
 2687 0016 012A     		cmp	r2, #1
 2688 0018 04D0     		beq	.L296
 784:Drivers/STM32F1xx_HAL_Driver/Src/stm32f1xx_hal_dma.c ****   } 
 2689              		.loc 1 784 12 view .LVU796
 2690 001a 0120     		movs	r0, #1
 2691              	.L286:
ARM GAS  /tmp//cc32eCGN.s 			page 77


 2692              	.LVL85:
 788:Drivers/STM32F1xx_HAL_Driver/Src/stm32f1xx_hal_dma.c ****   
 2693              		.loc 1 788 3 is_stmt 1 view .LVU797
 788:Drivers/STM32F1xx_HAL_Driver/Src/stm32f1xx_hal_dma.c ****   
 2694              		.loc 1 788 3 view .LVU798
 2695 001c 0022     		movs	r2, #0
 2696 001e 83F82020 		strb	r2, [r3, #32]
 788:Drivers/STM32F1xx_HAL_Driver/Src/stm32f1xx_hal_dma.c ****   
 2697              		.loc 1 788 3 view .LVU799
